
========================================================================

** ELF Header Information

    File Name: 5-shell.axf

    Machine class: ELFCLASS32 (32-bit)
    Data encoding: ELFDATA2LSB (Little endian)
    Header version: EV_CURRENT (Current version)
    File Type: ET_EXEC (Executable) (2)
    Machine: EM_ARM (ARM)

    Image Entry point: 0x00000000
    Flags: EF_ARM_HASENTRY + EF_ARM_SYMSARESORTED + EF_ARM_MAPSYMSFIRST (0x02000016)

    EABI conformance : ARM EABI Version 2.

    Built with
    ARM/Thumb Macro Assembler vsn ADS1.2 [Build 805]
    ARM C Compiler, ADS1.2 [Build 805]
    ARM Linker, ADS1.2 [Build 805] 

    Header size: 52 bytes (0x34)
    Program header entry size: 32 bytes (0x20)
    Section header entry size: 40 bytes (0x28)

    Program header entries: 1
    Section header entries: 9

    Program header offset: 42328 (0x0000a558)
    Section header offset: 42360 (0x0000a578)

    Section header string table index: 8

========================================================================

** Program header #0 (PT_LOAD) [PF_X + PF_W + PF_R + PF_ARM_ENTRY]
    Size : 18740 bytes (18440 bytes in file)
    Virtual address: 0x00000000


========================================================================

** Section #1 'ER_RO' (SHT_PROGBITS) [SHF_ALLOC + SHF_EXECINSTR]
    Size   : 18440 bytes (alignment 4)

    $a
    demo
        0x00000000:    e3a0dd40    @...    MOV      r13,#0x1000
        0x00000004:    ea000009    ....    B        mymain  ; 0x30
    sys_init
    .text
        0x00000008:    e3a00000    ....    MOV      r0,#0
        0x0000000c:    e3a01453    S...    MOV      r1,#0x53000000
        0x00000010:    e5810000    ....    STR      r0,[r1,#0]
        0x00000014:    e3a01582    ....    MOV      r1,#0x20800000
        0x00000018:    e5c10000    ....    STRB     r0,[r1,#0]
        0x0000001c:    e3a02001    . ..    MOV      r2,#1
        0x00000020:    e3a01456    V...    MOV      r1,#0x56000000
        0x00000024:    e5812010    . ..    STR      r2,[r1,#0x10]
        0x00000028:    e5810014    ....    STR      r0,[r1,#0x14]
        0x0000002c:    e1a0f00e    ....    MOV      pc,r14
    mymain
        0x00000030:    e92d4070    p@-.    STMFD    r13!,{r4-r6,r14}
        0x00000034:    e24dd090    ..M.    SUB      r13,r13,#0x90
        0x00000038:    ebfffff2    ....    BL       sys_init  ; 0x8
        0x0000003c:    eb000044    D...    BL       uart_init  ; 0x154
        0x00000040:    e28f0094    ....    ADD      r0,pc,#0x94 ; #0xdc
        0x00000044:    eb00006d    m...    BL       puts  ; 0x200
        0x00000048:    e28f00a8    ....    ADD      r0,pc,#0xa8 ; #0xf8
        0x0000004c:    eb00006b    k...    BL       puts  ; 0x200
        0x00000050:    e59f60bc    .`..    LDR      r6,0x114
        0x00000054:    e28f00bc    ....    ADD      r0,pc,#0xbc ; #0x118
        0x00000058:    eb000068    h...    BL       puts  ; 0x200
        0x0000005c:    e28d002c    ,...    ADD      r0,r13,#0x2c
        0x00000060:    eb000070    p...    BL       gets  ; 0x228
        0x00000064:    e28f00b8    ....    ADD      r0,pc,#0xb8 ; #0x124
        0x00000068:    eb000064    d...    BL       puts  ; 0x200
        0x0000006c:    e28d002c    ,...    ADD      r0,r13,#0x2c
        0x00000070:    eb000062    b...    BL       puts  ; 0x200
        0x00000074:    e28f0094    ....    ADD      r0,pc,#0x94 ; #0x110
        0x00000078:    eb000060    `...    BL       puts  ; 0x200
        0x0000007c:    e28d1004    ....    ADD      r1,r13,#4
        0x00000080:    e28d002c    ,...    ADD      r0,r13,#0x2c
        0x00000084:    eb00007d    }...    BL       shell_parse  ; 0x280
        0x00000088:    e1a05000    .P..    MOV      r5,r0
        0x0000008c:    e3a04000    .@..    MOV      r4,#0
        0x00000090:    ea000005    ....    B        0xac
        0x00000094:    e28d0004    ....    ADD      r0,r13,#4
        0x00000098:    e7900104    ....    LDR      r0,[r0,r4,LSL #2]
        0x0000009c:    eb000057    W...    BL       puts  ; 0x200
        0x000000a0:    e28f0068    h...    ADD      r0,pc,#0x68 ; #0x110
        0x000000a4:    eb000055    U...    BL       puts  ; 0x200
        0x000000a8:    e2844001    .@..    ADD      r4,r4,#1
        0x000000ac:    e1540005    ..T.    CMP      r4,r5
        0x000000b0:    bafffff7    ....    BLT      0x94
        0x000000b4:    e1a01006    ....    MOV      r1,r6
        0x000000b8:    e28f0070    p...    ADD      r0,pc,#0x70 ; #0x130
        0x000000bc:    eb000088    ....    BL       printf  ; 0x2e4
        0x000000c0:    e28f106c    l...    ADD      r1,pc,#0x6c ; #0x134
        0x000000c4:    e59d0004    ....    LDR      r0,[r13,#4]
        0x000000c8:    eb00009b    ....    BL       strcmp  ; 0x33c
        0x000000cc:    e3500000    ..P.    CMP      r0,#0
        0x000000d0:    028f0064    d...    ADDEQ    r0,pc,#0x64 ; #0x13c
        0x000000d4:    0b000049    I...    BLEQ     puts  ; 0x200
        0x000000d8:    eaffffdd    ....    B        0x54
    $d
        0x000000dc:    6f4e0a0a    ..No    DCD    1867385354
        0x000000e0:    32322076    v 22    DCD    842145910
        0x000000e4:    31303220     201    DCD    825242144
        0x000000e8:    31202031    1  1    DCD    824188977
        0x000000ec:    32353a36    6:52    DCD    842349110
        0x000000f0:    0a35313a    :15.    DCD    171258170
        0x000000f4:    00000000    ....    DCD    0
        0x000000f8:    636c6577    welc    DCD    1668048247
        0x000000fc:    20656d6f    ome     DCD    543518063
        0x00000100:    6d206f74    to m    DCD    1830842228
        0x00000104:    6f622079    y bo    DCD    1868701817
        0x00000108:    7620746f    ot v    DCD    1981838447
        0x0000010c:    20302e31    1.0     DCD    540028465
        0x00000110:    0000000a    ....    DCD    10
        0x00000114:    12345678    xV4.    DCD    305419896
        0x00000118:    65616b61    akae    DCD    1700883297
        0x0000011c:    24207564    du $    DCD    606106980
        0x00000120:    00000020     ...    DCD    32
        0x00000124:    72756f79    your    DCD    1920298873
        0x00000128:    706e6920     inp    DCD    1886284064
        0x0000012c:    003a7475    ut:.    DCD    3830901
        0x00000130:    00007825    %x..    DCD    30757
        0x00000134:    706c6568    help    DCD    1886152040
        0x00000138:    00000000    ....    DCD    0
        0x0000013c:    73696874    this    DCD    1936287860
        0x00000140:    20736920     is     DCD    544434464
        0x00000144:    74737973    syst    DCD    1953724787
        0x00000148:    68206d65    em h    DCD    1746955621
        0x0000014c:    0a706c65    elp.    DCD    175139941
        0x00000150:    00000000    ....    DCD    0
    uart_init
    $a
    .text
        0x00000154:    e3a00456    V...    MOV      r0,#0x56000000
        0x00000158:    e5901070    p...    LDR      r1,[r0,#0x70]
        0x0000015c:    e38110a0    ....    ORR      r1,r1,#0xa0
        0x00000160:    e5801070    p...    STR      r1,[r0,#0x70]
        0x00000164:    e3a00450    P...    MOV      r0,#0x50000000
        0x00000168:    e5901000    ....    LDR      r1,[r0,#0]
        0x0000016c:    e3811003    ....    ORR      r1,r1,#3
        0x00000170:    e5801000    ....    STR      r1,[r0,#0]
        0x00000174:    e5901004    ....    LDR      r1,[r0,#4]
        0x00000178:    e3811005    ....    ORR      r1,r1,#5
        0x0000017c:    e5801004    ....    STR      r1,[r0,#4]
        0x00000180:    e3a01026    &...    MOV      r1,#0x26
        0x00000184:    e5801028    (...    STR      r1,[r0,#0x28]
        0x00000188:    e1a0f00e    ....    MOV      pc,r14
    uart_putchar
        0x0000018c:    e3a02450    P$..    MOV      r2,#0x50000000
        0x00000190:    e5921010    ....    LDR      r1,[r2,#0x10]
        0x00000194:    e3110004    ....    TST      r1,#4
        0x00000198:    0afffffc    ....    BEQ      0x190
        0x0000019c:    e5820020     ...    STR      r0,[r2,#0x20]
        0x000001a0:    e1a0f00e    ....    MOV      pc,r14
    uart_getchar
        0x000001a4:    e3a01450    P...    MOV      r1,#0x50000000
        0x000001a8:    e5910010    ....    LDR      r0,[r1,#0x10]
        0x000001ac:    e3100001    ....    TST      r0,#1
        0x000001b0:    0afffffc    ....    BEQ      0x1a8
        0x000001b4:    e5910024    $...    LDR      r0,[r1,#0x24]
        0x000001b8:    e20000ff    ....    AND      r0,r0,#0xff
        0x000001bc:    e1a0f00e    ....    MOV      pc,r14
    putchar
    .text
        0x000001c0:    e92d4010    .@-.    STMFD    r13!,{r4,r14}
        0x000001c4:    e1a04000    .@..    MOV      r4,r0
        0x000001c8:    e350000a    ..P.    CMP      r0,#0xa
        0x000001cc:    03a0000d    ....    MOVEQ    r0,#0xd
        0x000001d0:    0a000004    ....    BEQ      0x1e8
        0x000001d4:    e3540008    ..T.    CMP      r4,#8
        0x000001d8:    1a000003    ....    BNE      0x1ec
        0x000001dc:    e3a00008    ....    MOV      r0,#8
        0x000001e0:    ebffffe9    ....    BL       uart_putchar  ; 0x18c
        0x000001e4:    e3a00020     ...    MOV      r0,#0x20
        0x000001e8:    ebffffe7    ....    BL       uart_putchar  ; 0x18c
        0x000001ec:    e20400ff    ....    AND      r0,r4,#0xff
        0x000001f0:    ebffffe5    ....    BL       uart_putchar  ; 0x18c
        0x000001f4:    e1a00004    ....    MOV      r0,r4
        0x000001f8:    e8bd8010    ....    LDMFD    r13!,{r4,pc}
    getchar
        0x000001fc:    eaffffe8    ....    B        uart_getchar  ; 0x1a4
    puts
        0x00000200:    e92d4010    .@-.    STMFD    r13!,{r4,r14}
        0x00000204:    e1a04000    .@..    MOV      r4,r0
        0x00000208:    ea000001    ....    B        0x214
        0x0000020c:    e2844001    .@..    ADD      r4,r4,#1
        0x00000210:    ebffffea    ....    BL       putchar  ; 0x1c0
        0x00000214:    e5d40000    ....    LDRB     r0,[r4,#0]
        0x00000218:    e3500000    ..P.    CMP      r0,#0
        0x0000021c:    1afffffa    ....    BNE      0x20c
        0x00000220:    e3a00000    ....    MOV      r0,#0
        0x00000224:    e8bd8010    ....    LDMFD    r13!,{r4,pc}
    gets
        0x00000228:    e92d4038    8@-.    STMFD    r13!,{r3-r5,r14}
        0x0000022c:    e1a05000    .P..    MOV      r5,r0
        0x00000230:    e1a04000    .@..    MOV      r4,r0
        0x00000234:    ea000006    ....    B        0x254
        0x00000238:    e3500008    ..P.    CMP      r0,#8
        0x0000023c:    12844001    .@..    ADDNE    r4,r4,#1
        0x00000240:    1a000002    ....    BNE      0x250
        0x00000244:    e1540005    ..T.    CMP      r4,r5
        0x00000248:    9a000001    ....    BLS      0x254
        0x0000024c:    e2444001    .@D.    SUB      r4,r4,#1
        0x00000250:    ebffffda    ....    BL       putchar  ; 0x1c0
        0x00000254:    ebffffd2    ....    BL       uart_getchar  ; 0x1a4
        0x00000258:    e20000ff    ....    AND      r0,r0,#0xff
        0x0000025c:    e5c40000    ....    STRB     r0,[r4,#0]
        0x00000260:    e350000d    ..P.    CMP      r0,#0xd
        0x00000264:    1afffff3    ....    BNE      0x238
        0x00000268:    e3a00000    ....    MOV      r0,#0
        0x0000026c:    e5c40000    ....    STRB     r0,[r4,#0]
        0x00000270:    e3a0000a    ....    MOV      r0,#0xa
        0x00000274:    ebffffd1    ....    BL       putchar  ; 0x1c0
        0x00000278:    e1a00005    ....    MOV      r0,r5
        0x0000027c:    e8bd8038    8...    LDMFD    r13!,{r3-r5,pc}
    shell_parse
    .text
        0x00000280:    e52de004    ..-.    STR      r14,[r13,#-4]!
        0x00000284:    e3a0e000    ....    MOV      r14,#0
        0x00000288:    e3a03000    .0..    MOV      r3,#0
        0x0000028c:    e3a02000    . ..    MOV      r2,#0
        0x00000290:    ea00000e    ....    B        0x2d0
        0x00000294:    e35c0020     .\.    CMP      r12,#0x20
        0x00000298:    0a000008    ....    BEQ      0x2c0
        0x0000029c:    e3520000    ..R.    CMP      r2,#0
        0x000002a0:    1a000009    ....    BNE      0x2cc
        0x000002a4:    e1a02003    . ..    MOV      r2,r3
        0x000002a8:    e7810102    ....    STR      r0,[r1,r2,LSL #2]
        0x000002ac:    e5d0c000    ....    LDRB     r12,[r0,#0]
        0x000002b0:    e3a02001    . ..    MOV      r2,#1
        0x000002b4:    e2833001    .0..    ADD      r3,r3,#1
        0x000002b8:    e35c0020     .\.    CMP      r12,#0x20
        0x000002bc:    1a000002    ....    BNE      0x2cc
        0x000002c0:    e3520001    ..R.    CMP      r2,#1
        0x000002c4:    05c0e000    ....    STREQB   r14,[r0,#0]
        0x000002c8:    03a02000    . ..    MOVEQ    r2,#0
        0x000002cc:    e2800001    ....    ADD      r0,r0,#1
        0x000002d0:    e5d0c000    ....    LDRB     r12,[r0,#0]
        0x000002d4:    e35c0000    ..\.    CMP      r12,#0
        0x000002d8:    1affffed    ....    BNE      0x294
        0x000002dc:    e1a00003    ....    MOV      r0,r3
        0x000002e0:    e49df004    ....    LDR      pc,[r13],#4
    printf
    .text
        0x000002e4:    e92d000f    ..-.    STMFD    r13!,{r0-r3}
        0x000002e8:    e52de004    ..-.    STR      r14,[r13,#-4]!
        0x000002ec:    e24dd03c    <.M.    SUB      r13,r13,#0x3c
        0x000002f0:    e28d0044    D...    ADD      r0,r13,#0x44
        0x000002f4:    e58d0038    8...    STR      r0,[r13,#0x38]
        0x000002f8:    e59f002c    ,...    LDR      r0,0x32c
        0x000002fc:    e08f0000    ....    ADD      r0,pc,r0
        0x00000300:    e58d0020     ...    STR      r0,[r13,#0x20]
        0x00000304:    e59f0024    $...    LDR      r0,0x330
        0x00000308:    e08f0000    ....    ADD      r0,pc,r0
        0x0000030c:    e58d0024    $...    STR      r0,[r13,#0x24]
        0x00000310:    e59f001c    ....    LDR      r0,0x334
        0x00000314:    e28d3004    .0..    ADD      r3,r13,#4
        0x00000318:    e28d2038    8 ..    ADD      r2,r13,#0x38
        0x0000031c:    e59d1040    @...    LDR      r1,[r13,#0x40]
        0x00000320:    eb00002c    ,...    BL       __vfprintf  ; 0x3d8
        0x00000324:    e28dd03c    <...    ADD      r13,r13,#0x3c
        0x00000328:    e49df014    ....    LDR      pc,[r13],#0x14
    $d
    $f
        0x0000032c:    00000e18    ....    DCD    3608
    $f
        0x00000330:    00000e00    ....    DCD    3584
        0x00000334:    0000484c    LH..    DCD    18508
    _ones_word
    $d
    .text
        0x00000338:    01010101    ....    DCD    16843009
    strcmp
    $a
        0x0000033c:    e3100003    ....    TST      r0,#3
        0x00000340:    03110003    ....    TSTEQ    r1,#3
        0x00000344:    1a000017    ....    BNE      _strcmp_byteloop  ; 0x3a8
        0x00000348:    e92d4000    .@-.    STMFD    r13!,{r14}
        0x0000034c:    e51fe01c    ....    LDR      r14,0x338
    _strcmp_loop
        0x00000350:    e4902004    . ..    LDR      r2,[r0],#4
        0x00000354:    e4913004    .0..    LDR      r3,[r1],#4
        0x00000358:    e042c00e    ..B.    SUB      r12,r2,r14
        0x0000035c:    e1ccc002    ....    BIC      r12,r12,r2
        0x00000360:    e01cc38e    ....    ANDS     r12,r12,r14,LSL #7
        0x00000364:    01520003    ..R.    CMPEQ    r2,r3
        0x00000368:    0afffff8    ....    BEQ      _strcmp_loop  ; 0x350
        0x0000036c:    e8bd4000    .@..    LDMFD    r13!,{r14}
        0x00000370:    e1a00c03    ....    MOV      r0,r3,LSL #24
        0x00000374:    e0500c02    ..P.    SUBS     r0,r0,r2,LSL #24
        0x00000378:    031c0eff    ....    TSTEQ    r12,#0xff0
        0x0000037c:    1a000007    ....    BNE      _strcmp_return  ; 0x3a0
        0x00000380:    e1a00803    ....    MOV      r0,r3,LSL #16
        0x00000384:    e0500802    ..P.    SUBS     r0,r0,r2,LSL #16
        0x00000388:    031c0cff    ....    TSTEQ    r12,#0xff00
        0x0000038c:    1a000003    ....    BNE      _strcmp_return  ; 0x3a0
        0x00000390:    e1a00403    ....    MOV      r0,r3,LSL #8
        0x00000394:    e0500402    ..P.    SUBS     r0,r0,r2,LSL #8
        0x00000398:    031c08ff    ....    TSTEQ    r12,#0xff0000
        0x0000039c:    00530002    ..S.    SUBEQS   r0,r3,r2
    _strcmp_return
        0x000003a0:    11a00060    `...    MOVNE    r0,r0,RRX
        0x000003a4:    e1a0f00e    ....    MOV      pc,r14
    _strcmp_byteloop
        0x000003a8:    e4d02001    . ..    LDRB     r2,[r0],#1
        0x000003ac:    e4d13001    .0..    LDRB     r3,[r1],#1
        0x000003b0:    e3520001    ..R.    CMP      r2,#1
        0x000003b4:    21520003    ..R!    CMPCS    r2,r3
        0x000003b8:    1a000004    ....    BNE      _strcmp_byteend  ; 0x3d0
        0x000003bc:    e4d02001    . ..    LDRB     r2,[r0],#1
        0x000003c0:    e4d13001    .0..    LDRB     r3,[r1],#1
        0x000003c4:    e3520001    ..R.    CMP      r2,#1
        0x000003c8:    21520003    ..R!    CMPCS    r2,r3
        0x000003cc:    0afffff5    ....    BEQ      _strcmp_byteloop  ; 0x3a8
    _strcmp_byteend
        0x000003d0:    e0420003    ..B.    SUB      r0,r2,r3
        0x000003d4:    e1a0f00e    ....    MOV      pc,r14
    __vfprintf
    .text
        0x000003d8:    e92d4d80    .M-.    STMFD    r13!,{r7,r8,r10,r11,r14}
        0x000003dc:    e92d007c    |.-.    STMFD    r13!,{r2-r6}
        0x000003e0:    e92d0003    ..-.    STMFD    r13!,{r0,r1}
        0x000003e4:    e5d10000    ....    LDRB     r0,[r1,#0]
        0x000003e8:    e24dd008    ..M.    SUB      r13,r13,#8
        0x000003ec:    e1a06003    .`..    MOV      r6,r3
        0x000003f0:    e1a05002    .P..    MOV      r5,r2
        0x000003f4:    e3a08000    ....    MOV      r8,#0
        0x000003f8:    e2817001    .p..    ADD      r7,r1,#1
        0x000003fc:    e3500000    ..P.    CMP      r0,#0
        0x00000400:    0a0001d9    ....    BEQ      0xb6c
        0x00000404:    e3500025    %.P.    CMP      r0,#0x25
        0x00000408:    0a000005    ....    BEQ      0x424
        0x0000040c:    e596201c    . ..    LDR      r2,[r6,#0x1c]
        0x00000410:    e59d1008    ....    LDR      r1,[r13,#8]
        0x00000414:    e1a0e00f    ....    MOV      r14,pc
    $p
        0x00000418:    e1a0f002    ....    MOV      pc,r2
        0x0000041c:    e2888001    ....    ADD      r8,r8,#1
        0x00000420:    ea0001ce    ....    B        0xb60
        0x00000424:    e3a02000    . ..    MOV      r2,#0
        0x00000428:    e5862008    . ..    STR      r2,[r6,#8]
        0x0000042c:    e3a04000    .@..    MOV      r4,#0
        0x00000430:    e3a0b000    ....    MOV      r11,#0
        0x00000434:    e4d7a001    ....    LDRB     r10,[r7],#1
        0x00000438:    e35a002b    +.Z.    CMP      r10,#0x2b
        0x0000043c:    03844002    .@..    ORREQ    r4,r4,#2
        0x00000440:    0afffffb    ....    BEQ      0x434
        0x00000444:    ca000006    ....    BGT      0x464
        0x00000448:    e35a0020     .Z.    CMP      r10,#0x20
        0x0000044c:    03844004    .@..    ORREQ    r4,r4,#4
        0x00000450:    0afffff7    ....    BEQ      0x434
        0x00000454:    e35a0023    #.Z.    CMP      r10,#0x23
        0x00000458:    03844008    .@..    ORREQ    r4,r4,#8
        0x0000045c:    0afffff4    ....    BEQ      0x434
        0x00000460:    ea000006    ....    B        0x480
        0x00000464:    e35a002d    -.Z.    CMP      r10,#0x2d
        0x00000468:    03c40f40    @...    BICEQ    r0,r4,#0x100
        0x0000046c:    03804001    .@..    ORREQ    r4,r0,#1
        0x00000470:    0affffef    ....    BEQ      0x434
        0x00000474:    e35a0030    0.Z.    CMP      r10,#0x30
        0x00000478:    03844f40    @O..    ORREQ    r4,r4,#0x100
        0x0000047c:    0affffec    ....    BEQ      0x434
        0x00000480:    e3a00000    ....    MOV      r0,#0
        0x00000484:    e35a002a    *.Z.    CMP      r10,#0x2a
        0x00000488:    1a000007    ....    BNE      0x4ac
        0x0000048c:    e5951000    ....    LDR      r1,[r5,#0]
        0x00000490:    e4910004    ....    LDR      r0,[r1],#4
        0x00000494:    e5851000    ....    STR      r1,[r5,#0]
        0x00000498:    e3500000    ..P.    CMP      r0,#0
        0x0000049c:    b2600000    ..`.    RSBLT    r0,r0,#0
        0x000004a0:    b2244001    .@$.    EORLT    r4,r4,#1
        0x000004a4:    e4d7a001    ....    LDRB     r10,[r7],#1
        0x000004a8:    ea000009    ....    B        0x4d4
        0x000004ac:    e24a1030    0.J.    SUB      r1,r10,#0x30
        0x000004b0:    e351000a    ..Q.    CMP      r1,#0xa
        0x000004b4:    2a000008    ...*    BCS      0x4dc
        0x000004b8:    e0800100    ....    ADD      r0,r0,r0,LSL #2
        0x000004bc:    e08a0080    ....    ADD      r0,r10,r0,LSL #1
        0x000004c0:    e4d7a001    ....    LDRB     r10,[r7],#1
        0x000004c4:    e2400030    0.@.    SUB      r0,r0,#0x30
        0x000004c8:    e24a1030    0.J.    SUB      r1,r10,#0x30
        0x000004cc:    e351000a    ..Q.    CMP      r1,#0xa
        0x000004d0:    3afffff8    ...:    BCC      0x4b8
        0x000004d4:    e3500000    ..P.    CMP      r0,#0
        0x000004d8:    b3a00000    ....    MOVLT    r0,#0
        0x000004dc:    e35a002e    ..Z.    CMP      r10,#0x2e
        0x000004e0:    e58d0004    ....    STR      r0,[r13,#4]
        0x000004e4:    1a000016    ....    BNE      0x544
        0x000004e8:    e4d7a001    ....    LDRB     r10,[r7],#1
        0x000004ec:    e3a00000    ....    MOV      r0,#0
        0x000004f0:    e35a002a    *.Z.    CMP      r10,#0x2a
        0x000004f4:    1a000004    ....    BNE      0x50c
        0x000004f8:    e5951000    ....    LDR      r1,[r5,#0]
        0x000004fc:    e4910004    ....    LDR      r0,[r1],#4
        0x00000500:    e5851000    ....    STR      r1,[r5,#0]
        0x00000504:    e4d7a001    ....    LDRB     r10,[r7],#1
        0x00000508:    ea000009    ....    B        0x534
        0x0000050c:    e24a1030    0.J.    SUB      r1,r10,#0x30
        0x00000510:    e351000a    ..Q.    CMP      r1,#0xa
        0x00000514:    2a000008    ...*    BCS      0x53c
        0x00000518:    e0800100    ....    ADD      r0,r0,r0,LSL #2
        0x0000051c:    e08a0080    ....    ADD      r0,r10,r0,LSL #1
        0x00000520:    e4d7a001    ....    LDRB     r10,[r7],#1
        0x00000524:    e2400030    0.@.    SUB      r0,r0,#0x30
        0x00000528:    e24a1030    0.J.    SUB      r1,r10,#0x30
        0x0000052c:    e351000a    ..Q.    CMP      r1,#0xa
        0x00000530:    3afffff8    ...:    BCC      0x518
        0x00000534:    e3500000    ..P.    CMP      r0,#0
        0x00000538:    ba000001    ....    BLT      0x544
        0x0000053c:    e3844010    .@..    ORR      r4,r4,#0x10
        0x00000540:    e5860008    ....    STR      r0,[r6,#8]
        0x00000544:    e35a006c    l.Z.    CMP      r10,#0x6c
        0x00000548:    0a000002    ....    BEQ      0x558
        0x0000054c:    e35a004c    L.Z.    CMP      r10,#0x4c
        0x00000550:    1a000008    ....    BNE      0x578
        0x00000554:    ea000004    ....    B        0x56c
        0x00000558:    e5d70000    ....    LDRB     r0,[r7,#0]
        0x0000055c:    e350006c    l.P.    CMP      r0,#0x6c
        0x00000560:    03844040    @@..    ORREQ    r4,r4,#0x40
        0x00000564:    02877001    .p..    ADDEQ    r7,r7,#1
        0x00000568:    0a000000    ....    BEQ      0x570
        0x0000056c:    e3844020     @..    ORR      r4,r4,#0x20
        0x00000570:    e4d7a001    ....    LDRB     r10,[r7],#1
        0x00000574:    ea00000f    ....    B        0x5b8
        0x00000578:    e35a0068    h.Z.    CMP      r10,#0x68
        0x0000057c:    1a000006    ....    BNE      0x59c
        0x00000580:    e5d70000    ....    LDRB     r0,[r7,#0]
        0x00000584:    e3500068    h.P.    CMP      r0,#0x68
        0x00000588:    13844080    .@..    ORRNE    r4,r4,#0x80
        0x0000058c:    02877001    .p..    ADDEQ    r7,r7,#1
        0x00000590:    e4d7a001    ....    LDRB     r10,[r7],#1
        0x00000594:    03844e40    @N..    ORREQ    r4,r4,#0x400
        0x00000598:    ea000006    ....    B        0x5b8
        0x0000059c:    e35a006a    j.Z.    CMP      r10,#0x6a
        0x000005a0:    03844040    @@..    ORREQ    r4,r4,#0x40
        0x000005a4:    04d7a001    ....    LDREQB   r10,[r7],#1
        0x000005a8:    0a000002    ....    BEQ      0x5b8
        0x000005ac:    e35a0074    t.Z.    CMP      r10,#0x74
        0x000005b0:    135a007a    z.Z.    CMPNE    r10,#0x7a
        0x000005b4:    04d7a001    ....    LDREQB   r10,[r7],#1
        0x000005b8:    e35a0067    g.Z.    CMP      r10,#0x67
        0x000005bc:    0a000151    Q...    BEQ      0xb08
        0x000005c0:    ca000011    ....    BGT      0x60c
        0x000005c4:    e35a0063    c.Z.    CMP      r10,#0x63
        0x000005c8:    0a000020     ...    BEQ      0x650
        0x000005cc:    ca000008    ....    BGT      0x5f4
        0x000005d0:    e35a0000    ..Z.    CMP      r10,#0
        0x000005d4:    02477001    .pG.    SUBEQ    r7,r7,#1
        0x000005d8:    0a000160    `...    BEQ      0xb60
        0x000005dc:    e35a0045    E.Z.    CMP      r10,#0x45
        0x000005e0:    135a0047    G.Z.    CMPNE    r10,#0x47
        0x000005e4:    0a000147    G...    BEQ      0xb08
        0x000005e8:    e35a0058    X.Z.    CMP      r10,#0x58
        0x000005ec:    0a0000a7    ....    BEQ      0x890
        0x000005f0:    ea000019    ....    B        0x65c
        0x000005f4:    e35a0064    d.Z.    CMP      r10,#0x64
        0x000005f8:    0a000115    ....    BEQ      0xa54
        0x000005fc:    e35a0065    e.Z.    CMP      r10,#0x65
        0x00000600:    135a0066    f.Z.    CMPNE    r10,#0x66
        0x00000604:    0a00013f    ?...    BEQ      0xb08
        0x00000608:    ea000013    ....    B        0x65c
        0x0000060c:    e35a0070    p.Z.    CMP      r10,#0x70
        0x00000610:    0a0000d4    ....    BEQ      0x968
        0x00000614:    ca000006    ....    BGT      0x634
        0x00000618:    e35a0069    i.Z.    CMP      r10,#0x69
        0x0000061c:    0a00010c    ....    BEQ      0xa54
        0x00000620:    e35a006e    n.Z.    CMP      r10,#0x6e
        0x00000624:    0a000032    2...    BEQ      0x6f4
        0x00000628:    e35a006f    o.Z.    CMP      r10,#0x6f
        0x0000062c:    0a0000da    ....    BEQ      0x99c
        0x00000630:    ea000009    ....    B        0x65c
        0x00000634:    e35a0073    s.Z.    CMP      r10,#0x73
        0x00000638:    0a00004c    L...    BEQ      0x770
        0x0000063c:    e35a0075    u.Z.    CMP      r10,#0x75
        0x00000640:    0a0000ed    ....    BEQ      0x9fc
        0x00000644:    e35a0078    x.Z.    CMP      r10,#0x78
        0x00000648:    0a0000ab    ....    BEQ      0x8fc
        0x0000064c:    ea000002    ....    B        0x65c
        0x00000650:    e5950000    ....    LDR      r0,[r5,#0]
        0x00000654:    e490a004    ....    LDR      r10,[r0],#4
        0x00000658:    e5850000    ....    STR      r0,[r5,#0]
        0x0000065c:    e59d0004    ....    LDR      r0,[r13,#4]
        0x00000660:    e3140001    ....    TST      r4,#1
        0x00000664:    e240b001    ..@.    SUB      r11,r0,#1
        0x00000668:    1a00000e    ....    BNE      0x6a8
        0x0000066c:    e3140f40    @...    TST      r4,#0x100
        0x00000670:    03a00020     ...    MOVEQ    r0,#0x20
        0x00000674:    13a00030    0...    MOVNE    r0,#0x30
        0x00000678:    e20000ff    ....    AND      r0,r0,#0xff
        0x0000067c:    e58d0000    ....    STR      r0,[r13,#0]
        0x00000680:    e25bb001    ..[.    SUBS     r11,r11,#1
        0x00000684:    4a000007    ...J    BMI      0x6a8
        0x00000688:    e596201c    . ..    LDR      r2,[r6,#0x1c]
        0x0000068c:    e59d0000    ....    LDR      r0,[r13,#0]
        0x00000690:    e59d1008    ....    LDR      r1,[r13,#8]
        0x00000694:    e2888001    ....    ADD      r8,r8,#1
        0x00000698:    e1a0e00f    ....    MOV      r14,pc
    $p
        0x0000069c:    e1a0f002    ....    MOV      pc,r2
        0x000006a0:    e25bb001    ..[.    SUBS     r11,r11,#1
        0x000006a4:    5afffff7    ...Z    BPL      0x688
        0x000006a8:    e596201c    . ..    LDR      r2,[r6,#0x1c]
        0x000006ac:    e59d1008    ....    LDR      r1,[r13,#8]
        0x000006b0:    e1a0000a    ....    MOV      r0,r10
        0x000006b4:    e1a0e00f    ....    MOV      r14,pc
    $p
        0x000006b8:    e1a0f002    ....    MOV      pc,r2
        0x000006bc:    e2888001    ....    ADD      r8,r8,#1
        0x000006c0:    e3140001    ....    TST      r4,#1
        0x000006c4:    0a000125    %...    BEQ      0xb60
        0x000006c8:    e25b4001    .@[.    SUBS     r4,r11,#1
        0x000006cc:    4a000123    #..J    BMI      0xb60
        0x000006d0:    e596201c    . ..    LDR      r2,[r6,#0x1c]
        0x000006d4:    e59d1008    ....    LDR      r1,[r13,#8]
        0x000006d8:    e2888001    ....    ADD      r8,r8,#1
        0x000006dc:    e3a00020     ...    MOV      r0,#0x20
        0x000006e0:    e1a0e00f    ....    MOV      r14,pc
    $p
        0x000006e4:    e1a0f002    ....    MOV      pc,r2
        0x000006e8:    e2544001    .@T.    SUBS     r4,r4,#1
        0x000006ec:    5afffff7    ...Z    BPL      0x6d0
        0x000006f0:    ea00011a    ....    B        0xb60
        0x000006f4:    e3140e40    @...    TST      r4,#0x400
        0x000006f8:    0a000004    ....    BEQ      0x710
        0x000006fc:    e5950000    ....    LDR      r0,[r5,#0]
        0x00000700:    e4901004    ....    LDR      r1,[r0],#4
        0x00000704:    e5850000    ....    STR      r0,[r5,#0]
        0x00000708:    e5c18000    ....    STRB     r8,[r1,#0]
        0x0000070c:    ea000113    ....    B        0xb60
        0x00000710:    e3140080    ....    TST      r4,#0x80
        0x00000714:    0a000006    ....    BEQ      0x734
        0x00000718:    e5951000    ....    LDR      r1,[r5,#0]
        0x0000071c:    e1a0c428    (...    MOV      r12,r8,LSR #8
        0x00000720:    e4910004    ....    LDR      r0,[r1],#4
        0x00000724:    e5851000    ....    STR      r1,[r5,#0]
        0x00000728:    e5c08000    ....    STRB     r8,[r0,#0]
        0x0000072c:    e5c0c001    ....    STRB     r12,[r0,#1]
        0x00000730:    ea00010a    ....    B        0xb60
        0x00000734:    e3140040    @...    TST      r4,#0x40
        0x00000738:    0a000006    ....    BEQ      0x758
        0x0000073c:    e5950000    ....    LDR      r0,[r5,#0]
        0x00000740:    e1a01fc8    ....    MOV      r1,r8,ASR #31
        0x00000744:    e4904004    .@..    LDR      r4,[r0],#4
        0x00000748:    e5850000    ....    STR      r0,[r5,#0]
        0x0000074c:    e5841004    ....    STR      r1,[r4,#4]
        0x00000750:    e5848000    ....    STR      r8,[r4,#0]
        0x00000754:    ea000101    ....    B        0xb60
        0x00000758:    e5950000    ....    LDR      r0,[r5,#0]
        0x0000075c:    e3140020     ...    TST      r4,#0x20
        0x00000760:    e4901004    ....    LDR      r1,[r0],#4
        0x00000764:    e5850000    ....    STR      r0,[r5,#0]
        0x00000768:    e5818000    ....    STR      r8,[r1,#0]
        0x0000076c:    ea0000fb    ....    B        0xb60
        0x00000770:    e5950000    ....    LDR      r0,[r5,#0]
        0x00000774:    e3140010    ....    TST      r4,#0x10
        0x00000778:    e4901004    ....    LDR      r1,[r0],#4
        0x0000077c:    e5850000    ....    STR      r0,[r5,#0]
        0x00000780:    e58d1000    ....    STR      r1,[r13,#0]
        0x00000784:    0a00000a    ....    BEQ      0x7b4
        0x00000788:    e3a0a000    ....    MOV      r10,#0
        0x0000078c:    e5960008    ....    LDR      r0,[r6,#8]
        0x00000790:    ea000000    ....    B        0x798
        0x00000794:    e28aa001    ....    ADD      r10,r10,#1
        0x00000798:    e15a0000    ..Z.    CMP      r10,r0
        0x0000079c:    aa000007    ....    BGE      0x7c0
        0x000007a0:    e59d1000    ....    LDR      r1,[r13,#0]
        0x000007a4:    e7d1100a    ....    LDRB     r1,[r1,r10]
        0x000007a8:    e3510000    ..Q.    CMP      r1,#0
        0x000007ac:    1afffff8    ....    BNE      0x794
        0x000007b0:    ea000002    ....    B        0x7c0
        0x000007b4:    e59d0000    ....    LDR      r0,[r13,#0]
        0x000007b8:    eb000831    1...    BL       strlen  ; 0x2884
        0x000007bc:    e1a0a000    ....    MOV      r10,r0
        0x000007c0:    e59d0004    ....    LDR      r0,[r13,#4]
        0x000007c4:    e3140001    ....    TST      r4,#1
        0x000007c8:    e040000a    ..@.    SUB      r0,r0,r10
        0x000007cc:    e58d0004    ....    STR      r0,[r13,#4]
        0x000007d0:    1a000013    ....    BNE      0x824
        0x000007d4:    e3140f40    @...    TST      r4,#0x100
        0x000007d8:    03a00020     ...    MOVEQ    r0,#0x20
        0x000007dc:    13a00030    0...    MOVNE    r0,#0x30
        0x000007e0:    e200b0ff    ....    AND      r11,r0,#0xff
        0x000007e4:    e59d0004    ....    LDR      r0,[r13,#4]
        0x000007e8:    e2400001    ..@.    SUB      r0,r0,#1
        0x000007ec:    e58d0004    ....    STR      r0,[r13,#4]
        0x000007f0:    e3500000    ..P.    CMP      r0,#0
        0x000007f4:    ba00000a    ....    BLT      0x824
        0x000007f8:    e596201c    . ..    LDR      r2,[r6,#0x1c]
        0x000007fc:    e59d1008    ....    LDR      r1,[r13,#8]
        0x00000800:    e2888001    ....    ADD      r8,r8,#1
        0x00000804:    e1a0000b    ....    MOV      r0,r11
        0x00000808:    e1a0e00f    ....    MOV      r14,pc
    $p
        0x0000080c:    e1a0f002    ....    MOV      pc,r2
        0x00000810:    e59d0004    ....    LDR      r0,[r13,#4]
        0x00000814:    e2400001    ..@.    SUB      r0,r0,#1
        0x00000818:    e58d0004    ....    STR      r0,[r13,#4]
        0x0000081c:    e3500000    ..P.    CMP      r0,#0
        0x00000820:    aafffff4    ....    BGE      0x7f8
        0x00000824:    e3a0b000    ....    MOV      r11,#0
        0x00000828:    e35a0000    ..Z.    CMP      r10,#0
        0x0000082c:    da000008    ....    BLE      0x854
        0x00000830:    e59d1000    ....    LDR      r1,[r13,#0]
        0x00000834:    e28fe00c    ....    ADD      r14,pc,#0xc ; #0x848
        0x00000838:    e7d1000b    ....    LDRB     r0,[r1,r11]
        0x0000083c:    e596201c    . ..    LDR      r2,[r6,#0x1c]
        0x00000840:    e59d1008    ....    LDR      r1,[r13,#8]
    $p
        0x00000844:    e1a0f002    ....    MOV      pc,r2
        0x00000848:    e28bb001    ....    ADD      r11,r11,#1
        0x0000084c:    e15b000a    ..[.    CMP      r11,r10
        0x00000850:    bafffff6    ....    BLT      0x830
        0x00000854:    e088800a    ....    ADD      r8,r8,r10
        0x00000858:    e3140001    ....    TST      r4,#1
        0x0000085c:    0a0000bf    ....    BEQ      0xb60
        0x00000860:    e59d0004    ....    LDR      r0,[r13,#4]
        0x00000864:    e2504001    .@P.    SUBS     r4,r0,#1
        0x00000868:    4a0000bc    ...J    BMI      0xb60
        0x0000086c:    e596201c    . ..    LDR      r2,[r6,#0x1c]
        0x00000870:    e59d1008    ....    LDR      r1,[r13,#8]
        0x00000874:    e2888001    ....    ADD      r8,r8,#1
        0x00000878:    e3a00020     ...    MOV      r0,#0x20
        0x0000087c:    e1a0e00f    ....    MOV      r14,pc
    $p
        0x00000880:    e1a0f002    ....    MOV      pc,r2
        0x00000884:    e2544001    .@T.    SUBS     r4,r4,#1
        0x00000888:    5afffff7    ...Z    BPL      0x86c
        0x0000088c:    ea0000b3    ....    B        0xb60
        0x00000890:    e5950000    ....    LDR      r0,[r5,#0]
        0x00000894:    e3140040    @...    TST      r4,#0x40
        0x00000898:    0490b004    ....    LDREQ    r11,[r0],#4
        0x0000089c:    05850000    ....    STREQ    r0,[r5,#0]
        0x000008a0:    0a000005    ....    BEQ      0x8bc
        0x000008a4:    e2801008    ....    ADD      r1,r0,#8
        0x000008a8:    e5851000    ....    STR      r1,[r5,#0]
        0x000008ac:    e5901000    ....    LDR      r1,[r0,#0]
        0x000008b0:    e5900004    ....    LDR      r0,[r0,#4]
        0x000008b4:    e5860030    0...    STR      r0,[r6,#0x30]
        0x000008b8:    e586102c    ,...    STR      r1,[r6,#0x2c]
        0x000008bc:    e3140e40    @...    TST      r4,#0x400
        0x000008c0:    120bb0ff    ....    ANDNE    r11,r11,#0xff
        0x000008c4:    1a000002    ....    BNE      0x8d4
        0x000008c8:    e3140080    ....    TST      r4,#0x80
        0x000008cc:    11a0b80b    ....    MOVNE    r11,r11,LSL #16
        0x000008d0:    11a0b82b    +...    MOVNE    r11,r11,LSR #16
        0x000008d4:    e28f0fae    ....    ADD      r0,pc,#0x2b8 ; #0xb94
        0x000008d8:    e3140008    ....    TST      r4,#8
        0x000008dc:    135b0000    ..[.    CMPNE    r11,#0
        0x000008e0:    e5860024    $...    STR      r0,[r6,#0x24]
        0x000008e4:    128f0faf    ....    ADDNE    r0,pc,#0x2bc ; #0xba8
        0x000008e8:    028f0fad    ....    ADDEQ    r0,pc,#0x2b4 ; #0xba4
        0x000008ec:    e3140010    ....    TST      r4,#0x10
        0x000008f0:    13c44f40    @O..    BICNE    r4,r4,#0x100
        0x000008f4:    e5860004    ....    STR      r0,[r6,#4]
        0x000008f8:    ea00008f    ....    B        0xb3c
        0x000008fc:    e5950000    ....    LDR      r0,[r5,#0]
        0x00000900:    e3140040    @...    TST      r4,#0x40
        0x00000904:    0490b004    ....    LDREQ    r11,[r0],#4
        0x00000908:    05850000    ....    STREQ    r0,[r5,#0]
        0x0000090c:    0a000005    ....    BEQ      0x928
        0x00000910:    e2801008    ....    ADD      r1,r0,#8
        0x00000914:    e5851000    ....    STR      r1,[r5,#0]
        0x00000918:    e5901000    ....    LDR      r1,[r0,#0]
        0x0000091c:    e5900004    ....    LDR      r0,[r0,#4]
        0x00000920:    e5860030    0...    STR      r0,[r6,#0x30]
        0x00000924:    e586102c    ,...    STR      r1,[r6,#0x2c]
        0x00000928:    e3140e40    @...    TST      r4,#0x400
        0x0000092c:    120bb0ff    ....    ANDNE    r11,r11,#0xff
        0x00000930:    1a000002    ....    BNE      0x940
        0x00000934:    e3140080    ....    TST      r4,#0x80
        0x00000938:    11a0b80b    ....    MOVNE    r11,r11,LSL #16
        0x0000093c:    11a0b82b    +...    MOVNE    r11,r11,LSR #16
        0x00000940:    e28f0f99    ....    ADD      r0,pc,#0x264 ; #0xbac
        0x00000944:    e3140008    ....    TST      r4,#8
        0x00000948:    135b0000    ..[.    CMPNE    r11,#0
        0x0000094c:    e5860024    $...    STR      r0,[r6,#0x24]
        0x00000950:    128f0f9a    ....    ADDNE    r0,pc,#0x268 ; #0xbc0
        0x00000954:    028f0f92    ....    ADDEQ    r0,pc,#0x248 ; #0xba4
        0x00000958:    e3140010    ....    TST      r4,#0x10
        0x0000095c:    13c44f40    @O..    BICNE    r4,r4,#0x100
        0x00000960:    e5860004    ....    STR      r0,[r6,#4]
        0x00000964:    ea000074    t...    B        0xb3c
        0x00000968:    e5950000    ....    LDR      r0,[r5,#0]
        0x0000096c:    e3140008    ....    TST      r4,#8
        0x00000970:    e490b004    ....    LDR      r11,[r0],#4
        0x00000974:    e5850000    ....    STR      r0,[r5,#0]
        0x00000978:    e28f0f8b    ....    ADD      r0,pc,#0x22c ; #0xbac
        0x0000097c:    e5860024    $...    STR      r0,[r6,#0x24]
        0x00000980:    128f0f8f    ....    ADDNE    r0,pc,#0x23c ; #0xbc4
        0x00000984:    028f0f86    ....    ADDEQ    r0,pc,#0x218 ; #0xba4
        0x00000988:    e5860004    ....    STR      r0,[r6,#4]
        0x0000098c:    e3a00008    ....    MOV      r0,#8
        0x00000990:    e5860008    ....    STR      r0,[r6,#8]
        0x00000994:    e3844010    .@..    ORR      r4,r4,#0x10
        0x00000998:    ea000067    g...    B        0xb3c
        0x0000099c:    e5950000    ....    LDR      r0,[r5,#0]
        0x000009a0:    e3140040    @...    TST      r4,#0x40
        0x000009a4:    0490b004    ....    LDREQ    r11,[r0],#4
        0x000009a8:    05850000    ....    STREQ    r0,[r5,#0]
        0x000009ac:    0a000005    ....    BEQ      0x9c8
        0x000009b0:    e2801008    ....    ADD      r1,r0,#8
        0x000009b4:    e5851000    ....    STR      r1,[r5,#0]
        0x000009b8:    e5901000    ....    LDR      r1,[r0,#0]
        0x000009bc:    e5900004    ....    LDR      r0,[r0,#4]
        0x000009c0:    e5860030    0...    STR      r0,[r6,#0x30]
        0x000009c4:    e586102c    ,...    STR      r1,[r6,#0x2c]
        0x000009c8:    e3140e40    @...    TST      r4,#0x400
        0x000009cc:    120bb0ff    ....    ANDNE    r11,r11,#0xff
        0x000009d0:    1a000002    ....    BNE      0x9e0
        0x000009d4:    e3140080    ....    TST      r4,#0x80
        0x000009d8:    11a0b80b    ....    MOVNE    r11,r11,LSL #16
        0x000009dc:    11a0b82b    +...    MOVNE    r11,r11,LSR #16
        0x000009e0:    e3140008    ....    TST      r4,#8
        0x000009e4:    028f0f6e    n...    ADDEQ    r0,pc,#0x1b8 ; #0xba4
        0x000009e8:    128f0f76    v...    ADDNE    r0,pc,#0x1d8 ; #0xbc8
        0x000009ec:    e3140010    ....    TST      r4,#0x10
        0x000009f0:    13c44f40    @O..    BICNE    r4,r4,#0x100
        0x000009f4:    e5860004    ....    STR      r0,[r6,#4]
        0x000009f8:    ea00004f    O...    B        0xb3c
        0x000009fc:    e5950000    ....    LDR      r0,[r5,#0]
        0x00000a00:    e3140040    @...    TST      r4,#0x40
        0x00000a04:    0490b004    ....    LDREQ    r11,[r0],#4
        0x00000a08:    05850000    ....    STREQ    r0,[r5,#0]
        0x00000a0c:    0a000005    ....    BEQ      0xa28
        0x00000a10:    e2801008    ....    ADD      r1,r0,#8
        0x00000a14:    e5851000    ....    STR      r1,[r5,#0]
        0x00000a18:    e5901000    ....    LDR      r1,[r0,#0]
        0x00000a1c:    e5900004    ....    LDR      r0,[r0,#4]
        0x00000a20:    e5860030    0...    STR      r0,[r6,#0x30]
        0x00000a24:    e586102c    ,...    STR      r1,[r6,#0x2c]
        0x00000a28:    e3140e40    @...    TST      r4,#0x400
        0x00000a2c:    120bb0ff    ....    ANDNE    r11,r11,#0xff
        0x00000a30:    1a000002    ....    BNE      0xa40
        0x00000a34:    e3140080    ....    TST      r4,#0x80
        0x00000a38:    11a0b80b    ....    MOVNE    r11,r11,LSL #16
        0x00000a3c:    11a0b82b    +...    MOVNE    r11,r11,LSR #16
        0x00000a40:    e28f0f57    W...    ADD      r0,pc,#0x15c ; #0xba4
        0x00000a44:    e3140010    ....    TST      r4,#0x10
        0x00000a48:    13c44f40    @O..    BICNE    r4,r4,#0x100
        0x00000a4c:    e5860004    ....    STR      r0,[r6,#4]
        0x00000a50:    ea000039    9...    B        0xb3c
        0x00000a54:    e3140040    @...    TST      r4,#0x40
        0x00000a58:    0a000011    ....    BEQ      0xaa4
        0x00000a5c:    e5951000    ....    LDR      r1,[r5,#0]
        0x00000a60:    e286302c    ,0..    ADD      r3,r6,#0x2c
        0x00000a64:    e2810008    ....    ADD      r0,r1,#8
        0x00000a68:    e5850000    ....    STR      r0,[r5,#0]
        0x00000a6c:    e8910003    ....    LDMIA    r1,{r0,r1}
        0x00000a70:    e8830003    ....    STMIA    r3,{r0,r1}
        0x00000a74:    e28f2f54    T/..    ADD      r2,pc,#0x150 ; #0xbcc
        0x00000a78:    e892000c    ....    LDMIA    r2,{r2,r3}
        0x00000a7c:    e0500002    ..P.    SUBS     r0,r0,r2
        0x00000a80:    e0d11003    ....    SBCS     r1,r1,r3
        0x00000a84:    aa000015    ....    BGE      0xae0
        0x00000a88:    e286102c    ,...    ADD      r1,r6,#0x2c
        0x00000a8c:    e8910003    ....    LDMIA    r1,{r0,r1}
        0x00000a90:    e2700000    ..p.    RSBS     r0,r0,#0
        0x00000a94:    e2e11000    ....    RSC      r1,r1,#0
        0x00000a98:    e286202c    , ..    ADD      r2,r6,#0x2c
        0x00000a9c:    e8820003    ....    STMIA    r2,{r0,r1}
        0x00000aa0:    ea00000c    ....    B        0xad8
        0x00000aa4:    e5950000    ....    LDR      r0,[r5,#0]
        0x00000aa8:    e3140e40    @...    TST      r4,#0x400
        0x00000aac:    e490b004    ....    LDR      r11,[r0],#4
        0x00000ab0:    e5850000    ....    STR      r0,[r5,#0]
        0x00000ab4:    11a0bc0b    ....    MOVNE    r11,r11,LSL #24
        0x00000ab8:    11a0bc4b    K...    MOVNE    r11,r11,ASR #24
        0x00000abc:    1a000002    ....    BNE      0xacc
        0x00000ac0:    e3140080    ....    TST      r4,#0x80
        0x00000ac4:    11a0b80b    ....    MOVNE    r11,r11,LSL #16
        0x00000ac8:    11a0b84b    K...    MOVNE    r11,r11,ASR #16
        0x00000acc:    e35b0000    ..[.    CMP      r11,#0
        0x00000ad0:    b26bb000    ..k.    RSBLT    r11,r11,#0
        0x00000ad4:    aa000001    ....    BGE      0xae0
        0x00000ad8:    e28f00f4    ....    ADD      r0,pc,#0xf4 ; #0xbd4
        0x00000adc:    ea000005    ....    B        0xaf8
        0x00000ae0:    e3140002    ....    TST      r4,#2
        0x00000ae4:    128f00ec    ....    ADDNE    r0,pc,#0xec ; #0xbd8
        0x00000ae8:    1a000002    ....    BNE      0xaf8
        0x00000aec:    e3140004    ....    TST      r4,#4
        0x00000af0:    028f00ac    ....    ADDEQ    r0,pc,#0xac ; #0xba4
        0x00000af4:    128f00e0    ....    ADDNE    r0,pc,#0xe0 ; #0xbdc
        0x00000af8:    e3140010    ....    TST      r4,#0x10
        0x00000afc:    13c44f40    @O..    BICNE    r4,r4,#0x100
        0x00000b00:    e5860004    ....    STR      r0,[r6,#4]
        0x00000b04:    ea00000c    ....    B        0xb3c
        0x00000b08:    e3844f80    .O..    ORR      r4,r4,#0x200
        0x00000b0c:    e3140010    ....    TST      r4,#0x10
        0x00000b10:    03a00006    ....    MOVEQ    r0,#6
        0x00000b14:    05860008    ....    STREQ    r0,[r6,#8]
        0x00000b18:    e5950000    ....    LDR      r0,[r5,#0]
        0x00000b1c:    e3a0b000    ....    MOV      r11,#0
        0x00000b20:    e2801008    ....    ADD      r1,r0,#8
        0x00000b24:    e5851000    ....    STR      r1,[r5,#0]
        0x00000b28:    e5901000    ....    LDR      r1,[r0,#0]
        0x00000b2c:    e5900004    ....    LDR      r0,[r0,#4]
        0x00000b30:    e5860018    ....    STR      r0,[r6,#0x18]
        0x00000b34:    e5861014    ....    STR      r1,[r6,#0x14]
        0x00000b38:    e5862004    . ..    STR      r2,[r6,#4]
        0x00000b3c:    e59d0004    ....    LDR      r0,[r13,#4]
        0x00000b40:    e1a0300b    .0..    MOV      r3,r11
        0x00000b44:    e5860028    (...    STR      r0,[r6,#0x28]
        0x00000b48:    e5864000    .@..    STR      r4,[r6,#0]
        0x00000b4c:    e59d0008    ....    LDR      r0,[r13,#8]
        0x00000b50:    e1a02006    . ..    MOV      r2,r6
        0x00000b54:    e1a0100a    ....    MOV      r1,r10
        0x00000b58:    eb000020     ...    BL       _printf_display  ; 0xbe0
        0x00000b5c:    e0808008    ....    ADD      r8,r0,r8
        0x00000b60:    e4d70001    ....    LDRB     r0,[r7],#1
        0x00000b64:    e3500000    ..P.    CMP      r0,#0
        0x00000b68:    1afffe25    %...    BNE      0x404
        0x00000b6c:    e5961020     ...    LDR      r1,[r6,#0x20]
        0x00000b70:    e59d0008    ....    LDR      r0,[r13,#8]
        0x00000b74:    e1a0e00f    ....    MOV      r14,pc
    $p
        0x00000b78:    e1a0f001    ....    MOV      pc,r1
        0x00000b7c:    e3500000    ..P.    CMP      r0,#0
        0x00000b80:    01a00008    ....    MOVEQ    r0,r8
        0x00000b84:    e28dd018    ....    ADD      r13,r13,#0x18
        0x00000b88:    e8bd01f0    ....    LDMFD    r13!,{r4-r8}
        0x00000b8c:    13e00000    ....    MVNNE    r0,#0
        0x00000b90:    e8bd8c00    ....    LDMFD    r13!,{r10,r11,pc}
    $d
        0x00000b94:    33323130    0123    DCD    858927408
        0x00000b98:    37363534    4567    DCD    926299444
        0x00000b9c:    42413938    89AB    DCD    1111570744
        0x00000ba0:    46454443    CDEF    DCD    1178944579
        0x00000ba4:    00000000    ....    DCD    0
        0x00000ba8:    00005830    0X..    DCD    22576
        0x00000bac:    33323130    0123    DCD    858927408
        0x00000bb0:    37363534    4567    DCD    926299444
        0x00000bb4:    62613938    89ab    DCD    1650538808
        0x00000bb8:    66656463    cdef    DCD    1717920867
        0x00000bbc:    00000000    ....    DCD    0
        0x00000bc0:    00007830    0x..    DCD    30768
        0x00000bc4:    00000040    @...    DCD    64
        0x00000bc8:    00000030    0...    DCD    48
        0x00000bcc:    00000000    ....    DCD    0
        0x00000bd0:    00000000    ....    DCD    0
        0x00000bd4:    0000002d    -...    DCD    45
        0x00000bd8:    0000002b    +...    DCD    43
        0x00000bdc:    00000020     ...    DCD    32
    _printf_display
    $a
        0x00000be0:    e92d4d80    .M-.    STMFD    r13!,{r7,r8,r10,r11,r14}
        0x00000be4:    e92d0070    p.-.    STMFD    r13!,{r4-r6}
        0x00000be8:    e1a07000    .p..    MOV      r7,r0
        0x00000bec:    e1a00001    ....    MOV      r0,r1
        0x00000bf0:    e5928000    ....    LDR      r8,[r2,#0]
        0x00000bf4:    e3e01000    ....    MVN      r1,#0
        0x00000bf8:    e24dd028    (.M.    SUB      r13,r13,#0x28
        0x00000bfc:    e582100c    ....    STR      r1,[r2,#0xc]
        0x00000c00:    e5821010    ....    STR      r1,[r2,#0x10]
        0x00000c04:    e3180f84    ....    TST      r8,#0x210
        0x00000c08:    03a01001    ....    MOVEQ    r1,#1
        0x00000c0c:    e1a04002    .@..    MOV      r4,r2
        0x00000c10:    05841008    ....    STREQ    r1,[r4,#8]
        0x00000c14:    e24f1050    P.O.    SUB      r1,pc,#0x50 ; #0xbcc
        0x00000c18:    e3500067    g.P.    CMP      r0,#0x67
        0x00000c1c:    e3a06000    .`..    MOV      r6,#0
        0x00000c20:    e3a05000    .P..    MOV      r5,#0
        0x00000c24:    0a00000c    ....    BEQ      0xc5c
        0x00000c28:    ca00001b    ....    BGT      0xc9c
        0x00000c2c:    e3500064    d.P.    CMP      r0,#0x64
        0x00000c30:    0a000078    x...    BEQ      0xe18
        0x00000c34:    ca000005    ....    BGT      0xc50
        0x00000c38:    e3500045    E.P.    CMP      r0,#0x45
        0x00000c3c:    13500047    G.P.    CMPNE    r0,#0x47
        0x00000c40:    0a000005    ....    BEQ      0xc5c
        0x00000c44:    e3500058    X.P.    CMP      r0,#0x58
        0x00000c48:    1a000007    ....    BNE      0xc6c
        0x00000c4c:    ea000028    (...    B        0xcf4
        0x00000c50:    e3500065    e.P.    CMP      r0,#0x65
        0x00000c54:    13500066    f.P.    CMPNE    r0,#0x66
        0x00000c58:    1a000003    ....    BNE      0xc6c
        0x00000c5c:    e1a02004    . ..    MOV      r2,r4
        0x00000c60:    e28d1008    ....    ADD      r1,r13,#8
        0x00000c64:    eb000e1c    ....    BL       __lib_sel_fp_printf  ; 0x44dc
        0x00000c68:    e1a06000    .`..    MOV      r6,r0
        0x00000c6c:    e3180f80    ....    TST      r8,#0x200
        0x00000c70:    e594a028    (...    LDR      r10,[r4,#0x28]
        0x00000c74:    0a00008e    ....    BEQ      0xeb4
        0x00000c78:    e594000c    ....    LDR      r0,[r4,#0xc]
        0x00000c7c:    e3a0b000    ....    MOV      r11,#0
        0x00000c80:    e3500000    ..P.    CMP      r0,#0
        0x00000c84:    c240b001    ..@.    SUBGT    r11,r0,#1
        0x00000c88:    e5940010    ....    LDR      r0,[r4,#0x10]
        0x00000c8c:    e3500000    ..P.    CMP      r0,#0
        0x00000c90:    c080000b    ....    ADDGT    r0,r0,r11
        0x00000c94:    c240b001    ..@.    SUBGT    r11,r0,#1
        0x00000c98:    ea000089    ....    B        0xec4
        0x00000c9c:    e3500070    p.P.    CMP      r0,#0x70
        0x00000ca0:    0a000013    ....    BEQ      0xcf4
        0x00000ca4:    ca00000e    ....    BGT      0xce4
        0x00000ca8:    e3500069    i.P.    CMP      r0,#0x69
        0x00000cac:    0a000059    Y...    BEQ      0xe18
        0x00000cb0:    e350006f    o.P.    CMP      r0,#0x6f
        0x00000cb4:    1affffec    ....    BNE      0xc6c
        0x00000cb8:    e3180040    @...    TST      r8,#0x40
        0x00000cbc:    0a000046    F...    BEQ      0xddc
        0x00000cc0:    e24f10fc    ..O.    SUB      r1,pc,#0xfc ; #0xbcc
        0x00000cc4:    e594a02c    ,...    LDR      r10,[r4,#0x2c]
        0x00000cc8:    e594b030    0...    LDR      r11,[r4,#0x30]
        0x00000ccc:    e891000c    ....    LDMIA    r1,{r2,r3}
        0x00000cd0:    e1a0000a    ....    MOV      r0,r10
        0x00000cd4:    e15b0003    ..[.    CMP      r11,r3
        0x00000cd8:    01500002    ..P.    CMPEQ    r0,r2
        0x00000cdc:    0a000048    H...    BEQ      0xe04
        0x00000ce0:    ea00002b    +...    B        0xd94
        0x00000ce4:    e3500075    u.P.    CMP      r0,#0x75
        0x00000ce8:    0a00004a    J...    BEQ      0xe18
        0x00000cec:    e3500078    x.P.    CMP      r0,#0x78
        0x00000cf0:    1affffdd    ....    BNE      0xc6c
        0x00000cf4:    e3180040    @...    TST      r8,#0x40
        0x00000cf8:    0a000019    ....    BEQ      0xd64
        0x00000cfc:    e24f1f4e    N.O.    SUB      r1,pc,#0x138 ; #0xbcc
        0x00000d00:    e594a02c    ,...    LDR      r10,[r4,#0x2c]
        0x00000d04:    e594b030    0...    LDR      r11,[r4,#0x30]
        0x00000d08:    e891000c    ....    LDMIA    r1,{r2,r3}
        0x00000d0c:    e1a0000a    ....    MOV      r0,r10
        0x00000d10:    e15b0003    ..[.    CMP      r11,r3
        0x00000d14:    01500002    ..P.    CMPEQ    r0,r2
        0x00000d18:    0affffd3    ....    BEQ      0xc6c
        0x00000d1c:    e1a0100b    ....    MOV      r1,r11
        0x00000d20:    e5941024    $...    LDR      r1,[r4,#0x24]
        0x00000d24:    e20a000f    ....    AND      r0,r10,#0xf
        0x00000d28:    e7d11000    ....    LDRB     r1,[r1,r0]
        0x00000d2c:    e1a00006    ....    MOV      r0,r6
        0x00000d30:    e28d2008    . ..    ADD      r2,r13,#8
        0x00000d34:    e7c21000    ....    STRB     r1,[r2,r0]
        0x00000d38:    e1a0022a    *...    MOV      r0,r10,LSR #4
        0x00000d3c:    e180ae0b    ....    ORR      r10,r0,r11,LSL #28
        0x00000d40:    e24f0f5f    _.O.    SUB      r0,pc,#0x17c ; #0xbcc
        0x00000d44:    e890000c    ....    LDMIA    r0,{r2,r3}
        0x00000d48:    e1a0b22b    +...    MOV      r11,r11,LSR #4
        0x00000d4c:    e15b0003    ..[.    CMP      r11,r3
        0x00000d50:    e1a0000a    ....    MOV      r0,r10
        0x00000d54:    01500002    ..P.    CMPEQ    r0,r2
        0x00000d58:    e2866001    .`..    ADD      r6,r6,#1
        0x00000d5c:    0affffc2    ....    BEQ      0xc6c
        0x00000d60:    eaffffed    ....    B        0xd1c
        0x00000d64:    e3530000    ..S.    CMP      r3,#0
        0x00000d68:    0affffbf    ....    BEQ      0xc6c
        0x00000d6c:    e28da008    ....    ADD      r10,r13,#8
        0x00000d70:    e203100f    ....    AND      r1,r3,#0xf
        0x00000d74:    e5940024    $...    LDR      r0,[r4,#0x24]
        0x00000d78:    e1b03223    #2..    MOVS     r3,r3,LSR #4
        0x00000d7c:    e7d01001    ....    LDRB     r1,[r0,r1]
        0x00000d80:    e1a00006    ....    MOV      r0,r6
        0x00000d84:    e2866001    .`..    ADD      r6,r6,#1
        0x00000d88:    e7ca1000    ....    STRB     r1,[r10,r0]
        0x00000d8c:    0affffb6    ....    BEQ      0xc6c
        0x00000d90:    eafffff6    ....    B        0xd70
        0x00000d94:    e1a0100b    ....    MOV      r1,r11
        0x00000d98:    e5941024    $...    LDR      r1,[r4,#0x24]
        0x00000d9c:    e20a0007    ....    AND      r0,r10,#7
        0x00000da0:    e7d11000    ....    LDRB     r1,[r1,r0]
        0x00000da4:    e1a00006    ....    MOV      r0,r6
        0x00000da8:    e28d2008    . ..    ADD      r2,r13,#8
        0x00000dac:    e7c21000    ....    STRB     r1,[r2,r0]
        0x00000db0:    e1a001aa    ....    MOV      r0,r10,LSR #3
        0x00000db4:    e180ae8b    ....    ORR      r10,r0,r11,LSL #29
        0x00000db8:    e24f0f7d    }.O.    SUB      r0,pc,#0x1f4 ; #0xbcc
        0x00000dbc:    e890000c    ....    LDMIA    r0,{r2,r3}
        0x00000dc0:    e1a0b1ab    ....    MOV      r11,r11,LSR #3
        0x00000dc4:    e15b0003    ..[.    CMP      r11,r3
        0x00000dc8:    e1a0000a    ....    MOV      r0,r10
        0x00000dcc:    01500002    ..P.    CMPEQ    r0,r2
        0x00000dd0:    e2866001    .`..    ADD      r6,r6,#1
        0x00000dd4:    1affffee    ....    BNE      0xd94
        0x00000dd8:    ea000009    ....    B        0xe04
        0x00000ddc:    e3530000    ..S.    CMP      r3,#0
        0x00000de0:    0a000007    ....    BEQ      0xe04
        0x00000de4:    e28da008    ....    ADD      r10,r13,#8
        0x00000de8:    e2030007    ....    AND      r0,r3,#7
        0x00000dec:    e2801030    0...    ADD      r1,r0,#0x30
        0x00000df0:    e1a00006    ....    MOV      r0,r6
        0x00000df4:    e7ca1000    ....    STRB     r1,[r10,r0]
        0x00000df8:    e2866001    .`..    ADD      r6,r6,#1
        0x00000dfc:    e1b031a3    .1..    MOVS     r3,r3,LSR #3
        0x00000e00:    1afffff8    ....    BNE      0xde8
        0x00000e04:    e3180008    ....    TST      r8,#8
        0x00000e08:    15940008    ....    LDRNE    r0,[r4,#8]
        0x00000e0c:    12400001    ..@.    SUBNE    r0,r0,#1
        0x00000e10:    15840008    ....    STRNE    r0,[r4,#8]
        0x00000e14:    eaffff94    ....    B        0xc6c
        0x00000e18:    e3180040    @...    TST      r8,#0x40
        0x00000e1c:    0a000018    ....    BEQ      0xe84
        0x00000e20:    e24f1f97    ..O.    SUB      r1,pc,#0x25c ; #0xbcc
        0x00000e24:    e594a02c    ,...    LDR      r10,[r4,#0x2c]
        0x00000e28:    e594b030    0...    LDR      r11,[r4,#0x30]
        0x00000e2c:    e891000c    ....    LDMIA    r1,{r2,r3}
        0x00000e30:    e1a0000a    ....    MOV      r0,r10
        0x00000e34:    e15b0003    ..[.    CMP      r11,r3
        0x00000e38:    01500002    ..P.    CMPEQ    r0,r2
        0x00000e3c:    0affff8a    ....    BEQ      0xc6c
        0x00000e40:    e1a0100b    ....    MOV      r1,r11
        0x00000e44:    e1a0000a    ....    MOV      r0,r10
        0x00000e48:    eb0005ca    ....    BL       _ll_udiv10  ; 0x2578
        0x00000e4c:    e1a0b001    ....    MOV      r11,r1
        0x00000e50:    e1a0a000    ....    MOV      r10,r0
        0x00000e54:    e1a00006    ....    MOV      r0,r6
        0x00000e58:    e2821030    0...    ADD      r1,r2,#0x30
        0x00000e5c:    e28d2008    . ..    ADD      r2,r13,#8
        0x00000e60:    e7c21000    ....    STRB     r1,[r2,r0]
        0x00000e64:    e24f0fa8    ..O.    SUB      r0,pc,#0x2a0 ; #0xbcc
        0x00000e68:    e890000c    ....    LDMIA    r0,{r2,r3}
        0x00000e6c:    e1a0000a    ....    MOV      r0,r10
        0x00000e70:    e15b0003    ..[.    CMP      r11,r3
        0x00000e74:    01500002    ..P.    CMPEQ    r0,r2
        0x00000e78:    e2866001    .`..    ADD      r6,r6,#1
        0x00000e7c:    0affff7a    z...    BEQ      0xc6c
        0x00000e80:    eaffffee    ....    B        0xe40
        0x00000e84:    e3530000    ..S.    CMP      r3,#0
        0x00000e88:    0affff77    w...    BEQ      0xc6c
        0x00000e8c:    e28da008    ....    ADD      r10,r13,#8
        0x00000e90:    e1a00003    ....    MOV      r0,r3
        0x00000e94:    eb000639    9...    BL       __rt_udiv10  ; 0x2780
        0x00000e98:    e2812030    0 ..    ADD      r2,r1,#0x30
        0x00000e9c:    e1a01006    ....    MOV      r1,r6
        0x00000ea0:    e7ca2001    . ..    STRB     r2,[r10,r1]
        0x00000ea4:    e2866001    .`..    ADD      r6,r6,#1
        0x00000ea8:    e1b03000    .0..    MOVS     r3,r0
        0x00000eac:    0affff6e    n...    BEQ      0xc6c
        0x00000eb0:    eafffff6    ....    B        0xe90
        0x00000eb4:    e5940008    ....    LDR      r0,[r4,#8]
        0x00000eb8:    e040b006    ..@.    SUB      r11,r0,r6
        0x00000ebc:    e35b0000    ..[.    CMP      r11,#0
        0x00000ec0:    b3a0b000    ....    MOVLT    r11,#0
        0x00000ec4:    e5940004    ....    LDR      r0,[r4,#4]
        0x00000ec8:    eb00066d    m...    BL       strlen  ; 0x2884
        0x00000ecc:    e08b1006    ....    ADD      r1,r11,r6
        0x00000ed0:    e0800001    ....    ADD      r0,r0,r1
        0x00000ed4:    e3180f40    @...    TST      r8,#0x100
        0x00000ed8:    03180001    ....    TSTEQ    r8,#1
        0x00000edc:    e04aa000    ..J.    SUB      r10,r10,r0
        0x00000ee0:    1a00000b    ....    BNE      0xf14
        0x00000ee4:    e3a00020     ...    MOV      r0,#0x20
        0x00000ee8:    e58d0004    ....    STR      r0,[r13,#4]
        0x00000eec:    e25aa001    ..Z.    SUBS     r10,r10,#1
        0x00000ef0:    4a000007    ...J    BMI      0xf14
        0x00000ef4:    e594201c    . ..    LDR      r2,[r4,#0x1c]
        0x00000ef8:    e59d0004    ....    LDR      r0,[r13,#4]
        0x00000efc:    e2855001    .P..    ADD      r5,r5,#1
        0x00000f00:    e1a01007    ....    MOV      r1,r7
        0x00000f04:    e1a0e00f    ....    MOV      r14,pc
    $p
        0x00000f08:    e1a0f002    ....    MOV      pc,r2
        0x00000f0c:    e25aa001    ..Z.    SUBS     r10,r10,#1
        0x00000f10:    5afffff7    ...Z    BPL      0xef4
        0x00000f14:    e5941004    ....    LDR      r1,[r4,#4]
        0x00000f18:    e4d10001    ....    LDRB     r0,[r1],#1
        0x00000f1c:    e58d1004    ....    STR      r1,[r13,#4]
        0x00000f20:    e3500000    ..P.    CMP      r0,#0
        0x00000f24:    0a000009    ....    BEQ      0xf50
        0x00000f28:    e594201c    . ..    LDR      r2,[r4,#0x1c]
        0x00000f2c:    e1a01007    ....    MOV      r1,r7
        0x00000f30:    e1a0e00f    ....    MOV      r14,pc
    $p
        0x00000f34:    e1a0f002    ....    MOV      pc,r2
        0x00000f38:    e59d1004    ....    LDR      r1,[r13,#4]
        0x00000f3c:    e2855001    .P..    ADD      r5,r5,#1
        0x00000f40:    e4d10001    ....    LDRB     r0,[r1],#1
        0x00000f44:    e58d1004    ....    STR      r1,[r13,#4]
        0x00000f48:    e3500000    ..P.    CMP      r0,#0
        0x00000f4c:    1afffff5    ....    BNE      0xf28
        0x00000f50:    e3180001    ....    TST      r8,#1
        0x00000f54:    1a00000e    ....    BNE      0xf94
        0x00000f58:    e3180f40    @...    TST      r8,#0x100
        0x00000f5c:    03a00020     ...    MOVEQ    r0,#0x20
        0x00000f60:    13a00030    0...    MOVNE    r0,#0x30
        0x00000f64:    e20000ff    ....    AND      r0,r0,#0xff
        0x00000f68:    e58d0004    ....    STR      r0,[r13,#4]
        0x00000f6c:    e25aa001    ..Z.    SUBS     r10,r10,#1
        0x00000f70:    4a000007    ...J    BMI      0xf94
        0x00000f74:    e594201c    . ..    LDR      r2,[r4,#0x1c]
        0x00000f78:    e59d0004    ....    LDR      r0,[r13,#4]
        0x00000f7c:    e2855001    .P..    ADD      r5,r5,#1
        0x00000f80:    e1a01007    ....    MOV      r1,r7
        0x00000f84:    e1a0e00f    ....    MOV      r14,pc
    $p
        0x00000f88:    e1a0f002    ....    MOV      pc,r2
        0x00000f8c:    e25aa001    ..Z.    SUBS     r10,r10,#1
        0x00000f90:    5afffff7    ...Z    BPL      0xf74
        0x00000f94:    e3180f80    ....    TST      r8,#0x200
        0x00000f98:    0a000034    4...    BEQ      0x1070
        0x00000f9c:    e3a0b000    ....    MOV      r11,#0
        0x00000fa0:    e3560000    ..V.    CMP      r6,#0
        0x00000fa4:    da000049    I...    BLE      0x10d0
        0x00000fa8:    e28d0008    ....    ADD      r0,r13,#8
        0x00000fac:    e7d0000b    ....    LDRB     r0,[r0,r11]
        0x00000fb0:    e350003c    <.P.    CMP      r0,#0x3c
        0x00000fb4:    0a000007    ....    BEQ      0xfd8
        0x00000fb8:    e350003e    >.P.    CMP      r0,#0x3e
        0x00000fbc:    1a000022    "...    BNE      0x104c
        0x00000fc0:    e5940010    ....    LDR      r0,[r4,#0x10]
        0x00000fc4:    e2400001    ..@.    SUB      r0,r0,#1
        0x00000fc8:    e5840010    ....    STR      r0,[r4,#0x10]
        0x00000fcc:    e3500000    ..P.    CMP      r0,#0
        0x00000fd0:    ba000022    "...    BLT      0x1060
        0x00000fd4:    ea000010    ....    B        0x101c
        0x00000fd8:    e594000c    ....    LDR      r0,[r4,#0xc]
        0x00000fdc:    e2400001    ..@.    SUB      r0,r0,#1
        0x00000fe0:    e584000c    ....    STR      r0,[r4,#0xc]
        0x00000fe4:    e3500000    ..P.    CMP      r0,#0
        0x00000fe8:    ba00001c    ....    BLT      0x1060
        0x00000fec:    e594201c    . ..    LDR      r2,[r4,#0x1c]
        0x00000ff0:    e2855001    .P..    ADD      r5,r5,#1
        0x00000ff4:    e1a01007    ....    MOV      r1,r7
        0x00000ff8:    e3a00030    0...    MOV      r0,#0x30
        0x00000ffc:    e1a0e00f    ....    MOV      r14,pc
    $p
        0x00001000:    e1a0f002    ....    MOV      pc,r2
        0x00001004:    e594000c    ....    LDR      r0,[r4,#0xc]
        0x00001008:    e2400001    ..@.    SUB      r0,r0,#1
        0x0000100c:    e584000c    ....    STR      r0,[r4,#0xc]
        0x00001010:    e3500000    ..P.    CMP      r0,#0
        0x00001014:    aafffff4    ....    BGE      0xfec
        0x00001018:    ea000010    ....    B        0x1060
        0x0000101c:    e594201c    . ..    LDR      r2,[r4,#0x1c]
        0x00001020:    e2855001    .P..    ADD      r5,r5,#1
        0x00001024:    e1a01007    ....    MOV      r1,r7
        0x00001028:    e3a00030    0...    MOV      r0,#0x30
        0x0000102c:    e1a0e00f    ....    MOV      r14,pc
    $p
        0x00001030:    e1a0f002    ....    MOV      pc,r2
        0x00001034:    e5940010    ....    LDR      r0,[r4,#0x10]
        0x00001038:    e2400001    ..@.    SUB      r0,r0,#1
        0x0000103c:    e5840010    ....    STR      r0,[r4,#0x10]
        0x00001040:    e3500000    ..P.    CMP      r0,#0
        0x00001044:    aafffff4    ....    BGE      0x101c
        0x00001048:    ea000004    ....    B        0x1060
        0x0000104c:    e594201c    . ..    LDR      r2,[r4,#0x1c]
        0x00001050:    e1a01007    ....    MOV      r1,r7
        0x00001054:    e1a0e00f    ....    MOV      r14,pc
    $p
        0x00001058:    e1a0f002    ....    MOV      pc,r2
        0x0000105c:    e2855001    .P..    ADD      r5,r5,#1
        0x00001060:    e28bb001    ....    ADD      r11,r11,#1
        0x00001064:    e15b0006    ..[.    CMP      r11,r6
        0x00001068:    baffffce    ....    BLT      0xfa8
        0x0000106c:    ea000017    ....    B        0x10d0
        0x00001070:    e25bb001    ..[.    SUBS     r11,r11,#1
        0x00001074:    4a000007    ...J    BMI      0x1098
        0x00001078:    e594201c    . ..    LDR      r2,[r4,#0x1c]
        0x0000107c:    e2855001    .P..    ADD      r5,r5,#1
        0x00001080:    e1a01007    ....    MOV      r1,r7
        0x00001084:    e3a00030    0...    MOV      r0,#0x30
        0x00001088:    e1a0e00f    ....    MOV      r14,pc
    $p
        0x0000108c:    e1a0f002    ....    MOV      pc,r2
        0x00001090:    e25bb001    ..[.    SUBS     r11,r11,#1
        0x00001094:    5afffff7    ...Z    BPL      0x1078
        0x00001098:    e0855006    .P..    ADD      r5,r5,r6
        0x0000109c:    e246b001    ..F.    SUB      r11,r6,#1
        0x000010a0:    e3560000    ..V.    CMP      r6,#0
        0x000010a4:    da000009    ....    BLE      0x10d0
        0x000010a8:    e28d6008    .`..    ADD      r6,r13,#8
        0x000010ac:    e7d6000b    ....    LDRB     r0,[r6,r11]
        0x000010b0:    e594201c    . ..    LDR      r2,[r4,#0x1c]
        0x000010b4:    e1a01007    ....    MOV      r1,r7
        0x000010b8:    e1a0e00f    ....    MOV      r14,pc
    $p
        0x000010bc:    e1a0f002    ....    MOV      pc,r2
        0x000010c0:    e1a0000b    ....    MOV      r0,r11
        0x000010c4:    e3500000    ..P.    CMP      r0,#0
        0x000010c8:    e24bb001    ..K.    SUB      r11,r11,#1
        0x000010cc:    cafffff6    ....    BGT      0x10ac
        0x000010d0:    e3180001    ....    TST      r8,#1
        0x000010d4:    0a000009    ....    BEQ      0x1100
        0x000010d8:    e25a6001    .`Z.    SUBS     r6,r10,#1
        0x000010dc:    4a000007    ...J    BMI      0x1100
        0x000010e0:    e594201c    . ..    LDR      r2,[r4,#0x1c]
        0x000010e4:    e2855001    .P..    ADD      r5,r5,#1
        0x000010e8:    e1a01007    ....    MOV      r1,r7
        0x000010ec:    e3a00020     ...    MOV      r0,#0x20
        0x000010f0:    e1a0e00f    ....    MOV      r14,pc
    $p
        0x000010f4:    e1a0f002    ....    MOV      pc,r2
        0x000010f8:    e2566001    .`V.    SUBS     r6,r6,#1
        0x000010fc:    5afffff7    ...Z    BPL      0x10e0
        0x00001100:    e1a00005    ....    MOV      r0,r5
        0x00001104:    e28dd028    (...    ADD      r13,r13,#0x28
        0x00001108:    e8bd01f0    ....    LDMFD    r13!,{r4-r8}
        0x0000110c:    e8bd8c00    ....    LDMFD    r13!,{r10,r11,pc}
    ferror
    $a
    .text
        0x00001110:    e590000c    ....    LDR      r0,[r0,#0xc]
        0x00001114:    e2000080    ....    AND      r0,r0,#0x80
        0x00001118:    e1a0f00e    ....    MOV      pc,r14
    fputc
    .text
        0x0000111c:    e5912008    . ..    LDR      r2,[r1,#8]
        0x00001120:    e3520000    ..R.    CMP      r2,#0
        0x00001124:    da000408    ....    BLE      __flsbuf  ; 0x214c
        0x00001128:    e2422001    . B.    SUB      r2,r2,#1
        0x0000112c:    e5812008    . ..    STR      r2,[r1,#8]
        0x00001130:    e5912004    . ..    LDR      r2,[r1,#4]
        0x00001134:    e20000ff    ....    AND      r0,r0,#0xff
        0x00001138:    e2823001    .0..    ADD      r3,r2,#1
        0x0000113c:    e5813004    .0..    STR      r3,[r1,#4]
        0x00001140:    e5c20000    ....    STRB     r0,[r2,#0]
        0x00001144:    e1a0f00e    ....    MOV      pc,r14
    _seterr
    .text
        0x00001148:    e590100c    ....    LDR      r1,[r0,#0xc]
        0x0000114c:    e3811080    ....    ORR      r1,r1,#0x80
        0x00001150:    e580100c    ....    STR      r1,[r0,#0xc]
        0x00001154:    e3a01000    ....    MOV      r1,#0
        0x00001158:    e5801008    ....    STR      r1,[r0,#8]
        0x0000115c:    e5801000    ....    STR      r1,[r0,#0]
        0x00001160:    e1a0f00e    ....    MOV      pc,r14
    _writebuf
        0x00001164:    e92d45c0    .E-.    STMFD    r13!,{r6-r8,r10,r14}
        0x00001168:    e92d0038    8.-.    STMFD    r13!,{r3-r5}
        0x0000116c:    e1a04002    .@..    MOV      r4,r2
        0x00001170:    e1a0a000    ....    MOV      r10,r0
        0x00001174:    e3a00010    ....    MOV      r0,#0x10
        0x00001178:    e5b2500c    .P..    LDR      r5,[r2,#0xc]!
        0x0000117c:    e2800b80    ....    ADD      r0,r0,#0x20000
        0x00001180:    e1150000    ....    TST      r5,r0
        0x00001184:    e5926008    .`..    LDR      r6,[r2,#8]
        0x00001188:    e3a08000    ....    MOV      r8,#0
        0x0000118c:    e1a07001    .p..    MOV      r7,r1
        0x00001190:    0a00000f    ....    BEQ      0x11d4
        0x00001194:    e1a00006    ....    MOV      r0,r6
        0x00001198:    e5941018    ....    LDR      r1,[r4,#0x18]
        0x0000119c:    eb0005f8    ....    BL       _sys_seek  ; 0x2984
        0x000011a0:    e3500000    ..P.    CMP      r0,#0
        0x000011a4:    aa000007    ....    BGE      0x11c8
        0x000011a8:    e594000c    ....    LDR      r0,[r4,#0xc]
        0x000011ac:    e3800080    ....    ORR      r0,r0,#0x80
        0x000011b0:    e584000c    ....    STR      r0,[r4,#0xc]
        0x000011b4:    e5848008    ....    STR      r8,[r4,#8]
        0x000011b8:    e5848000    ....    STR      r8,[r4,#0]
        0x000011bc:    e8bd00f8    ....    LDMFD    r13!,{r3-r7}
        0x000011c0:    e3e00000    ....    MVN      r0,#0
        0x000011c4:    e8bd8500    ....    LDMFD    r13!,{r8,r10,pc}
        0x000011c8:    e3c55b80    .[..    BIC      r5,r5,#0x20000
        0x000011cc:    e3c55010    .P..    BIC      r5,r5,#0x10
        0x000011d0:    e584500c    .P..    STR      r5,[r4,#0xc]
        0x000011d4:    e1a03005    .0..    MOV      r3,r5
        0x000011d8:    e1a02007    . ..    MOV      r2,r7
        0x000011dc:    e1a0100a    ....    MOV      r1,r10
        0x000011e0:    e1a00006    ....    MOV      r0,r6
        0x000011e4:    eb0005d0    ....    BL       _sys_write  ; 0x292c
        0x000011e8:    e594100c    ....    LDR      r1,[r4,#0xc]
        0x000011ec:    e3c03480    .4..    BIC      r3,r0,#0x80000000
        0x000011f0:    e3811a40    @...    ORR      r1,r1,#0x40000
        0x000011f4:    e584100c    ....    STR      r1,[r4,#0xc]
        0x000011f8:    e5942018    . ..    LDR      r2,[r4,#0x18]
        0x000011fc:    e0473003    .0G.    SUB      r3,r7,r3
        0x00001200:    e0822003    . ..    ADD      r2,r2,r3
        0x00001204:    e5842018    . ..    STR      r2,[r4,#0x18]
        0x00001208:    e3500000    ..P.    CMP      r0,#0
        0x0000120c:    08bd00f8    ....    LDMEQFD  r13!,{r3-r7}
        0x00001210:    08bd8500    ....    LDMEQFD  r13!,{r8,r10,pc}
        0x00001214:    e3810080    ....    ORR      r0,r1,#0x80
        0x00001218:    e584000c    ....    STR      r0,[r4,#0xc]
        0x0000121c:    e5848008    ....    STR      r8,[r4,#8]
        0x00001220:    e5848000    ....    STR      r8,[r4,#0]
        0x00001224:    e8bd00f8    ....    LDMFD    r13!,{r3-r7}
        0x00001228:    e3e00000    ....    MVN      r0,#0
        0x0000122c:    e8bd8500    ....    LDMFD    r13!,{r8,r10,pc}
    _flushlinebuffered
        0x00001230:    e92d4038    8@-.    STMFD    r13!,{r3-r5,r14}
        0x00001234:    e3a05002    .P..    MOV      r5,#2
        0x00001238:    e59f4470    pD..    LDR      r4,0x16b0
        0x0000123c:    e2855f80    ._..    ADD      r5,r5,#0x200
        0x00001240:    e594000c    ....    LDR      r0,[r4,#0xc]
        0x00001244:    e1d50000    ....    BICS     r0,r5,r0
        0x00001248:    01a00004    ....    MOVEQ    r0,r4
        0x0000124c:    0b00037b    {...    BLEQ     fflush  ; 0x2040
        0x00001250:    e5944040    @@..    LDR      r4,[r4,#0x40]
        0x00001254:    e3540000    ..T.    CMP      r4,#0
        0x00001258:    1afffff8    ....    BNE      0x1240
        0x0000125c:    e8bd8038    8...    LDMFD    r13!,{r3-r5,pc}
    _fflush
        0x00001260:    e92d4038    8@-.    STMFD    r13!,{r3-r5,r14}
        0x00001264:    e1a04000    .@..    MOV      r4,r0
        0x00001268:    e5905010    .P..    LDR      r5,[r0,#0x10]
        0x0000126c:    e590002c    ,...    LDR      r0,[r0,#0x2c]
        0x00001270:    e5941004    ....    LDR      r1,[r4,#4]
        0x00001274:    e1500001    ..P.    CMP      r0,r1
        0x00001278:    91a00001    ....    MOVLS    r0,r1
        0x0000127c:    e1a01000    ....    MOV      r1,r0
        0x00001280:    e594000c    ....    LDR      r0,[r4,#0xc]
        0x00001284:    e3c00a80    ....    BIC      r0,r0,#0x80000
        0x00001288:    e2002003    . ..    AND      r2,r0,#3
        0x0000128c:    e3520001    ..R.    CMP      r2,#1
        0x00001290:    e584000c    ....    STR      r0,[r4,#0xc]
        0x00001294:    03a00000    ....    MOVEQ    r0,#0
        0x00001298:    08bd8038    8...    LDMEQFD  r13!,{r3-r5,pc}
        0x0000129c:    e2002082    . ..    AND      r2,r0,#0x82
        0x000012a0:    e3520002    ..R.    CMP      r2,#2
        0x000012a4:    13e00000    ....    MVNNE    r0,#0
        0x000012a8:    18bd8038    8...    LDMNEFD  r13!,{r3-r5,pc}
        0x000012ac:    e3100b40    @...    TST      r0,#0x10000
        0x000012b0:    0a00000f    ....    BEQ      0x12f4
        0x000012b4:    e1510005    ..Q.    CMP      r1,r5
        0x000012b8:    0a000006    ....    BEQ      0x12d8
        0x000012bc:    e0411005    ..A.    SUB      r1,r1,r5
        0x000012c0:    e1a02004    . ..    MOV      r2,r4
        0x000012c4:    e1a00005    ....    MOV      r0,r5
        0x000012c8:    ebffffa5    ....    BL       _writebuf  ; 0x1164
        0x000012cc:    e3500000    ..P.    CMP      r0,#0
        0x000012d0:    13e00000    ....    MVNNE    r0,#0
        0x000012d4:    18bd8038    8...    LDMNEFD  r13!,{r3-r5,pc}
        0x000012d8:    e584502c    ,P..    STR      r5,[r4,#0x2c]
        0x000012dc:    e3a00000    ....    MOV      r0,#0
        0x000012e0:    e5840008    ....    STR      r0,[r4,#8]
        0x000012e4:    e5845004    .P..    STR      r5,[r4,#4]
        0x000012e8:    e594000c    ....    LDR      r0,[r4,#0xc]
        0x000012ec:    e3c00b40    @...    BIC      r0,r0,#0x10000
        0x000012f0:    e584000c    ....    STR      r0,[r4,#0xc]
        0x000012f4:    e3a00000    ....    MOV      r0,#0
        0x000012f8:    e8bd8038    8...    LDMFD    r13!,{r3-r5,pc}
    _deferredlazyseek
        0x000012fc:    e92d4010    .@-.    STMFD    r13!,{r4,r14}
        0x00001300:    e1a04000    .@..    MOV      r4,r0
        0x00001304:    e590000c    ....    LDR      r0,[r0,#0xc]
        0x00001308:    e3c00020     ...    BIC      r0,r0,#0x20
        0x0000130c:    e584000c    ....    STR      r0,[r4,#0xc]
        0x00001310:    e5940018    ....    LDR      r0,[r4,#0x18]
        0x00001314:    e5941028    (...    LDR      r1,[r4,#0x28]
        0x00001318:    e1500001    ..P.    CMP      r0,r1
        0x0000131c:    0a00000a    ....    BEQ      0x134c
        0x00001320:    e1a00004    ....    MOV      r0,r4
        0x00001324:    ebffffcd    ....    BL       _fflush  ; 0x1260
        0x00001328:    e594000c    ....    LDR      r0,[r4,#0xc]
        0x0000132c:    e3c00dc0    ....    BIC      r0,r0,#0x3000
        0x00001330:    e3800010    ....    ORR      r0,r0,#0x10
        0x00001334:    e584000c    ....    STR      r0,[r4,#0xc]
        0x00001338:    e5940028    (...    LDR      r0,[r4,#0x28]
        0x0000133c:    e5840018    ....    STR      r0,[r4,#0x18]
        0x00001340:    e5940010    ....    LDR      r0,[r4,#0x10]
        0x00001344:    e584002c    ,...    STR      r0,[r4,#0x2c]
        0x00001348:    e5840004    ....    STR      r0,[r4,#4]
        0x0000134c:    e594000c    ....    LDR      r0,[r4,#0xc]
        0x00001350:    e3c00c40    @...    BIC      r0,r0,#0x4000
        0x00001354:    e3c00040    @...    BIC      r0,r0,#0x40
        0x00001358:    e584000c    ....    STR      r0,[r4,#0xc]
        0x0000135c:    e8bd8010    ....    LDMFD    r13!,{r4,pc}
    fclose
        0x00001360:    e92d41e0    .A-.    STMFD    r13!,{r5-r8,r14}
        0x00001364:    e52d4004    .@-.    STR      r4,[r13,#-4]!
        0x00001368:    e1a04000    .@..    MOV      r4,r0
        0x0000136c:    e5b0500c    .P..    LDR      r5,[r0,#0xc]!
        0x00001370:    e5b08004    ....    LDR      r8,[r0,#4]!
        0x00001374:    e5907004    .p..    LDR      r7,[r0,#4]
        0x00001378:    e3150003    ....    TST      r5,#3
        0x0000137c:    e3a06000    .`..    MOV      r6,#0
        0x00001380:    08bd01f0    ....    LDMEQFD  r13!,{r4-r8}
        0x00001384:    03e00000    ....    MVNEQ    r0,#0
        0x00001388:    049df004    ....    LDREQ    pc,[r13],#4
        0x0000138c:    e3150008    ....    TST      r5,#8
        0x00001390:    1a000013    ....    BNE      0x13e4
        0x00001394:    e1a00004    ....    MOV      r0,r4
        0x00001398:    eb000328    (...    BL       fflush  ; 0x2040
        0x0000139c:    e1a00007    ....    MOV      r0,r7
        0x000013a0:    eb00055b    [...    BL       _sys_close  ; 0x2914
        0x000013a4:    e3500000    ..P.    CMP      r0,#0
        0x000013a8:    b3e00000    ....    MVNLT    r0,#0
        0x000013ac:    b8bd01f0    ....    LDMLTFD  r13!,{r4-r8}
        0x000013b0:    b49df004    ....    LDRLT    pc,[r13],#4
        0x000013b4:    e3150e80    ....    TST      r5,#0x800
        0x000013b8:    11a00008    ....    MOVNE    r0,r8
        0x000013bc:    1b0003f3    ....    BLNE     free  ; 0x2390
        0x000013c0:    e1a00ba5    ....    MOV      r0,r5,LSR #23
        0x000013c4:    e1a00b80    ....    MOV      r0,r0,LSL #23
        0x000013c8:    e280c440    @...    ADD      r12,r0,#0x40000000
        0x000013cc:    e29cc54a    J...    ADDS     r12,r12,#0x12800000
        0x000013d0:    1a000003    ....    BNE      0x13e4
        0x000013d4:    e1a01004    ....    MOV      r1,r4
        0x000013d8:    e1a00006    ....    MOV      r0,r6
        0x000013dc:    ebffffff    ....    BL       0x13e0
        0x000013e0:    e1a06000    .`..    MOV      r6,r0
        0x000013e4:    e3a00000    ....    MOV      r0,#0
        0x000013e8:    e3a01000    ....    MOV      r1,#0
        0x000013ec:    e3a02000    . ..    MOV      r2,#0
        0x000013f0:    e3a03000    .0..    MOV      r3,#0
        0x000013f4:    e3a05000    .P..    MOV      r5,#0
        0x000013f8:    e8a4002f    /...    STMIA    r4!,{r0-r3,r5}
        0x000013fc:    e8a4002f    /...    STMIA    r4!,{r0-r3,r5}
        0x00001400:    e8a4002f    /...    STMIA    r4!,{r0-r3,r5}
        0x00001404:    e5840000    ....    STR      r0,[r4,#0]
        0x00001408:    e1a00006    ....    MOV      r0,r6
        0x0000140c:    e8bd01f0    ....    LDMFD    r13!,{r4-r8}
        0x00001410:    e49df004    ....    LDR      pc,[r13],#4
    freopen
        0x00001414:    e92d40f0    .@-.    STMFD    r13!,{r4-r7,r14}
        0x00001418:    e1a07000    .p..    MOV      r7,r0
        0x0000141c:    e1a00002    ....    MOV      r0,r2
        0x00001420:    e52d3004    .0-.    STR      r3,[r13,#-4]!
        0x00001424:    e1a06002    .`..    MOV      r6,r2
        0x00001428:    e1a04001    .@..    MOV      r4,r1
        0x0000142c:    ebffffcb    ....    BL       fclose  ; 0x1360
        0x00001430:    e5d41000    ....    LDRB     r1,[r4,#0]
        0x00001434:    e2840001    ....    ADD      r0,r4,#1
        0x00001438:    e3510061    a.Q.    CMP      r1,#0x61
        0x0000143c:    03a05002    .P..    MOVEQ    r5,#2
        0x00001440:    02855c80    .\..    ADDEQ    r5,r5,#0x8000
        0x00001444:    03a04008    .@..    MOVEQ    r4,#8
        0x00001448:    0a000009    ....    BEQ      0x1474
        0x0000144c:    e3510072    r.Q.    CMP      r1,#0x72
        0x00001450:    03a05001    .P..    MOVEQ    r5,#1
        0x00001454:    03a04000    .@..    MOVEQ    r4,#0
        0x00001458:    0a000005    ....    BEQ      0x1474
        0x0000145c:    e3510077    w.Q.    CMP      r1,#0x77
        0x00001460:    13a00000    ....    MOVNE    r0,#0
        0x00001464:    18bd00f8    ....    LDMNEFD  r13!,{r3-r7}
        0x00001468:    149df004    ....    LDRNE    pc,[r13],#4
        0x0000146c:    e3a05002    .P..    MOV      r5,#2
        0x00001470:    e3a04004    .@..    MOV      r4,#4
        0x00001474:    e4d01001    ....    LDRB     r1,[r0],#1
        0x00001478:    e351002b    +.Q.    CMP      r1,#0x2b
        0x0000147c:    03855003    .P..    ORREQ    r5,r5,#3
        0x00001480:    03844002    .@..    ORREQ    r4,r4,#2
        0x00001484:    0afffffa    ....    BEQ      0x1474
        0x00001488:    e3510062    b.Q.    CMP      r1,#0x62
        0x0000148c:    03855004    .P..    ORREQ    r5,r5,#4
        0x00001490:    03844001    .@..    ORREQ    r4,r4,#1
        0x00001494:    0afffff6    ....    BEQ      0x1474
        0x00001498:    e5500001    ..P.    LDRB     r0,[r0,#-1]
        0x0000149c:    e3500074    t.P.    CMP      r0,#0x74
        0x000014a0:    03844010    .@..    ORREQ    r4,r4,#0x10
        0x000014a4:    e1a01004    ....    MOV      r1,r4
        0x000014a8:    e1a00007    ....    MOV      r0,r7
        0x000014ac:    eb00050e    ....    BL       _sys_open  ; 0x28ec
        0x000014b0:    e3700001    ..p.    CMN      r0,#1
        0x000014b4:    03a00000    ....    MOVEQ    r0,#0
        0x000014b8:    08bd00f8    ....    LDMEQFD  r13!,{r3-r7}
        0x000014bc:    049df004    ....    LDREQ    pc,[r13],#4
        0x000014c0:    e3a01000    ....    MOV      r1,#0
        0x000014c4:    e5861010    ....    STR      r1,[r6,#0x10]
        0x000014c8:    e5861004    ....    STR      r1,[r6,#4]
        0x000014cc:    e5860014    ....    STR      r0,[r6,#0x14]
        0x000014d0:    e3a01f80    ....    MOV      r1,#0x200
        0x000014d4:    e586101c    ....    STR      r1,[r6,#0x1c]
        0x000014d8:    e586500c    .P..    STR      r5,[r6,#0xc]
        0x000014dc:    e3140008    ....    TST      r4,#8
        0x000014e0:    0a000003    ....    BEQ      0x14f4
        0x000014e4:    e3a02002    . ..    MOV      r2,#2
        0x000014e8:    e3a01000    ....    MOV      r1,#0
        0x000014ec:    e1a00006    ....    MOV      r0,r6
        0x000014f0:    eb0003ae    ....    BL       fseek  ; 0x23b0
        0x000014f4:    e1a00006    ....    MOV      r0,r6
        0x000014f8:    e8bd00f8    ....    LDMFD    r13!,{r3-r7}
        0x000014fc:    e49df004    ....    LDR      pc,[r13],#4
    fopen
        0x00001500:    e92d40f0    .@-.    STMFD    r13!,{r4-r7,r14}
        0x00001504:    e59f41a4    .A..    LDR      r4,0x16b0
        0x00001508:    e52d3004    .0-.    STR      r3,[r13,#-4]!
        0x0000150c:    e1a07001    .p..    MOV      r7,r1
        0x00001510:    e1a06000    .`..    MOV      r6,r0
        0x00001514:    e594000c    ....    LDR      r0,[r4,#0xc]
        0x00001518:    e3100003    ....    TST      r0,#3
        0x0000151c:    1a000005    ....    BNE      0x1538
        0x00001520:    e1a02004    . ..    MOV      r2,r4
        0x00001524:    e1a01007    ....    MOV      r1,r7
        0x00001528:    e1a00006    ....    MOV      r0,r6
        0x0000152c:    e8bd00f8    ....    LDMFD    r13!,{r3-r7}
        0x00001530:    e49de004    ....    LDR      r14,[r13],#4
        0x00001534:    eaffffb6    ....    B        freopen  ; 0x1414
        0x00001538:    e5940040    @...    LDR      r0,[r4,#0x40]
        0x0000153c:    e3500000    ..P.    CMP      r0,#0
        0x00001540:    11a04000    .@..    MOVNE    r4,r0
        0x00001544:    1afffff2    ....    BNE      0x1514
        0x00001548:    e3a00044    D...    MOV      r0,#0x44
        0x0000154c:    eb000468    h...    BL       malloc  ; 0x26f4
        0x00001550:    e1a05000    .P..    MOV      r5,r0
        0x00001554:    e3a01044    D...    MOV      r1,#0x44
        0x00001558:    e5840040    @...    STR      r0,[r4,#0x40]
        0x0000155c:    eb00046b    k...    BL       __rt_memclr_w  ; 0x2710
        0x00001560:    e1a02005    . ..    MOV      r2,r5
        0x00001564:    e1a01007    ....    MOV      r1,r7
        0x00001568:    e1a00006    ....    MOV      r0,r6
        0x0000156c:    e8bd00f8    ....    LDMFD    r13!,{r3-r7}
        0x00001570:    e49de004    ....    LDR      r14,[r13],#4
        0x00001574:    eaffffa6    ....    B        freopen  ; 0x1414
    _initio
        0x00001578:    e92d41e0    .A-.    STMFD    r13!,{r5-r8,r14}
        0x0000157c:    e52d4004    .@-.    STR      r4,[r13,#-4]!
        0x00001580:    e59f4128    (A..    LDR      r4,0x16b0
        0x00001584:    e3a01044    D...    MOV      r1,#0x44
        0x00001588:    e1a00004    ....    MOV      r0,r4
        0x0000158c:    eb00045f    _...    BL       __rt_memclr_w  ; 0x2710
        0x00001590:    e59f711c    .q..    LDR      r7,0x16b4
        0x00001594:    e3a01044    D...    MOV      r1,#0x44
        0x00001598:    e1a00007    ....    MOV      r0,r7
        0x0000159c:    eb00045b    [...    BL       __rt_memclr_w  ; 0x2710
        0x000015a0:    e59f8110    ....    LDR      r8,0x16b8
        0x000015a4:    e3a01044    D...    MOV      r1,#0x44
        0x000015a8:    e1a00008    ....    MOV      r0,r8
        0x000015ac:    eb000457    W...    BL       __rt_memclr_w  ; 0x2710
        0x000015b0:    e5847040    @p..    STR      r7,[r4,#0x40]
        0x000015b4:    e1a02004    . ..    MOV      r2,r4
        0x000015b8:    e59f4100    .A..    LDR      r4,0x16c0
        0x000015bc:    e59f00f4    ....    LDR      r0,0x16b8
        0x000015c0:    e28f10f4    ....    ADD      r1,pc,#0xf4 ; #0x16bc
        0x000015c4:    e08f4004    .@..    ADD      r4,pc,r4
        0x000015c8:    e5870040    @...    STR      r0,[r7,#0x40]
        0x000015cc:    e1a00004    ....    MOV      r0,r4
        0x000015d0:    ebffff8f    ....    BL       freopen  ; 0x1414
        0x000015d4:    e3500000    ..P.    CMP      r0,#0
        0x000015d8:    01a01004    ....    MOVEQ    r1,r4
        0x000015dc:    03a00008    ....    MOVEQ    r0,#8
        0x000015e0:    0b000460    `...    BLEQ     __32__rt_raise  ; 0x2768
        0x000015e4:    e59f50dc    .P..    LDR      r5,0x16c8
        0x000015e8:    e1a02007    . ..    MOV      r2,r7
        0x000015ec:    e28f10d0    ....    ADD      r1,pc,#0xd0 ; #0x16c4
        0x000015f0:    e08f5005    .P..    ADD      r5,pc,r5
        0x000015f4:    e1a00005    ....    MOV      r0,r5
        0x000015f8:    ebffff85    ....    BL       freopen  ; 0x1414
        0x000015fc:    e3500000    ..P.    CMP      r0,#0
        0x00001600:    01a01005    ....    MOVEQ    r1,r5
        0x00001604:    03a00008    ....    MOVEQ    r0,#8
        0x00001608:    0b000456    V...    BLEQ     __32__rt_raise  ; 0x2768
        0x0000160c:    e59f60b8    .`..    LDR      r6,0x16cc
        0x00001610:    e1a02008    . ..    MOV      r2,r8
        0x00001614:    e28f10a8    ....    ADD      r1,pc,#0xa8 ; #0x16c4
        0x00001618:    e08f6006    .`..    ADD      r6,pc,r6
        0x0000161c:    e1a00006    ....    MOV      r0,r6
        0x00001620:    ebffff7b    {...    BL       freopen  ; 0x1414
        0x00001624:    e3500000    ..P.    CMP      r0,#0
        0x00001628:    01a01006    ....    MOVEQ    r1,r6
        0x0000162c:    03a00008    ....    MOVEQ    r0,#8
        0x00001630:    0b00044c    L...    BLEQ     __32__rt_raise  ; 0x2768
        0x00001634:    e3a03040    @0..    MOV      r3,#0x40
        0x00001638:    e3a02f80    ./..    MOV      r2,#0x200
        0x0000163c:    e3a01000    ....    MOV      r1,#0
        0x00001640:    e59f0068    h...    LDR      r0,0x16b0
        0x00001644:    eb000458    X...    BL       setvbuf  ; 0x27ac
        0x00001648:    e3500000    ..P.    CMP      r0,#0
        0x0000164c:    11a01004    ....    MOVNE    r1,r4
        0x00001650:    13a00008    ....    MOVNE    r0,#8
        0x00001654:    1b000443    C...    BLNE     __32__rt_raise  ; 0x2768
        0x00001658:    e3a03040    @0..    MOV      r3,#0x40
        0x0000165c:    e3a02f80    ./..    MOV      r2,#0x200
        0x00001660:    e3a01000    ....    MOV      r1,#0
        0x00001664:    e1a00007    ....    MOV      r0,r7
        0x00001668:    eb00044f    O...    BL       setvbuf  ; 0x27ac
        0x0000166c:    e3500000    ..P.    CMP      r0,#0
        0x00001670:    11a01005    ....    MOVNE    r1,r5
        0x00001674:    13a00008    ....    MOVNE    r0,#8
        0x00001678:    1b00043a    :...    BLNE     __32__rt_raise  ; 0x2768
        0x0000167c:    e3a03010    .0..    MOV      r3,#0x10
        0x00001680:    e3a02f80    ./..    MOV      r2,#0x200
        0x00001684:    e3a01000    ....    MOV      r1,#0
        0x00001688:    e1a00008    ....    MOV      r0,r8
        0x0000168c:    eb000446    F...    BL       setvbuf  ; 0x27ac
        0x00001690:    e3500000    ..P.    CMP      r0,#0
        0x00001694:    11a01006    ....    MOVNE    r1,r6
        0x00001698:    18bd01f0    ....    LDMNEFD  r13!,{r4-r8}
        0x0000169c:    149de004    ....    LDRNE    r14,[r13],#4
        0x000016a0:    13a00008    ....    MOVNE    r0,#8
        0x000016a4:    1a00042f    /...    BNE      __32__rt_raise  ; 0x2768
        0x000016a8:    e8bd01f0    ....    LDMFD    r13!,{r4-r8}
        0x000016ac:    e49df004    ....    LDR      pc,[r13],#4
    $d
        0x000016b0:    00004808    .H..    DCD    18440
        0x000016b4:    0000484c    LH..    DCD    18508
        0x000016b8:    00004890    .H..    DCD    18576
        0x000016bc:    00000072    r...    DCD    114
        0x000016c0:    00003050    P0..    DCD    12368
        0x000016c4:    00000077    w...    DCD    119
        0x000016c8:    00003028    (0..    DCD    12328
        0x000016cc:    00003004    .0..    DCD    12292
    _terminateio
    $a
        0x000016d0:    e92d4038    8@-.    STMFD    r13!,{r3-r5,r14}
        0x000016d4:    e51f5024    $P..    LDR      r5,0x16b8
        0x000016d8:    e51f0030    0...    LDR      r0,0x16b0
        0x000016dc:    e5954040    @@..    LDR      r4,[r5,#0x40]
        0x000016e0:    ebffff1e    ....    BL       fclose  ; 0x1360
        0x000016e4:    e51f0038    8...    LDR      r0,0x16b4
        0x000016e8:    ebffff1c    ....    BL       fclose  ; 0x1360
        0x000016ec:    e1a00005    ....    MOV      r0,r5
        0x000016f0:    ebffff1a    ....    BL       fclose  ; 0x1360
        0x000016f4:    e3540000    ..T.    CMP      r4,#0
        0x000016f8:    08bd8038    8...    LDMEQFD  r13!,{r3-r5,pc}
        0x000016fc:    e5945040    @P..    LDR      r5,[r4,#0x40]
        0x00001700:    e1a00004    ....    MOV      r0,r4
        0x00001704:    ebffff15    ....    BL       fclose  ; 0x1360
        0x00001708:    e1a00004    ....    MOV      r0,r4
        0x0000170c:    eb00031f    ....    BL       free  ; 0x2390
        0x00001710:    e1b04005    .@..    MOVS     r4,r5
        0x00001714:    1afffff8    ....    BNE      0x16fc
        0x00001718:    e8bd8038    8...    LDMFD    r13!,{r3-r5,pc}
    _fp_digits
    .text
        0x0000171c:    e92d4d80    .M-.    STMFD    r13!,{r7,r8,r10,r11,r14}
        0x00001720:    e92d007c    |.-.    STMFD    r13!,{r2-r6}
        0x00001724:    e92d0003    ..-.    STMFD    r13!,{r0,r1}
        0x00001728:    e24dd038    8.M.    SUB      r13,r13,#0x38
        0x0000172c:    e1a00002    ....    MOV      r0,r2
        0x00001730:    e1a06001    .`..    MOV      r6,r1
        0x00001734:    e28d1028    (...    ADD      r1,r13,#0x28
        0x00001738:    e28d2018    . ..    ADD      r2,r13,#0x18
        0x0000173c:    e1a08003    ....    MOV      r8,r3
        0x00001740:    eb000687    ....    BL       __support_dtoi  ; 0x3164
        0x00001744:    e3a01000    ....    MOV      r1,#0
        0x00001748:    e3a00000    ....    MOV      r0,#0
        0x0000174c:    e59d4018    .@..    LDR      r4,[r13,#0x18]
        0x00001750:    eb000b52    R...    BL       __32__ieee_status  ; 0x44a0
        0x00001754:    e59d1028    (...    LDR      r1,[r13,#0x28]
        0x00001758:    e20008c0    ....    AND      r0,r0,#0xc00000
        0x0000175c:    e3110480    ....    TST      r1,#0x80000000
        0x00001760:    10800100    ....    ADDNE    r0,r0,r0,LSL #2
        0x00001764:    13a018c0    ....    MOVNE    r1,#0xc00000
        0x00001768:    100100a0    ....    ANDNE    r0,r1,r0,LSR #1
        0x0000176c:    e1a0bb20     ...    MOV      r11,r0,LSR #22
        0x00001770:    e59d0028    (...    LDR      r0,[r13,#0x28]
        0x00001774:    e35b0001    ..[.    CMP      r11,#1
        0x00001778:    e59d102c    ,...    LDR      r1,[r13,#0x2c]
        0x0000177c:    c3e0b000    ....    MVNGT    r11,#0
        0x00001780:    e3c00480    ....    BIC      r0,r0,#0x80000000
        0x00001784:    e1900001    ....    ORRS     r0,r0,r1
        0x00001788:    1a00001e    ....    BNE      0x1808
        0x0000178c:    e59d0068    h...    LDR      r0,[r13,#0x68]
        0x00001790:    e3500001    ..P.    CMP      r0,#1
        0x00001794:    e3a00000    ....    MOV      r0,#0
        0x00001798:    1a000004    ....    BNE      0x17b0
        0x0000179c:    e58d0020     ...    STR      r0,[r13,#0x20]
        0x000017a0:    e2880001    ....    ADD      r0,r8,#1
        0x000017a4:    e2600000    ..`.    RSB      r0,r0,#0
        0x000017a8:    e58d001c    ....    STR      r0,[r13,#0x1c]
        0x000017ac:    ea000009    ....    B        0x17d8
        0x000017b0:    e3580000    ..X.    CMP      r8,#0
        0x000017b4:    da000004    ....    BLE      0x17cc
        0x000017b8:    e3a01030    0...    MOV      r1,#0x30
        0x000017bc:    e7c61000    ....    STRB     r1,[r6,r0]
        0x000017c0:    e2800001    ....    ADD      r0,r0,#1
        0x000017c4:    e1500008    ..P.    CMP      r0,r8
        0x000017c8:    bafffffb    ....    BLT      0x17bc
        0x000017cc:    e3a00000    ....    MOV      r0,#0
        0x000017d0:    e58d001c    ....    STR      r0,[r13,#0x1c]
        0x000017d4:    e58d8020     ...    STR      r8,[r13,#0x20]
        0x000017d8:    e59d0068    h...    LDR      r0,[r13,#0x68]
        0x000017dc:    e59d1020     ...    LDR      r1,[r13,#0x20]
        0x000017e0:    e58d0024    $...    STR      r0,[r13,#0x24]
        0x000017e4:    e3a00000    ....    MOV      r0,#0
        0x000017e8:    e7c60001    ....    STRB     r0,[r6,r1]
        0x000017ec:    e59d0038    8...    LDR      r0,[r13,#0x38]
        0x000017f0:    e28d101c    ....    ADD      r1,r13,#0x1c
        0x000017f4:    e891001c    ....    LDMIA    r1,{r2-r4}
        0x000017f8:    e880001c    ....    STMIA    r0,{r2-r4}
        0x000017fc:    e28dd048    H...    ADD      r13,r13,#0x48
        0x00001800:    e8bd01f0    ....    LDMFD    r13!,{r4-r8}
        0x00001804:    e8bd8c00    ....    LDMFD    r13!,{r10,r11,pc}
        0x00001808:    e2440fc0    ..D.    SUB      r0,r4,#0x300
        0x0000180c:    e3a01ed1    ....    MOV      r1,#0xd10
        0x00001810:    e2811c40    @...    ADD      r1,r1,#0x4000
        0x00001814:    e24000ff    ..@.    SUB      r0,r0,#0xff
        0x00001818:    e0000091    ....    MUL      r0,r1,r0
        0x0000181c:    e26b2000    . k.    RSB      r2,r11,#0
        0x00001820:    e58d2034    4 ..    STR      r2,[r13,#0x34]
        0x00001824:    e1a0a840    @...    MOV      r10,r0,ASR #16
        0x00001828:    e59d0068    h...    LDR      r0,[r13,#0x68]
        0x0000182c:    e28d5010    .P..    ADD      r5,r13,#0x10
        0x00001830:    e3500000    ..P.    CMP      r0,#0
        0x00001834:    028a0001    ....    ADDEQ    r0,r10,#1
        0x00001838:    00404008    .@@.    SUBEQ    r4,r0,r8
        0x0000183c:    12684000    .@h.    RSBNE    r4,r8,#0
        0x00001840:    e3540000    ..T.    CMP      r4,#0
        0x00001844:    e1a01004    ....    MOV      r1,r4
        0x00001848:    b2611000    ..a.    RSBLT    r1,r1,#0
        0x0000184c:    d1a0200b    . ..    MOVLE    r2,r11
        0x00001850:    c59d2034    4 ..    LDRGT    r2,[r13,#0x34]
        0x00001854:    e1a00005    ....    MOV      r0,r5
        0x00001858:    eb0004fc    ....    BL       _btod_etento  ; 0x2c50
        0x0000185c:    e28d1028    (...    ADD      r1,r13,#0x28
        0x00001860:    e8910003    ....    LDMIA    r1,{r0,r1}
        0x00001864:    eb000745    E...    BL       _btod_d2e  ; 0x3580
        0x00001868:    e98d0007    ....    STMIB    r13,{r0-r2}
        0x0000186c:    e2400d80    ..@.    SUB      r0,r0,#0x2000
        0x00001870:    e240001f    ..@.    SUB      r0,r0,#0x1f
        0x00001874:    e58d0004    ....    STR      r0,[r13,#4]
        0x00001878:    e59d0010    ....    LDR      r0,[r13,#0x10]
        0x0000187c:    e3540000    ..T.    CMP      r4,#0
        0x00001880:    da000008    ....    BLE      0x18a8
        0x00001884:    e2800d80    ....    ADD      r0,r0,#0x2000
        0x00001888:    e280001f    ....    ADD      r0,r0,#0x1f
        0x0000188c:    e58d0010    ....    STR      r0,[r13,#0x10]
        0x00001890:    e28d0004    ....    ADD      r0,r13,#4
        0x00001894:    e1a0200b    . ..    MOV      r2,r11
        0x00001898:    e1a01005    ....    MOV      r1,r5
        0x0000189c:    eb000780    ....    BL       _btod_ediv  ; 0x36a4
        0x000018a0:    e98d0007    ....    STMIB    r13,{r0-r2}
        0x000018a4:    ea000007    ....    B        0x18c8
        0x000018a8:    e2400d80    ..@.    SUB      r0,r0,#0x2000
        0x000018ac:    e240001f    ..@.    SUB      r0,r0,#0x1f
        0x000018b0:    e58d0010    ....    STR      r0,[r13,#0x10]
        0x000018b4:    e28d0004    ....    ADD      r0,r13,#4
        0x000018b8:    e1a0200b    . ..    MOV      r2,r11
        0x000018bc:    e1a01005    ....    MOV      r1,r5
        0x000018c0:    eb00076b    k...    BL       _btod_emul  ; 0x3674
        0x000018c4:    e98d0007    ....    STMIB    r13,{r0-r2}
        0x000018c8:    e59d0004    ....    LDR      r0,[r13,#4]
        0x000018cc:    e1a00800    ....    MOV      r0,r0,LSL #16
        0x000018d0:    e1b00820     ...    MOVS     r0,r0,LSR #16
        0x000018d4:    059d400c    .@..    LDREQ    r4,[r13,#0xc]
        0x000018d8:    059d5008    .P..    LDREQ    r5,[r13,#8]
        0x000018dc:    128f0f69    i...    ADDNE    r0,pc,#0x1a4 ; #0x1a88
        0x000018e0:    14904004    .@..    LDRNE    r4,[r0],#4
        0x000018e4:    15905000    .P..    LDRNE    r5,[r0,#0]
        0x000018e8:    e59d0068    h...    LDR      r0,[r13,#0x68]
        0x000018ec:    e3500000    ..P.    CMP      r0,#0
        0x000018f0:    1a00002a    *...    BNE      0x19a0
        0x000018f4:    e2587001    .pX.    SUBS     r7,r8,#1
        0x000018f8:    4a00000b    ...J    BMI      0x192c
        0x000018fc:    e1a01005    ....    MOV      r1,r5
        0x00001900:    e1a00004    ....    MOV      r0,r4
        0x00001904:    eb00031b    ....    BL       _ll_udiv10  ; 0x2578
        0x00001908:    e1a04000    .@..    MOV      r4,r0
        0x0000190c:    e1a00002    ....    MOV      r0,r2
        0x00001910:    e3a02030    0 ..    MOV      r2,#0x30
        0x00001914:    e0900002    ....    ADDS     r0,r0,r2
        0x00001918:    e1a05001    .P..    MOV      r5,r1
        0x0000191c:    e2a31000    ....    ADC      r1,r3,#0
        0x00001920:    e7c60007    ....    STRB     r0,[r6,r7]
        0x00001924:    e2577001    .pW.    SUBS     r7,r7,#1
        0x00001928:    5afffff3    ...Z    BPL      0x18fc
        0x0000192c:    e28f0f57    W...    ADD      r0,pc,#0x15c ; #0x1a90
        0x00001930:    e58d8020     ...    STR      r8,[r13,#0x20]
        0x00001934:    e890000c    ....    LDMIA    r0,{r2,r3}
        0x00001938:    e1a00004    ....    MOV      r0,r4
        0x0000193c:    e1550003    ..U.    CMP      r5,r3
        0x00001940:    01500002    ..P.    CMPEQ    r0,r2
        0x00001944:    e3a07001    .p..    MOV      r7,#1
        0x00001948:    13a07000    .p..    MOVNE    r7,#0
        0x0000194c:    128aa001    ....    ADDNE    r10,r10,#1
        0x00001950:    1a000003    ....    BNE      0x1964
        0x00001954:    e5d60000    ....    LDRB     r0,[r6,#0]
        0x00001958:    e3500030    0.P.    CMP      r0,#0x30
        0x0000195c:    03a07000    .p..    MOVEQ    r7,#0
        0x00001960:    024aa001    ..J.    SUBEQ    r10,r10,#1
        0x00001964:    e3570000    ..W.    CMP      r7,#0
        0x00001968:    e58da01c    ....    STR      r10,[r13,#0x1c]
        0x0000196c:    0affffad    ....    BEQ      0x1828
        0x00001970:    e59d0068    h...    LDR      r0,[r13,#0x68]
        0x00001974:    e59d1020     ...    LDR      r1,[r13,#0x20]
        0x00001978:    e58d0024    $...    STR      r0,[r13,#0x24]
        0x0000197c:    e3a00000    ....    MOV      r0,#0
        0x00001980:    e7c60001    ....    STRB     r0,[r6,r1]
        0x00001984:    e59d0038    8...    LDR      r0,[r13,#0x38]
        0x00001988:    e28d101c    ....    ADD      r1,r13,#0x1c
        0x0000198c:    e891001c    ....    LDMIA    r1,{r2-r4}
        0x00001990:    e880001c    ....    STMIA    r0,{r2-r4}
        0x00001994:    e28dd048    H...    ADD      r13,r13,#0x48
        0x00001998:    e8bd01f0    ....    LDMFD    r13!,{r4-r8}
        0x0000199c:    e8bd8c00    ....    LDMFD    r13!,{r10,r11,pc}
        0x000019a0:    e3a00000    ....    MOV      r0,#0
        0x000019a4:    e58d0030    0...    STR      r0,[r13,#0x30]
        0x000019a8:    e28f00e0    ....    ADD      r0,pc,#0xe0 ; #0x1a90
        0x000019ac:    e890000c    ....    LDMIA    r0,{r2,r3}
        0x000019b0:    e1a00004    ....    MOV      r0,r4
        0x000019b4:    e1550003    ..U.    CMP      r5,r3
        0x000019b8:    01500002    ..P.    CMPEQ    r0,r2
        0x000019bc:    e3a07000    .p..    MOV      r7,#0
        0x000019c0:    0a000013    ....    BEQ      0x1a14
        0x000019c4:    ea000001    ....    B        0x19d0
        0x000019c8:    e3570011    ..W.    CMP      r7,#0x11
        0x000019cc:    aa000010    ....    BGE      0x1a14
        0x000019d0:    e1a01005    ....    MOV      r1,r5
        0x000019d4:    e1a00004    ....    MOV      r0,r4
        0x000019d8:    eb0002e6    ....    BL       _ll_udiv10  ; 0x2578
        0x000019dc:    e1a04000    .@..    MOV      r4,r0
        0x000019e0:    e1a00002    ....    MOV      r0,r2
        0x000019e4:    e3a02030    0 ..    MOV      r2,#0x30
        0x000019e8:    e0900002    ....    ADDS     r0,r0,r2
        0x000019ec:    e7c60007    ....    STRB     r0,[r6,r7]
        0x000019f0:    e1a05001    .P..    MOV      r5,r1
        0x000019f4:    e2a31000    ....    ADC      r1,r3,#0
        0x000019f8:    e28f0090    ....    ADD      r0,pc,#0x90 ; #0x1a90
        0x000019fc:    e890000c    ....    LDMIA    r0,{r2,r3}
        0x00001a00:    e1a00004    ....    MOV      r0,r4
        0x00001a04:    e1550003    ..U.    CMP      r5,r3
        0x00001a08:    01500002    ..P.    CMPEQ    r0,r2
        0x00001a0c:    e2877001    .p..    ADD      r7,r7,#1
        0x00001a10:    1affffec    ....    BNE      0x19c8
        0x00001a14:    e28f0074    t...    ADD      r0,pc,#0x74 ; #0x1a90
        0x00001a18:    e890000c    ....    LDMIA    r0,{r2,r3}
        0x00001a1c:    e1a00004    ....    MOV      r0,r4
        0x00001a20:    e1550003    ..U.    CMP      r5,r3
        0x00001a24:    01500002    ..P.    CMPEQ    r0,r2
        0x00001a28:    1a000010    ....    BNE      0x1a70
        0x00001a2c:    e2470001    ..G.    SUB      r0,r7,#1
        0x00001a30:    e3500000    ..P.    CMP      r0,#0
        0x00001a34:    e3a01000    ....    MOV      r1,#0
        0x00001a38:    da000007    ....    BLE      0x1a5c
        0x00001a3c:    e7d63000    .0..    LDRB     r3,[r6,r0]
        0x00001a40:    e7d62001    . ..    LDRB     r2,[r6,r1]
        0x00001a44:    e7c63001    .0..    STRB     r3,[r6,r1]
        0x00001a48:    e7c62000    . ..    STRB     r2,[r6,r0]
        0x00001a4c:    e2400001    ..@.    SUB      r0,r0,#1
        0x00001a50:    e2811001    ....    ADD      r1,r1,#1
        0x00001a54:    e1510000    ..Q.    CMP      r1,r0
        0x00001a58:    bafffff7    ....    BLT      0x1a3c
        0x00001a5c:    e0470008    ..G.    SUB      r0,r7,r8
        0x00001a60:    e2400001    ..@.    SUB      r0,r0,#1
        0x00001a64:    e58d001c    ....    STR      r0,[r13,#0x1c]
        0x00001a68:    e58d7020     p..    STR      r7,[r13,#0x20]
        0x00001a6c:    eaffffbf    ....    B        0x1970
        0x00001a70:    e59d0030    0...    LDR      r0,[r13,#0x30]
        0x00001a74:    e3500000    ..P.    CMP      r0,#0
        0x00001a78:    03a08011    ....    MOVEQ    r8,#0x11
        0x00001a7c:    058d0068    h...    STREQ    r0,[r13,#0x68]
        0x00001a80:    0affff68    h...    BEQ      0x1828
        0x00001a84:    eaffffb9    ....    B        0x1970
    $d
        0x00001a88:    ffffffff    ....    DCD    4294967295
        0x00001a8c:    7fffffff    ....    DCD    2147483647
        0x00001a90:    00000000    ....    DCD    0
        0x00001a94:    00000000    ....    DCD    0
    _fp_display
    $a
        0x00001a98:    e92d4d80    .M-.    STMFD    r13!,{r7,r8,r10,r11,r14}
        0x00001a9c:    e92d0070    p.-.    STMFD    r13!,{r4-r6}
        0x00001aa0:    e24dd018    ..M.    SUB      r13,r13,#0x18
        0x00001aa4:    e5927000    .p..    LDR      r7,[r2,#0]
        0x00001aa8:    e1a05002    .P..    MOV      r5,r2
        0x00001aac:    e1a04001    .@..    MOV      r4,r1
        0x00001ab0:    e1a08000    ....    MOV      r8,r0
        0x00001ab4:    eb000549    I...    BL       __user_libspace  ; 0x2fe0
        0x00001ab8:    e590002c    ,...    LDR      r0,[r0,#0x2c]
        0x00001abc:    e5901000    ....    LDR      r1,[r0,#0]
        0x00001ac0:    e7d06001    .`..    LDRB     r6,[r0,r1]
        0x00001ac4:    e2850014    ....    ADD      r0,r5,#0x14
        0x00001ac8:    e1a0a000    ....    MOV      r10,r0
        0x00001acc:    e28d1008    ....    ADD      r1,r13,#8
        0x00001ad0:    eb000591    ....    BL       __mathlib_classify  ; 0x311c
        0x00001ad4:    e59d1008    ....    LDR      r1,[r13,#8]
        0x00001ad8:    e3510000    ..Q.    CMP      r1,#0
        0x00001adc:    128f1fbf    ....    ADDNE    r1,pc,#0x2fc ; #0x1de0
        0x00001ae0:    1a000005    ....    BNE      0x1afc
        0x00001ae4:    e3170002    ....    TST      r7,#2
        0x00001ae8:    128f1fbd    ....    ADDNE    r1,pc,#0x2f4 ; #0x1de4
        0x00001aec:    1a000002    ....    BNE      0x1afc
        0x00001af0:    e3170004    ....    TST      r7,#4
        0x00001af4:    028f1fbb    ....    ADDEQ    r1,pc,#0x2ec ; #0x1de8
        0x00001af8:    128f1fbb    ....    ADDNE    r1,pc,#0x2ec ; #0x1dec
        0x00001afc:    e5851004    ....    STR      r1,[r5,#4]
        0x00001b00:    e3a01000    ....    MOV      r1,#0
        0x00001b04:    e3500000    ..P.    CMP      r0,#0
        0x00001b08:    0a00000f    ....    BEQ      0x1b4c
        0x00001b0c:    e3500001    ..P.    CMP      r0,#1
        0x00001b10:    128f0fb6    ....    ADDNE    r0,pc,#0x2d8 ; #0x1df0
        0x00001b14:    028f0fb6    ....    ADDEQ    r0,pc,#0x2d8 ; #0x1df4
        0x00001b18:    e5d02000    . ..    LDRB     r2,[r0,#0]
        0x00001b1c:    e5c42000    . ..    STRB     r2,[r4,#0]
        0x00001b20:    e5d02001    . ..    LDRB     r2,[r0,#1]
        0x00001b24:    e5c42001    . ..    STRB     r2,[r4,#1]
        0x00001b28:    e5d00002    ....    LDRB     r0,[r0,#2]
        0x00001b2c:    e5c40002    ....    STRB     r0,[r4,#2]
        0x00001b30:    e5c41003    ....    STRB     r1,[r4,#3]
        0x00001b34:    e3c70f40    @...    BIC      r0,r7,#0x100
        0x00001b38:    e5850000    ....    STR      r0,[r5,#0]
        0x00001b3c:    e28dd018    ....    ADD      r13,r13,#0x18
        0x00001b40:    e8bd01f0    ....    LDMFD    r13!,{r4-r8}
        0x00001b44:    e3a00003    ....    MOV      r0,#3
        0x00001b48:    e8bd8c00    ....    LDMFD    r13!,{r10,r11,pc}
        0x00001b4c:    e3580045    E.X.    CMP      r8,#0x45
        0x00001b50:    13580065    e.X.    CMPNE    r8,#0x65
        0x00001b54:    e2841001    ....    ADD      r1,r4,#1
        0x00001b58:    e28d000c    ....    ADD      r0,r13,#0xc
        0x00001b5c:    e3a0b03e    >...    MOV      r11,#0x3e
        0x00001b60:    e3a02011    . ..    MOV      r2,#0x11
        0x00001b64:    0a0000ea    ....    BEQ      0x1f14
        0x00001b68:    e3580066    f.X.    CMP      r8,#0x66
        0x00001b6c:    1a00007f    ....    BNE      0x1d70
        0x00001b70:    e3a03001    .0..    MOV      r3,#1
        0x00001b74:    e58d3000    .0..    STR      r3,[r13,#0]
        0x00001b78:    e5953008    .0..    LDR      r3,[r5,#8]
        0x00001b7c:    e1a0200a    . ..    MOV      r2,r10
        0x00001b80:    ebfffee5    ....    BL       _fp_digits  ; 0x171c
        0x00001b84:    e3a02030    0 ..    MOV      r2,#0x30
        0x00001b88:    e5c42000    . ..    STRB     r2,[r4,#0]
        0x00001b8c:    e59d100c    ....    LDR      r1,[r13,#0xc]
        0x00001b90:    e3a0303c    <0..    MOV      r3,#0x3c
        0x00001b94:    e3510000    ..Q.    CMP      r1,#0
        0x00001b98:    aa000034    4...    BGE      0x1c70
        0x00001b9c:    e5950008    ....    LDR      r0,[r5,#8]
        0x00001ba0:    e2611000    ..a.    RSB      r1,r1,#0
        0x00001ba4:    e280c001    ....    ADD      r12,r0,#1
        0x00001ba8:    e15c0001    ..\.    CMP      r12,r1
        0x00001bac:    aa000004    ....    BGE      0x1bc4
        0x00001bb0:    e5c46001    .`..    STRB     r6,[r4,#1]
        0x00001bb4:    e5951008    ....    LDR      r1,[r5,#8]
        0x00001bb8:    e3a00002    ....    MOV      r0,#2
        0x00001bbc:    e5851010    ....    STR      r1,[r5,#0x10]
        0x00001bc0:    ea000024    $...    B        0x1c58
        0x00001bc4:    e0400001    ..@.    SUB      r0,r0,r1
        0x00001bc8:    e280c002    ....    ADD      r12,r0,#2
        0x00001bcc:    e59d0010    ....    LDR      r0,[r13,#0x10]
        0x00001bd0:    e2800001    ....    ADD      r0,r0,#1
        0x00001bd4:    e150000c    ..P.    CMP      r0,r12
        0x00001bd8:    b04cc000    ..L.    SUBLT    r12,r12,r0
        0x00001bdc:    b585c010    ....    STRLT    r12,[r5,#0x10]
        0x00001be0:    b1a0c000    ....    MOVLT    r12,r0
        0x00001be4:    e1a0000c    ....    MOV      r0,r12
        0x00001be8:    e3510001    ..Q.    CMP      r1,#1
        0x00001bec:    1a00000b    ....    BNE      0x1c20
        0x00001bf0:    e3500000    ..P.    CMP      r0,#0
        0x00001bf4:    da000005    ....    BLE      0x1c10
        0x00001bf8:    e7d41000    ....    LDRB     r1,[r4,r0]
        0x00001bfc:    e0843000    .0..    ADD      r3,r4,r0
        0x00001c00:    e2400001    ..@.    SUB      r0,r0,#1
        0x00001c04:    e3500000    ..P.    CMP      r0,#0
        0x00001c08:    e5c31001    ....    STRB     r1,[r3,#1]
        0x00001c0c:    cafffff9    ....    BGT      0x1bf8
        0x00001c10:    e5c42000    . ..    STRB     r2,[r4,#0]
        0x00001c14:    e5c46001    .`..    STRB     r6,[r4,#1]
        0x00001c18:    e28c0001    ....    ADD      r0,r12,#1
        0x00001c1c:    ea00000d    ....    B        0x1c58
        0x00001c20:    e3500000    ..P.    CMP      r0,#0
        0x00001c24:    da000005    ....    BLE      0x1c40
        0x00001c28:    e7d4e000    ....    LDRB     r14,[r4,r0]
        0x00001c2c:    e0848000    ....    ADD      r8,r4,r0
        0x00001c30:    e2400001    ..@.    SUB      r0,r0,#1
        0x00001c34:    e3500000    ..P.    CMP      r0,#0
        0x00001c38:    e5c8e002    ....    STRB     r14,[r8,#2]
        0x00001c3c:    cafffff9    ....    BGT      0x1c28
        0x00001c40:    e5c42000    . ..    STRB     r2,[r4,#0]
        0x00001c44:    e5c46001    .`..    STRB     r6,[r4,#1]
        0x00001c48:    e5c43002    .0..    STRB     r3,[r4,#2]
        0x00001c4c:    e2411001    ..A.    SUB      r1,r1,#1
        0x00001c50:    e585100c    ....    STR      r1,[r5,#0xc]
        0x00001c54:    e28c0002    ....    ADD      r0,r12,#2
        0x00001c58:    e5951010    ....    LDR      r1,[r5,#0x10]
        0x00001c5c:    e3510000    ..Q.    CMP      r1,#0
        0x00001c60:    c1a01000    ....    MOVGT    r1,r0
        0x00001c64:    c7c4b001    ....    STRGTB   r11,[r4,r1]
        0x00001c68:    c2800001    ....    ADDGT    r0,r0,#1
        0x00001c6c:    ea000038    8...    B        0x1d54
        0x00001c70:    e5950008    ....    LDR      r0,[r5,#8]
        0x00001c74:    e0800001    ....    ADD      r0,r0,r1
        0x00001c78:    e2800002    ....    ADD      r0,r0,#2
        0x00001c7c:    e3500012    ..P.    CMP      r0,#0x12
        0x00001c80:    da00002a    *...    BLE      0x1d30
        0x00001c84:    e3a00012    ....    MOV      r0,#0x12
        0x00001c88:    e3510011    ..Q.    CMP      r1,#0x11
        0x00001c8c:    e3a02000    . ..    MOV      r2,#0
        0x00001c90:    aa00000f    ....    BGE      0x1cd4
        0x00001c94:    e0843002    .0..    ADD      r3,r4,r2
        0x00001c98:    e5d33001    .0..    LDRB     r3,[r3,#1]
        0x00001c9c:    e7c43002    .0..    STRB     r3,[r4,r2]
        0x00001ca0:    e2822001    . ..    ADD      r2,r2,#1
        0x00001ca4:    e1520001    ..R.    CMP      r2,r1
        0x00001ca8:    dafffff9    ....    BLE      0x1c94
        0x00001cac:    e0842001    . ..    ADD      r2,r4,r1
        0x00001cb0:    e5c26001    .`..    STRB     r6,[r2,#1]
        0x00001cb4:    e5952008    . ..    LDR      r2,[r5,#8]
        0x00001cb8:    e0821001    ....    ADD      r1,r2,r1
        0x00001cbc:    e2511011    ..Q.    SUBS     r1,r1,#0x11
        0x00001cc0:    e5851010    ....    STR      r1,[r5,#0x10]
        0x00001cc4:    11a01000    ....    MOVNE    r1,r0
        0x00001cc8:    17c4b001    ....    STRNEB   r11,[r4,r1]
        0x00001ccc:    12800001    ....    ADDNE    r0,r0,#1
        0x00001cd0:    ea00001f    ....    B        0x1d54
        0x00001cd4:    e240e001    ..@.    SUB      r14,r0,#1
        0x00001cd8:    e084c002    ....    ADD      r12,r4,r2
        0x00001cdc:    e5dcc001    ....    LDRB     r12,[r12,#1]
        0x00001ce0:    e7c4c002    ....    STRB     r12,[r4,r2]
        0x00001ce4:    e2822001    . ..    ADD      r2,r2,#1
        0x00001ce8:    e152000e    ..R.    CMP      r2,r14
        0x00001cec:    bafffff9    ....    BLT      0x1cd8
        0x00001cf0:    e0842000    . ..    ADD      r2,r4,r0
        0x00001cf4:    e0411000    ..A.    SUB      r1,r1,r0
        0x00001cf8:    e2811002    ....    ADD      r1,r1,#2
        0x00001cfc:    e5423001    .0B.    STRB     r3,[r2,#-1]
        0x00001d00:    e585100c    ....    STR      r1,[r5,#0xc]
        0x00001d04:    e1a01000    ....    MOV      r1,r0
        0x00001d08:    e7c46001    .`..    STRB     r6,[r4,r1]
        0x00001d0c:    e5951008    ....    LDR      r1,[r5,#8]
        0x00001d10:    e2800001    ....    ADD      r0,r0,#1
        0x00001d14:    e3510000    ..Q.    CMP      r1,#0
        0x00001d18:    0a00000d    ....    BEQ      0x1d54
        0x00001d1c:    e5851010    ....    STR      r1,[r5,#0x10]
        0x00001d20:    e1a01000    ....    MOV      r1,r0
        0x00001d24:    e7c4b001    ....    STRB     r11,[r4,r1]
        0x00001d28:    e2800001    ....    ADD      r0,r0,#1
        0x00001d2c:    ea000008    ....    B        0x1d54
        0x00001d30:    e3a02000    . ..    MOV      r2,#0
        0x00001d34:    e0843002    .0..    ADD      r3,r4,r2
        0x00001d38:    e5d33001    .0..    LDRB     r3,[r3,#1]
        0x00001d3c:    e7c43002    .0..    STRB     r3,[r4,r2]
        0x00001d40:    e2822001    . ..    ADD      r2,r2,#1
        0x00001d44:    e1520001    ..R.    CMP      r2,r1
        0x00001d48:    dafffff9    ....    BLE      0x1d34
        0x00001d4c:    e0841001    ....    ADD      r1,r4,r1
        0x00001d50:    e5c16001    .`..    STRB     r6,[r1,#1]
        0x00001d54:    e5951008    ....    LDR      r1,[r5,#8]
        0x00001d58:    e2072008    . ..    AND      r2,r7,#8
        0x00001d5c:    e28dd018    ....    ADD      r13,r13,#0x18
        0x00001d60:    e1911002    ....    ORRS     r1,r1,r2
        0x00001d64:    02400001    ..@.    SUBEQ    r0,r0,#1
        0x00001d68:    e8bd01f0    ....    LDMFD    r13!,{r4-r8}
        0x00001d6c:    e8bd8c00    ....    LDMFD    r13!,{r10,r11,pc}
        0x00001d70:    e5952008    . ..    LDR      r2,[r5,#8]
        0x00001d74:    e3520001    ..R.    CMP      r2,#1
        0x00001d78:    b3a02001    . ..    MOVLT    r2,#1
        0x00001d7c:    b5852008    . ..    STRLT    r2,[r5,#8]
        0x00001d80:    ba000002    ....    BLT      0x1d90
        0x00001d84:    e3520011    ..R.    CMP      r2,#0x11
        0x00001d88:    c3a02011    . ..    MOVGT    r2,#0x11
        0x00001d8c:    ca000000    ....    BGT      0x1d94
        0x00001d90:    e5952008    . ..    LDR      r2,[r5,#8]
        0x00001d94:    e3a03000    .0..    MOV      r3,#0
        0x00001d98:    e58d3000    .0..    STR      r3,[r13,#0]
        0x00001d9c:    e1a03002    .0..    MOV      r3,r2
        0x00001da0:    e1a0200a    . ..    MOV      r2,r10
        0x00001da4:    ebfffe5c    \...    BL       _fp_digits  ; 0x171c
        0x00001da8:    e59d0010    ....    LDR      r0,[r13,#0x10]
        0x00001dac:    e3a0c030    0...    MOV      r12,#0x30
        0x00001db0:    e5c4c000    ....    STRB     r12,[r4,#0]
        0x00001db4:    e59d200c    . ..    LDR      r2,[r13,#0xc]
        0x00001db8:    e5951008    ....    LDR      r1,[r5,#8]
        0x00001dbc:    e2800001    ....    ADD      r0,r0,#1
        0x00001dc0:    e1510002    ..Q.    CMP      r1,r2
        0x00001dc4:    da000001    ....    BLE      0x1dd0
        0x00001dc8:    e3720004    ..r.    CMN      r2,#4
        0x00001dcc:    aa000009    ....    BGE      $a  ; 0x1df8
        0x00001dd0:    e5d41001    ....    LDRB     r1,[r4,#1]
        0x00001dd4:    e5c41000    ....    STRB     r1,[r4,#0]
        0x00001dd8:    e5c46001    .`..    STRB     r6,[r4,#1]
        0x00001ddc:    ea000024    $...    B        0x1e74
    $d
        0x00001de0:    0000002d    -...    DCD    45
        0x00001de4:    0000002b    +...    DCD    43
        0x00001de8:    00000000    ....    DCD    0
        0x00001dec:    00000020     ...    DCD    32
        0x00001df0:    00666e49    Inf.    DCD    6712905
        0x00001df4:    004e614e    NaN.    DCD    5136718
    $a
        0x00001df8:    e3a08066    f...    MOV      r8,#0x66
        0x00001dfc:    e3520000    ..R.    CMP      r2,#0
        0x00001e00:    ba000009    ....    BLT      0x1e2c
        0x00001e04:    e3a01000    ....    MOV      r1,#0
        0x00001e08:    e0843001    .0..    ADD      r3,r4,r1
        0x00001e0c:    e5d33001    .0..    LDRB     r3,[r3,#1]
        0x00001e10:    e7c43001    .0..    STRB     r3,[r4,r1]
        0x00001e14:    e2811001    ....    ADD      r1,r1,#1
        0x00001e18:    e1510002    ..Q.    CMP      r1,r2
        0x00001e1c:    dafffff9    ....    BLE      0x1e08
        0x00001e20:    e0841002    ....    ADD      r1,r4,r2
        0x00001e24:    e5c16001    .`..    STRB     r6,[r1,#1]
        0x00001e28:    ea000011    ....    B        0x1e74
        0x00001e2c:    e2622000    . b.    RSB      r2,r2,#0
        0x00001e30:    e1a01000    ....    MOV      r1,r0
        0x00001e34:    e3500000    ..P.    CMP      r0,#0
        0x00001e38:    ba000004    ....    BLT      0x1e50
        0x00001e3c:    e7d43001    .0..    LDRB     r3,[r4,r1]
        0x00001e40:    e081e002    ....    ADD      r14,r1,r2
        0x00001e44:    e2511001    ..Q.    SUBS     r1,r1,#1
        0x00001e48:    e7c4300e    .0..    STRB     r3,[r4,r14]
        0x00001e4c:    5afffffa    ...Z    BPL      0x1e3c
        0x00001e50:    e0800002    ....    ADD      r0,r0,r2
        0x00001e54:    e3a01000    ....    MOV      r1,#0
        0x00001e58:    e3520000    ..R.    CMP      r2,#0
        0x00001e5c:    ba000003    ....    BLT      0x1e70
        0x00001e60:    e7c4c001    ....    STRB     r12,[r4,r1]
        0x00001e64:    e2811001    ....    ADD      r1,r1,#1
        0x00001e68:    e1510002    ..Q.    CMP      r1,r2
        0x00001e6c:    dafffffb    ....    BLE      0x1e60
        0x00001e70:    e5c46001    .`..    STRB     r6,[r4,#1]
        0x00001e74:    e3170008    ....    TST      r7,#8
        0x00001e78:    1a000012    ....    BNE      0x1ec8
        0x00001e7c:    e3e01000    ....    MVN      r1,#0
        0x00001e80:    e5851010    ....    STR      r1,[r5,#0x10]
        0x00001e84:    e7d41000    ....    LDRB     r1,[r4,r0]
        0x00001e88:    e1510006    ..Q.    CMP      r1,r6
        0x00001e8c:    0a000008    ....    BEQ      0x1eb4
        0x00001e90:    e0841000    ....    ADD      r1,r4,r0
        0x00001e94:    e5511001    ..Q.    LDRB     r1,[r1,#-1]
        0x00001e98:    e3510030    0.Q.    CMP      r1,#0x30
        0x00001e9c:    1a000004    ....    BNE      0x1eb4
        0x00001ea0:    e2400001    ..@.    SUB      r0,r0,#1
        0x00001ea4:    e0841000    ....    ADD      r1,r4,r0
        0x00001ea8:    e5511001    ..Q.    LDRB     r1,[r1,#-1]
        0x00001eac:    e3510030    0.Q.    CMP      r1,#0x30
        0x00001eb0:    0afffffa    ....    BEQ      0x1ea0
        0x00001eb4:    e0841000    ....    ADD      r1,r4,r0
        0x00001eb8:    e5511001    ..Q.    LDRB     r1,[r1,#-1]
        0x00001ebc:    e1510006    ..Q.    CMP      r1,r6
        0x00001ec0:    02400001    ..@.    SUBEQ    r0,r0,#1
        0x00001ec4:    ea000007    ....    B        0x1ee8
        0x00001ec8:    e5951008    ....    LDR      r1,[r5,#8]
        0x00001ecc:    e3510011    ..Q.    CMP      r1,#0x11
        0x00001ed0:    da000004    ....    BLE      0x1ee8
        0x00001ed4:    e2411011    ..A.    SUB      r1,r1,#0x11
        0x00001ed8:    e5851010    ....    STR      r1,[r5,#0x10]
        0x00001edc:    e1a01000    ....    MOV      r1,r0
        0x00001ee0:    e7c4b001    ....    STRB     r11,[r4,r1]
        0x00001ee4:    e2800001    ....    ADD      r0,r0,#1
        0x00001ee8:    e3580066    f.X.    CMP      r8,#0x66
        0x00001eec:    028dd018    ....    ADDEQ    r13,r13,#0x18
        0x00001ef0:    08bd01f0    ....    LDMEQFD  r13!,{r4-r8}
        0x00001ef4:    08bd8c00    ....    LDMEQFD  r13!,{r10,r11,pc}
        0x00001ef8:    e1a01000    ....    MOV      r1,r0
        0x00001efc:    e1a00004    ....    MOV      r0,r4
        0x00001f00:    e2483002    .0H.    SUB      r3,r8,#2
        0x00001f04:    eb000022    "...    BL       _fp_addexp  ; 0x1f94
        0x00001f08:    e28dd018    ....    ADD      r13,r13,#0x18
        0x00001f0c:    e8bd01f0    ....    LDMFD    r13!,{r4-r8}
        0x00001f10:    e8bd8c00    ....    LDMFD    r13!,{r10,r11,pc}
        0x00001f14:    e5953008    .0..    LDR      r3,[r5,#8]
        0x00001f18:    e3530011    ..S.    CMP      r3,#0x11
        0x00001f1c:    c2433011    .0C.    SUBGT    r3,r3,#0x11
        0x00001f20:    c5852008    . ..    STRGT    r2,[r5,#8]
        0x00001f24:    c5853010    .0..    STRGT    r3,[r5,#0x10]
        0x00001f28:    e3a03000    .0..    MOV      r3,#0
        0x00001f2c:    e58d3000    .0..    STR      r3,[r13,#0]
        0x00001f30:    e5952008    . ..    LDR      r2,[r5,#8]
        0x00001f34:    e2823001    .0..    ADD      r3,r2,#1
        0x00001f38:    e1a0200a    . ..    MOV      r2,r10
        0x00001f3c:    ebfffdf6    ....    BL       _fp_digits  ; 0x171c
        0x00001f40:    e59d0010    ....    LDR      r0,[r13,#0x10]
        0x00001f44:    e59d200c    . ..    LDR      r2,[r13,#0xc]
        0x00001f48:    e2801001    ....    ADD      r1,r0,#1
        0x00001f4c:    e5d40001    ....    LDRB     r0,[r4,#1]
        0x00001f50:    e2073008    .0..    AND      r3,r7,#8
        0x00001f54:    e5c40000    ....    STRB     r0,[r4,#0]
        0x00001f58:    e5950008    ....    LDR      r0,[r5,#8]
        0x00001f5c:    e1900003    ....    ORRS     r0,r0,r3
        0x00001f60:    15c46001    .`..    STRNEB   r6,[r4,#1]
        0x00001f64:    e5950010    ....    LDR      r0,[r5,#0x10]
        0x00001f68:    03a01001    ....    MOVEQ    r1,#1
        0x00001f6c:    e3500000    ..P.    CMP      r0,#0
        0x00001f70:    c1a00001    ....    MOVGT    r0,r1
        0x00001f74:    c7c4b000    ....    STRGTB   r11,[r4,r0]
        0x00001f78:    e1a00004    ....    MOV      r0,r4
        0x00001f7c:    c2811001    ....    ADDGT    r1,r1,#1
        0x00001f80:    e1a03008    .0..    MOV      r3,r8
        0x00001f84:    eb000002    ....    BL       _fp_addexp  ; 0x1f94
        0x00001f88:    e28dd018    ....    ADD      r13,r13,#0x18
        0x00001f8c:    e8bd01f0    ....    LDMFD    r13!,{r4-r8}
        0x00001f90:    e8bd8c00    ....    LDMFD    r13!,{r10,r11,pc}
    _fp_addexp
        0x00001f94:    e92d4038    8@-.    STMFD    r13!,{r3-r5,r14}
        0x00001f98:    e1a04000    .@..    MOV      r4,r0
        0x00001f9c:    e1a00002    ....    MOV      r0,r2
        0x00001fa0:    e3500000    ..P.    CMP      r0,#0
        0x00001fa4:    e2812001    . ..    ADD      r2,r1,#1
        0x00001fa8:    e7c43001    .0..    STRB     r3,[r4,r1]
        0x00001fac:    a3a0102b    +...    MOVGE    r1,#0x2b
        0x00001fb0:    a7c41002    ....    STRGEB   r1,[r4,r2]
        0x00001fb4:    a2825001    .P..    ADDGE    r5,r2,#1
        0x00001fb8:    aa000003    ....    BGE      0x1fcc
        0x00001fbc:    e3a0102d    -...    MOV      r1,#0x2d
        0x00001fc0:    e7c41002    ....    STRB     r1,[r4,r2]
        0x00001fc4:    e2600000    ..`.    RSB      r0,r0,#0
        0x00001fc8:    e2825001    .P..    ADD      r5,r2,#1
        0x00001fcc:    e3500ffa    ..P.    CMP      r0,#0x3e8
        0x00001fd0:    ba000007    ....    BLT      0x1ff4
        0x00001fd4:    e1a01000    ....    MOV      r1,r0
        0x00001fd8:    e3a00ffa    ....    MOV      r0,#0x3e8
        0x00001fdc:    eb000402    ....    BL       __rt_sdiv  ; 0x2fec
        0x00001fe0:    e2802030    0 ..    ADD      r2,r0,#0x30
        0x00001fe4:    e1a00005    ....    MOV      r0,r5
        0x00001fe8:    e7c42000    . ..    STRB     r2,[r4,r0]
        0x00001fec:    e1a00001    ....    MOV      r0,r1
        0x00001ff0:    e2855001    .P..    ADD      r5,r5,#1
        0x00001ff4:    e3500064    d.P.    CMP      r0,#0x64
        0x00001ff8:    ba000007    ....    BLT      0x201c
        0x00001ffc:    e1a01000    ....    MOV      r1,r0
        0x00002000:    e3a00064    d...    MOV      r0,#0x64
        0x00002004:    eb0003f8    ....    BL       __rt_sdiv  ; 0x2fec
        0x00002008:    e2802030    0 ..    ADD      r2,r0,#0x30
        0x0000200c:    e1a00005    ....    MOV      r0,r5
        0x00002010:    e7c42000    . ..    STRB     r2,[r4,r0]
        0x00002014:    e1a00001    ....    MOV      r0,r1
        0x00002018:    e2855001    .P..    ADD      r5,r5,#1
        0x0000201c:    eb000427    '...    BL       __rt_sdiv10  ; 0x30c0
        0x00002020:    e2802030    0 ..    ADD      r2,r0,#0x30
        0x00002024:    e7c42005    . ..    STRB     r2,[r4,r5]
        0x00002028:    e2850001    ....    ADD      r0,r5,#1
        0x0000202c:    e1a02000    . ..    MOV      r2,r0
        0x00002030:    e2811030    0...    ADD      r1,r1,#0x30
        0x00002034:    e7c41002    ....    STRB     r1,[r4,r2]
        0x00002038:    e2800001    ....    ADD      r0,r0,#1
        0x0000203c:    e8bd8038    8...    LDMFD    r13!,{r3-r5,pc}
    fflush
    .text
        0x00002040:    e92d40f0    .@-.    STMFD    r13!,{r4-r7,r14}
        0x00002044:    e1b04000    .@..    MOVS     r4,r0
        0x00002048:    059f40f8    .@..    LDREQ    r4,0x2148
        0x0000204c:    e52d3004    .0-.    STR      r3,[r13,#-4]!
        0x00002050:    e3a05000    .P..    MOV      r5,#0
        0x00002054:    0a00001b    ....    BEQ      0x20c8
        0x00002058:    e594000c    ....    LDR      r0,[r4,#0xc]
        0x0000205c:    e3100003    ....    TST      r0,#3
        0x00002060:    03a00000    ....    MOVEQ    r0,#0
        0x00002064:    0a000015    ....    BEQ      0x20c0
        0x00002068:    e2000020     ...    AND      r0,r0,#0x20
        0x0000206c:    e3500000    ..P.    CMP      r0,#0
        0x00002070:    15946028    (`..    LDRNE    r6,[r4,#0x28]
        0x00002074:    1a000004    ....    BNE      0x208c
        0x00002078:    e5940004    ....    LDR      r0,[r4,#4]
        0x0000207c:    e5941018    ....    LDR      r1,[r4,#0x18]
        0x00002080:    e0800001    ....    ADD      r0,r0,r1
        0x00002084:    e5941010    ....    LDR      r1,[r4,#0x10]
        0x00002088:    e0406001    .`@.    SUB      r6,r0,r1
        0x0000208c:    11a00004    ....    MOVNE    r0,r4
        0x00002090:    1bfffc99    ....    BLNE     _deferredlazyseek  ; 0x12fc
        0x00002094:    e594000c    ....    LDR      r0,[r4,#0xc]
        0x00002098:    e3c00dc0    ....    BIC      r0,r0,#0x3000
        0x0000209c:    e584000c    ....    STR      r0,[r4,#0xc]
        0x000020a0:    e1a00004    ....    MOV      r0,r4
        0x000020a4:    ebfffc6d    m...    BL       _fflush  ; 0x1260
        0x000020a8:    e1a05000    .P..    MOV      r5,r0
        0x000020ac:    e1a00004    ....    MOV      r0,r4
        0x000020b0:    e3a02000    . ..    MOV      r2,#0
        0x000020b4:    e1a01006    ....    MOV      r1,r6
        0x000020b8:    eb0000bc    ....    BL       fseek  ; 0x23b0
        0x000020bc:    e1a00005    ....    MOV      r0,r5
        0x000020c0:    e1a05000    .P..    MOV      r5,r0
        0x000020c4:    ea00001c    ....    B        0x213c
        0x000020c8:    e594000c    ....    LDR      r0,[r4,#0xc]
        0x000020cc:    e3100003    ....    TST      r0,#3
        0x000020d0:    0a000016    ....    BEQ      0x2130
        0x000020d4:    e2000020     ...    AND      r0,r0,#0x20
        0x000020d8:    e3500000    ..P.    CMP      r0,#0
        0x000020dc:    15947028    (p..    LDRNE    r7,[r4,#0x28]
        0x000020e0:    1a000004    ....    BNE      0x20f8
        0x000020e4:    e5940004    ....    LDR      r0,[r4,#4]
        0x000020e8:    e5941018    ....    LDR      r1,[r4,#0x18]
        0x000020ec:    e0800001    ....    ADD      r0,r0,r1
        0x000020f0:    e5941010    ....    LDR      r1,[r4,#0x10]
        0x000020f4:    e0407001    .p@.    SUB      r7,r0,r1
        0x000020f8:    11a00004    ....    MOVNE    r0,r4
        0x000020fc:    1bfffc7e    ~...    BLNE     _deferredlazyseek  ; 0x12fc
        0x00002100:    e594000c    ....    LDR      r0,[r4,#0xc]
        0x00002104:    e3c00dc0    ....    BIC      r0,r0,#0x3000
        0x00002108:    e584000c    ....    STR      r0,[r4,#0xc]
        0x0000210c:    e1a00004    ....    MOV      r0,r4
        0x00002110:    ebfffc52    R...    BL       _fflush  ; 0x1260
        0x00002114:    e1a06000    .`..    MOV      r6,r0
        0x00002118:    e1a00004    ....    MOV      r0,r4
        0x0000211c:    e3a02000    . ..    MOV      r2,#0
        0x00002120:    e1a01007    ....    MOV      r1,r7
        0x00002124:    eb0000a1    ....    BL       fseek  ; 0x23b0
        0x00002128:    e3560000    ..V.    CMP      r6,#0
        0x0000212c:    13e05000    .P..    MVNNE    r5,#0
        0x00002130:    e5944040    @@..    LDR      r4,[r4,#0x40]
        0x00002134:    e3540000    ..T.    CMP      r4,#0
        0x00002138:    1affffe2    ....    BNE      0x20c8
        0x0000213c:    e1a00005    ....    MOV      r0,r5
        0x00002140:    e8bd00f8    ....    LDMFD    r13!,{r3-r7}
        0x00002144:    e49df004    ....    LDR      pc,[r13],#4
    $d
        0x00002148:    00004808    .H..    DCD    18440
    __flsbuf
    $a
    .text
        0x0000214c:    e92d4070    p@-.    STMFD    r13!,{r4-r6,r14}
        0x00002150:    e1a05000    .P..    MOV      r5,r0
        0x00002154:    e591000c    ....    LDR      r0,[r1,#0xc]
        0x00002158:    e1a04001    .@..    MOV      r4,r1
        0x0000215c:    e3c00a80    ....    BIC      r0,r0,#0x80000
        0x00002160:    e3800840    @...    ORR      r0,r0,#0x400000
        0x00002164:    e581000c    ....    STR      r0,[r1,#0xc]
        0x00002168:    e3100020     ...    TST      r0,#0x20
        0x0000216c:    11a00004    ....    MOVNE    r0,r4
        0x00002170:    1bfffc61    a...    BLNE     _deferredlazyseek  ; 0x12fc
        0x00002174:    e5940008    ....    LDR      r0,[r4,#8]
        0x00002178:    e20560ff    .`..    AND      r6,r5,#0xff
        0x0000217c:    e3500000    ..P.    CMP      r0,#0
        0x00002180:    aa00000d    ....    BGE      0x21bc
        0x00002184:    e594100c    ....    LDR      r1,[r4,#0xc]
        0x00002188:    e3110f80    ....    TST      r1,#0x200
        0x0000218c:    1a00000a    ....    BNE      0x21bc
        0x00002190:    e2800001    ....    ADD      r0,r0,#1
        0x00002194:    e2600000    ..`.    RSB      r0,r0,#0
        0x00002198:    e5840008    ....    STR      r0,[r4,#8]
        0x0000219c:    e3810b48    H...    ORR      r0,r1,#0x12000
        0x000021a0:    e584000c    ....    STR      r0,[r4,#0xc]
        0x000021a4:    e5941004    ....    LDR      r1,[r4,#4]
        0x000021a8:    e1a00006    ....    MOV      r0,r6
        0x000021ac:    e2812001    . ..    ADD      r2,r1,#1
        0x000021b0:    e5842004    . ..    STR      r2,[r4,#4]
        0x000021b4:    e5c16000    .`..    STRB     r6,[r1,#0]
        0x000021b8:    e8bd8070    p...    LDMFD    r13!,{r4-r6,pc}
        0x000021bc:    e3a0108a    ....    MOV      r1,#0x8a
        0x000021c0:    e594000c    ....    LDR      r0,[r4,#0xc]
        0x000021c4:    e2811d40    @...    ADD      r1,r1,#0x1000
        0x000021c8:    e0001001    ....    AND      r1,r0,r1
        0x000021cc:    e3510002    ..Q.    CMP      r1,#2
        0x000021d0:    0a000003    ....    BEQ      0x21e4
        0x000021d4:    e1a00004    ....    MOV      r0,r4
        0x000021d8:    ebfffbda    ....    BL       _seterr  ; 0x1148
        0x000021dc:    e3e00000    ....    MVN      r0,#0
        0x000021e0:    e8bd8070    p...    LDMFD    r13!,{r4-r6,pc}
        0x000021e4:    e3a01010    ....    MOV      r1,#0x10
        0x000021e8:    e2811ca0    ....    ADD      r1,r1,#0xa000
        0x000021ec:    e0001001    ....    AND      r1,r0,r1
        0x000021f0:    e3510c80    ..Q.    CMP      r1,#0x8000
        0x000021f4:    1a000008    ....    BNE      0x221c
        0x000021f8:    e3a02002    . ..    MOV      r2,#2
        0x000021fc:    e3a01000    ....    MOV      r1,#0
        0x00002200:    e1a00004    ....    MOV      r0,r4
        0x00002204:    eb000069    i...    BL       fseek  ; 0x23b0
        0x00002208:    e594000c    ....    LDR      r0,[r4,#0xc]
        0x0000220c:    e3100020     ...    TST      r0,#0x20
        0x00002210:    11a00004    ....    MOVNE    r0,r4
        0x00002214:    1bfffc38    8...    BLNE     _deferredlazyseek  ; 0x12fc
        0x00002218:    e594000c    ....    LDR      r0,[r4,#0xc]
        0x0000221c:    e3805b48    H[..    ORR      r5,r0,#0x12000
        0x00002220:    e584500c    .P..    STR      r5,[r4,#0xc]
        0x00002224:    e5940010    ....    LDR      r0,[r4,#0x10]
        0x00002228:    e3500000    ..P.    CMP      r0,#0
        0x0000222c:    1a000023    #...    BNE      0x22c0
        0x00002230:    e5940014    ....    LDR      r0,[r4,#0x14]
        0x00002234:    eb0001cc    ....    BL       _sys_istty  ; 0x296c
        0x00002238:    e3500000    ..P.    CMP      r0,#0
        0x0000223c:    0a000013    ....    BEQ      0x2290
        0x00002240:    e594000c    ....    LDR      r0,[r4,#0xc]
        0x00002244:    e3100fc0    ....    TST      r0,#0x300
        0x00002248:    0a000008    ....    BEQ      0x2270
        0x0000224c:    e594001c    ....    LDR      r0,[r4,#0x1c]
        0x00002250:    eb000127    '...    BL       malloc  ; 0x26f4
        0x00002254:    e5840010    ....    STR      r0,[r4,#0x10]
        0x00002258:    e5840004    ....    STR      r0,[r4,#4]
        0x0000225c:    e594000c    ....    LDR      r0,[r4,#0xc]
        0x00002260:    e3855e80    .^..    ORR      r5,r5,#0x800
        0x00002264:    e1800005    ....    ORR      r0,r0,r5
        0x00002268:    e584000c    ....    STR      r0,[r4,#0xc]
        0x0000226c:    ea000013    ....    B        0x22c0
        0x00002270:    e2840024    $...    ADD      r0,r4,#0x24
        0x00002274:    e5840010    ....    STR      r0,[r4,#0x10]
        0x00002278:    e5840004    ....    STR      r0,[r4,#4]
        0x0000227c:    e3a00001    ....    MOV      r0,#1
        0x00002280:    e584001c    ....    STR      r0,[r4,#0x1c]
        0x00002284:    e3855e40    @^..    ORR      r5,r5,#0x400
        0x00002288:    e584500c    .P..    STR      r5,[r4,#0xc]
        0x0000228c:    ea00000b    ....    B        0x22c0
        0x00002290:    e594001c    ....    LDR      r0,[r4,#0x1c]
        0x00002294:    eb000116    ....    BL       malloc  ; 0x26f4
        0x00002298:    e5840010    ....    STR      r0,[r4,#0x10]
        0x0000229c:    e5840004    ....    STR      r0,[r4,#4]
        0x000022a0:    e594000c    ....    LDR      r0,[r4,#0xc]
        0x000022a4:    e3855e80    .^..    ORR      r5,r5,#0x800
        0x000022a8:    e1800005    ....    ORR      r0,r0,r5
        0x000022ac:    e3150fc0    ....    TST      r5,#0x300
        0x000022b0:    03855f40    @_..    ORREQ    r5,r5,#0x100
        0x000022b4:    e584000c    ....    STR      r0,[r4,#0xc]
        0x000022b8:    01800005    ....    ORREQ    r0,r0,r5
        0x000022bc:    0584000c    ....    STREQ    r0,[r4,#0xc]
        0x000022c0:    e3150f40    @...    TST      r5,#0x100
        0x000022c4:    0a000016    ....    BEQ      0x2324
        0x000022c8:    e594002c    ,...    LDR      r0,[r4,#0x2c]
        0x000022cc:    e5941004    ....    LDR      r1,[r4,#4]
        0x000022d0:    e5945010    .P..    LDR      r5,[r4,#0x10]
        0x000022d4:    e1500001    ..P.    CMP      r0,r1
        0x000022d8:    91a00001    ....    MOVLS    r0,r1
        0x000022dc:    e0501005    ..P.    SUBS     r1,r0,r5
        0x000022e0:    0a000005    ....    BEQ      0x22fc
        0x000022e4:    e1a02004    . ..    MOV      r2,r4
        0x000022e8:    e1a00005    ....    MOV      r0,r5
        0x000022ec:    ebfffb9c    ....    BL       _writebuf  ; 0x1164
        0x000022f0:    e3500000    ..P.    CMP      r0,#0
        0x000022f4:    13e00000    ....    MVNNE    r0,#0
        0x000022f8:    18bd8070    p...    LDMNEFD  r13!,{r4-r6,pc}
        0x000022fc:    e2850001    ....    ADD      r0,r5,#1
        0x00002300:    e584002c    ,...    STR      r0,[r4,#0x2c]
        0x00002304:    e5840004    ....    STR      r0,[r4,#4]
        0x00002308:    e594001c    ....    LDR      r0,[r4,#0x1c]
        0x0000230c:    e2401001    ..@.    SUB      r1,r0,#1
        0x00002310:    e5a41008    ....    STR      r1,[r4,#8]!
        0x00002314:    e5840028    (...    STR      r0,[r4,#0x28]
        0x00002318:    e5c56000    .`..    STRB     r6,[r5,#0]
        0x0000231c:    e1a00006    ....    MOV      r0,r6
        0x00002320:    e8bd8070    p...    LDMFD    r13!,{r4-r6,pc}
        0x00002324:    e5941004    ....    LDR      r1,[r4,#4]
        0x00002328:    e5940010    ....    LDR      r0,[r4,#0x10]
        0x0000232c:    e2812001    . ..    ADD      r2,r1,#1
        0x00002330:    e5842004    . ..    STR      r2,[r4,#4]
        0x00002334:    e5c16000    .`..    STRB     r6,[r1,#0]
        0x00002338:    e594102c    ,...    LDR      r1,[r4,#0x2c]
        0x0000233c:    e5942004    . ..    LDR      r2,[r4,#4]
        0x00002340:    e1510002    ..Q.    CMP      r1,r2
        0x00002344:    91a01002    ....    MOVLS    r1,r2
        0x00002348:    e594201c    . ..    LDR      r2,[r4,#0x1c]
        0x0000234c:    e0411000    ..A.    SUB      r1,r1,r0
        0x00002350:    e3150e40    @...    TST      r5,#0x400
        0x00002354:    e5842030    0 ..    STR      r2,[r4,#0x30]
        0x00002358:    1a000003    ....    BNE      0x236c
        0x0000235c:    e356000a    ..V.    CMP      r6,#0xa
        0x00002360:    11520001    ..R.    CMPNE    r2,r1
        0x00002364:    c1a00006    ....    MOVGT    r0,r6
        0x00002368:    c8bd8070    p...    LDMGTFD  r13!,{r4-r6,pc}
        0x0000236c:    e584002c    ,...    STR      r0,[r4,#0x2c]
        0x00002370:    e3a02000    . ..    MOV      r2,#0
        0x00002374:    e9840005    ....    STMIB    r4,{r0,r2}
        0x00002378:    e1a02004    . ..    MOV      r2,r4
        0x0000237c:    ebfffb78    x...    BL       _writebuf  ; 0x1164
        0x00002380:    e3500000    ..P.    CMP      r0,#0
        0x00002384:    01a00006    ....    MOVEQ    r0,r6
        0x00002388:    13e00000    ....    MVNNE    r0,#0
        0x0000238c:    e8bd8070    p...    LDMFD    r13!,{r4-r6,pc}
    free
    .text
        0x00002390:    e92d4010    .@-.    STMFD    r13!,{r4,r14}
        0x00002394:    e1b04000    .@..    MOVS     r4,r0
        0x00002398:    08bd8010    ....    LDMEQFD  r13!,{r4,pc}
        0x0000239c:    eb00030f    ....    BL       __user_libspace  ; 0x2fe0
        0x000023a0:    e5900008    ....    LDR      r0,[r0,#8]
        0x000023a4:    e1a01004    ....    MOV      r1,r4
        0x000023a8:    e8bd4010    .@..    LDMFD    r13!,{r4,r14}
        0x000023ac:    ea0002da    ....    B        __Heap_Free  ; 0x2f1c
    fseek
    .text
        0x000023b0:    e92d41e0    .A-.    STMFD    r13!,{r5-r8,r14}
        0x000023b4:    e52d4004    .@-.    STR      r4,[r13,#-4]!
        0x000023b8:    e1a04000    .@..    MOV      r4,r0
        0x000023bc:    e5900014    ....    LDR      r0,[r0,#0x14]
        0x000023c0:    e594600c    .`..    LDR      r6,[r4,#0xc]
        0x000023c4:    e1a08002    ....    MOV      r8,r2
        0x000023c8:    e1a05001    .P..    MOV      r5,r1
        0x000023cc:    e1a07000    .p..    MOV      r7,r0
        0x000023d0:    e3160003    ....    TST      r6,#3
        0x000023d4:    0a000002    ....    BEQ      0x23e4
        0x000023d8:    eb000163    c...    BL       _sys_istty  ; 0x296c
        0x000023dc:    e3500000    ..P.    CMP      r0,#0
        0x000023e0:    0a000002    ....    BEQ      0x23f0
        0x000023e4:    e3a00002    ....    MOV      r0,#2
        0x000023e8:    e8bd01f0    ....    LDMFD    r13!,{r4-r8}
        0x000023ec:    e49df004    ....    LDR      pc,[r13],#4
        0x000023f0:    e3580000    ..X.    CMP      r8,#0
        0x000023f4:    0a000023    #...    BEQ      0x2488
        0x000023f8:    e3580001    ..X.    CMP      r8,#1
        0x000023fc:    0a00000d    ....    BEQ      0x2438
        0x00002400:    e3580002    ..X.    CMP      r8,#2
        0x00002404:    1a000026    &...    BNE      0x24a4
        0x00002408:    e1a00007    ....    MOV      r0,r7
        0x0000240c:    eb000166    f...    BL       _sys_flen  ; 0x29ac
        0x00002410:    e594100c    ....    LDR      r1,[r4,#0xc]
        0x00002414:    e3500000    ..P.    CMP      r0,#0
        0x00002418:    e3813010    .0..    ORR      r3,r1,#0x10
        0x0000241c:    e584300c    .0..    STR      r3,[r4,#0xc]
        0x00002420:    aa000008    ....    BGE      0x2448
        0x00002424:    e1a00004    ....    MOV      r0,r4
        0x00002428:    ebfffb46    F...    BL       _seterr  ; 0x1148
        0x0000242c:    e3a00001    ....    MOV      r0,#1
        0x00002430:    e8bd01f0    ....    LDMFD    r13!,{r4-r8}
        0x00002434:    e49df004    ....    LDR      pc,[r13],#4
        0x00002438:    e1a00004    ....    MOV      r0,r4
        0x0000243c:    eb00025a    Z...    BL       ftell  ; 0x2dac
        0x00002440:    e0805005    .P..    ADD      r5,r0,r5
        0x00002444:    ea00000f    ....    B        0x2488
        0x00002448:    e594102c    ,...    LDR      r1,[r4,#0x2c]
        0x0000244c:    e5942004    . ..    LDR      r2,[r4,#4]
        0x00002450:    e1510002    ..Q.    CMP      r1,r2
        0x00002454:    91a01002    ....    MOVLS    r1,r2
        0x00002458:    e5942018    . ..    LDR      r2,[r4,#0x18]
        0x0000245c:    e0811002    ....    ADD      r1,r1,r2
        0x00002460:    e5942010    . ..    LDR      r2,[r4,#0x10]
        0x00002464:    e0411002    ..A.    SUB      r1,r1,r2
        0x00002468:    e2032020      ..    AND      r2,r3,#0x20
        0x0000246c:    e3520000    ..R.    CMP      r2,#0
        0x00002470:    15942028    ( ..    LDRNE    r2,[r4,#0x28]
        0x00002474:    11520001    ..R.    CMPNE    r2,r1
        0x00002478:    c1a01002    ....    MOVGT    r1,r2
        0x0000247c:    e1510000    ..Q.    CMP      r1,r0
        0x00002480:    c1a00001    ....    MOVGT    r0,r1
        0x00002484:    e0855000    .P..    ADD      r5,r5,r0
        0x00002488:    e3550000    ..U.    CMP      r5,#0
        0x0000248c:    aa000009    ....    BGE      0x24b8
        0x00002490:    e1a00004    ....    MOV      r0,r4
        0x00002494:    ebfffb2b    +...    BL       _seterr  ; 0x1148
        0x00002498:    e3a00002    ....    MOV      r0,#2
        0x0000249c:    e8bd01f0    ....    LDMFD    r13!,{r4-r8}
        0x000024a0:    e49df004    ....    LDR      pc,[r13],#4
        0x000024a4:    e1a00004    ....    MOV      r0,r4
        0x000024a8:    ebfffb26    &...    BL       _seterr  ; 0x1148
        0x000024ac:    e3a00002    ....    MOV      r0,#2
        0x000024b0:    e8bd01f0    ....    LDMFD    r13!,{r4-r8}
        0x000024b4:    e49df004    ....    LDR      pc,[r13],#4
        0x000024b8:    e2060d80    ....    AND      r0,r6,#0x2000
        0x000024bc:    e3500000    ..P.    CMP      r0,#0
        0x000024c0:    15940004    ....    LDRNE    r0,[r4,#4]
        0x000024c4:    1594102c    ,...    LDRNE    r1,[r4,#0x2c]
        0x000024c8:    11510000    ..Q.    CMPNE    r1,r0
        0x000024cc:    3584002c    ,..5    STRCC    r0,[r4,#0x2c]
        0x000024d0:    e5940018    ....    LDR      r0,[r4,#0x18]
        0x000024d4:    e1500005    ..P.    CMP      r0,r5
        0x000024d8:    ca00000c    ....    BGT      0x2510
        0x000024dc:    e594102c    ,...    LDR      r1,[r4,#0x2c]
        0x000024e0:    e5942004    . ..    LDR      r2,[r4,#4]
        0x000024e4:    e5943010    .0..    LDR      r3,[r4,#0x10]
        0x000024e8:    e1510002    ..Q.    CMP      r1,r2
        0x000024ec:    91a0e002    ....    MOVLS    r14,r2
        0x000024f0:    81a0e001    ....    MOVHI    r14,r1
        0x000024f4:    e08ec000    ....    ADD      r12,r14,r0
        0x000024f8:    e04cc003    ..L.    SUB      r12,r12,r3
        0x000024fc:    e15c0005    ..\.    CMP      r12,r5
        0x00002500:    a594c030    0...    LDRGE    r12,[r4,#0x30]
        0x00002504:    a080700c    .p..    ADDGE    r7,r0,r12
        0x00002508:    a1570005    ..W.    CMPGE    r7,r5
        0x0000250c:    ca000005    ....    BGT      0x2528
        0x00002510:    e3a01000    ....    MOV      r1,#0
        0x00002514:    e5841008    ....    STR      r1,[r4,#8]
        0x00002518:    e5841000    ....    STR      r1,[r4,#0]
        0x0000251c:    e5845028    (P..    STR      r5,[r4,#0x28]
        0x00002520:    e3860020     ...    ORR      r0,r6,#0x20
        0x00002524:    ea00000d    ....    B        0x2560
        0x00002528:    e0450000    ..E.    SUB      r0,r5,r0
        0x0000252c:    e3160002    ....    TST      r6,#2
        0x00002530:    104cc000    ..L.    SUBNE    r12,r12,r0
        0x00002534:    126cc000    ..l.    RSBNE    r12,r12,#0
        0x00002538:    1584c008    ....    STRNE    r12,[r4,#8]
        0x0000253c:    e3160001    ....    TST      r6,#1
        0x00002540:    0a000003    ....    BEQ      0x2554
        0x00002544:    e04e1003    ..N.    SUB      r1,r14,r3
        0x00002548:    e0411000    ..A.    SUB      r1,r1,r0
        0x0000254c:    e2611000    ..a.    RSB      r1,r1,#0
        0x00002550:    e5841000    ....    STR      r1,[r4,#0]
        0x00002554:    e0830000    ....    ADD      r0,r3,r0
        0x00002558:    e5840004    ....    STR      r0,[r4,#4]
        0x0000255c:    e3c60020     ...    BIC      r0,r6,#0x20
        0x00002560:    e3c00a80    ....    BIC      r0,r0,#0x80000
        0x00002564:    e3c00dc1    ....    BIC      r0,r0,#0x3040
        0x00002568:    e584000c    ....    STR      r0,[r4,#0xc]
        0x0000256c:    e8bd01f0    ....    LDMFD    r13!,{r4-r8}
        0x00002570:    e3a00000    ....    MOV      r0,#0
        0x00002574:    e49df004    ....    LDR      pc,[r13],#4
    _ll_udiv10
    .text
        0x00002578:    e92d4030    0@-.    STMFD    r13!,{r4,r5,r14}
        0x0000257c:    e250200a    . P.    SUBS     r2,r0,#0xa
        0x00002580:    e2d13000    .0..    SBCS     r3,r1,#0
        0x00002584:    e1a0e120     ...    MOV      r14,r0,LSR #2
        0x00002588:    e18eef01    ....    ORR      r14,r14,r1,LSL #30
        0x0000258c:    e050000e    ..P.    SUBS     r0,r0,r14
        0x00002590:    e0c11121    !...    SBC      r1,r1,r1,LSR #2
        0x00002594:    e1a0e220     ...    MOV      r14,r0,LSR #4
        0x00002598:    e18eee01    ....    ORR      r14,r14,r1,LSL #28
        0x0000259c:    e090000e    ....    ADDS     r0,r0,r14
        0x000025a0:    e0a11221    !...    ADC      r1,r1,r1,LSR #4
        0x000025a4:    e1a0e420     ...    MOV      r14,r0,LSR #8
        0x000025a8:    e18eec01    ....    ORR      r14,r14,r1,LSL #24
        0x000025ac:    e090000e    ....    ADDS     r0,r0,r14
        0x000025b0:    e0a11421    !...    ADC      r1,r1,r1,LSR #8
        0x000025b4:    e1a0e820     ...    MOV      r14,r0,LSR #16
        0x000025b8:    e18ee801    ....    ORR      r14,r14,r1,LSL #16
        0x000025bc:    e090000e    ....    ADDS     r0,r0,r14
        0x000025c0:    e0a11821    !...    ADC      r1,r1,r1,LSR #16
        0x000025c4:    e0900001    ....    ADDS     r0,r0,r1
        0x000025c8:    e2a11000    ....    ADC      r1,r1,#0
        0x000025cc:    e1a001a0    ....    MOV      r0,r0,LSR #3
        0x000025d0:    e1800e81    ....    ORR      r0,r0,r1,LSL #29
        0x000025d4:    e1a011a1    ....    MOV      r1,r1,LSR #3
        0x000025d8:    e1a04101    .A..    MOV      r4,r1,LSL #2
        0x000025dc:    e1844f20     O..    ORR      r4,r4,r0,LSR #30
        0x000025e0:    e0905100    .Q..    ADDS     r5,r0,r0,LSL #2
        0x000025e4:    e0a44001    .@..    ADC      r4,r4,r1
        0x000025e8:    e0955005    .P..    ADDS     r5,r5,r5
        0x000025ec:    e0a44004    .@..    ADC      r4,r4,r4
        0x000025f0:    e0522005    . R.    SUBS     r2,r2,r5
        0x000025f4:    e0d33004    .0..    SBCS     r3,r3,r4
        0x000025f8:    e3a03000    .0..    MOV      r3,#0
        0x000025fc:    4282200a    . .B    ADDMI    r2,r2,#0xa
        0x00002600:    48bd8030    0..H    LDMMIFD  r13!,{r4,r5,pc}
        0x00002604:    e2900001    ....    ADDS     r0,r0,#1
        0x00002608:    e2a11000    ....    ADC      r1,r1,#0
        0x0000260c:    e8bd8030    0...    LDMFD    r13!,{r4,r5,pc}
    _terminate_user_alloc
    .text
        0x00002610:    e1a0f00e    ....    MOV      pc,r14
    _init_user_alloc
        0x00002614:    e1a0f00e    ....    MOV      pc,r14
    __Heap_Full
        0x00002618:    e92d4010    .@-.    STMFD    r13!,{r4,r14}
        0x0000261c:    e1a04000    .@..    MOV      r4,r0
        0x00002620:    e1a00001    ....    MOV      r0,r1
        0x00002624:    e24dd008    ..M.    SUB      r13,r13,#8
        0x00002628:    e28d1004    ....    ADD      r1,r13,#4
        0x0000262c:    eb000257    W...    BL       __heap_extend  ; 0x2f90
        0x00002630:    e3500000    ..P.    CMP      r0,#0
        0x00002634:    028dd008    ....    ADDEQ    r13,r13,#8
        0x00002638:    08bd8010    ....    LDMEQFD  r13!,{r4,pc}
        0x0000263c:    e1a02000    . ..    MOV      r2,r0
        0x00002640:    e1a00004    ....    MOV      r0,r4
        0x00002644:    e59d1004    ....    LDR      r1,[r13,#4]
        0x00002648:    eb000221    !...    BL       __Heap_ProvideMemory  ; 0x2ed4
        0x0000264c:    e3a00001    ....    MOV      r0,#1
        0x00002650:    e28dd008    ....    ADD      r13,r13,#8
        0x00002654:    e8bd8010    ....    LDMFD    r13!,{r4,pc}
    __Heap_Broken
        0x00002658:    e3a01001    ....    MOV      r1,#1
        0x0000265c:    e3a00009    ....    MOV      r0,#9
        0x00002660:    ea000040    @...    B        __32__rt_raise  ; 0x2768
    _init_alloc
        0x00002664:    e92d40f0    .@-.    STMFD    r13!,{r4-r7,r14}
        0x00002668:    e1a05000    .P..    MOV      r5,r0
        0x0000266c:    e3a00000    ....    MOV      r0,#0
        0x00002670:    e52d3004    .0-.    STR      r3,[r13,#-4]!
        0x00002674:    e1a04001    .@..    MOV      r4,r1
        0x00002678:    eb0001e6    ....    BL       __Heap_DescSize  ; 0x2e18
        0x0000267c:    e1a06000    .`..    MOV      r6,r0
        0x00002680:    e0850000    ....    ADD      r0,r5,r0
        0x00002684:    e1500004    ..P.    CMP      r0,r4
        0x00002688:    9a00000a    ....    BLS      0x26b8
        0x0000268c:    e1a0100d    ....    MOV      r1,r13
        0x00002690:    e1a00006    ....    MOV      r0,r6
        0x00002694:    eb00023d    =...    BL       __heap_extend  ; 0x2f90
        0x00002698:    e1b07000    .p..    MOVS     r7,r0
        0x0000269c:    03a01000    ....    MOVEQ    r1,#0
        0x000026a0:    03a00009    ....    MOVEQ    r0,#9
        0x000026a4:    0b00002f    /...    BLEQ     __32__rt_raise  ; 0x2768
        0x000026a8:    e59d0000    ....    LDR      r0,[r13,#0]
        0x000026ac:    e1500004    ..P.    CMP      r0,r4
        0x000026b0:    11a05000    .P..    MOVNE    r5,r0
        0x000026b4:    e0804007    .@..    ADD      r4,r0,r7
        0x000026b8:    eb000248    H...    BL       __user_libspace  ; 0x2fe0
        0x000026bc:    e1a07000    .p..    MOV      r7,r0
        0x000026c0:    e5875008    .P..    STR      r5,[r7,#8]
        0x000026c4:    e1a00005    ....    MOV      r0,r5
        0x000026c8:    e0856006    .`..    ADD      r6,r5,r6
        0x000026cc:    eb0001cc    ....    BL       __Heap_Initialize  ; 0x2e04
        0x000026d0:    e1540006    ..T.    CMP      r4,r6
        0x000026d4:    08bd00f8    ....    LDMEQFD  r13!,{r3-r7}
        0x000026d8:    049df004    ....    LDREQ    pc,[r13],#4
        0x000026dc:    e0442006    . D.    SUB      r2,r4,r6
        0x000026e0:    e1a01006    ....    MOV      r1,r6
        0x000026e4:    e5970008    ....    LDR      r0,[r7,#8]
        0x000026e8:    e8bd00f8    ....    LDMFD    r13!,{r3-r7}
        0x000026ec:    e49de004    ....    LDR      r14,[r13],#4
        0x000026f0:    ea0001f7    ....    B        __Heap_ProvideMemory  ; 0x2ed4
    malloc
        0x000026f4:    e92d4010    .@-.    STMFD    r13!,{r4,r14}
        0x000026f8:    e1a04000    .@..    MOV      r4,r0
        0x000026fc:    eb000237    7...    BL       __user_libspace  ; 0x2fe0
        0x00002700:    e5900008    ....    LDR      r0,[r0,#8]
        0x00002704:    e1a01004    ....    MOV      r1,r4
        0x00002708:    e8bd4010    .@..    LDMFD    r13!,{r4,r14}
        0x0000270c:    ea0001c3    ....    B        __Heap_Alloc  ; 0x2e20
    __rt_memclr_w
    .text
        0x00002710:    e3a02000    . ..    MOV      r2,#0
    _memset_w
        0x00002714:    e92d4000    .@-.    STMFD    r13!,{r14}
        0x00002718:    e1a03002    .0..    MOV      r3,r2
        0x0000271c:    e1a0c002    ....    MOV      r12,r2
        0x00002720:    e1a0e002    ....    MOV      r14,r2
        0x00002724:    e2511020     .Q.    SUBS     r1,r1,#0x20
    _loop
        0x00002728:    28a0500c    .P.(    STMCSIA  r0!,{r2,r3,r12,r14}
        0x0000272c:    28a0500c    .P.(    STMCSIA  r0!,{r2,r3,r12,r14}
        0x00002730:    22511020     .Q"    SUBCSS   r1,r1,#0x20
        0x00002734:    2afffffb    ...*    BCS      _loop  ; 0x2728
        0x00002738:    e1b01e01    ....    MOVS     r1,r1,LSL #28
        0x0000273c:    28a0500c    .P.(    STMCSIA  r0!,{r2,r3,r12,r14}
        0x00002740:    48a0000c    ...H    STMMIIA  r0!,{r2,r3}
        0x00002744:    e8bd4000    .@..    LDMFD    r13!,{r14}
        0x00002748:    e1b01101    ....    MOVS     r1,r1,LSL #2
        0x0000274c:    24802004    . .$    STRCS    r2,[r0],#4
        0x00002750:    01a0f00e    ....    MOVEQ    pc,r14
        0x00002754:    44c02001    . .D    STRMIB   r2,[r0],#1
        0x00002758:    44c02001    . .D    STRMIB   r2,[r0],#1
        0x0000275c:    e3110440    @...    TST      r1,#0x40000000
        0x00002760:    14c02001    . ..    STRNEB   r2,[r0],#1
        0x00002764:    e1a0f00e    ....    MOV      pc,r14
    __32__rt_raise
    __rt_raise
    .text
        0x00002768:    e92d4010    .@-.    STMFD    r13!,{r4,r14}
        0x0000276c:    eb000094    ....    BL       __raise  ; 0x29c4
        0x00002770:    e3500000    ..P.    CMP      r0,#0
        0x00002774:    08bd8010    ....    LDMEQFD  r13!,{r4,pc}
        0x00002778:    e8bd4010    .@..    LDMFD    r13!,{r4,r14}
        0x0000277c:    ea00025f    _...    B        _sys_exit  ; 0x3100
    __rt_udiv10
    .text
        0x00002780:    e240100a    ..@.    SUB      r1,r0,#0xa
        0x00002784:    e0400120     .@.    SUB      r0,r0,r0,LSR #2
        0x00002788:    e0800220     ...    ADD      r0,r0,r0,LSR #4
        0x0000278c:    e0800420     ...    ADD      r0,r0,r0,LSR #8
        0x00002790:    e0800820     ...    ADD      r0,r0,r0,LSR #16
        0x00002794:    e1a001a0    ....    MOV      r0,r0,LSR #3
        0x00002798:    e0802100    .!..    ADD      r2,r0,r0,LSL #2
        0x0000279c:    e0511082    ..Q.    SUBS     r1,r1,r2,LSL #1
        0x000027a0:    52800001    ...R    ADDPL    r0,r0,#1
        0x000027a4:    4281100a    ...B    ADDMI    r1,r1,#0xa
        0x000027a8:    e1a0f00e    ....    MOV      pc,r14
    setvbuf
    .text
        0x000027ac:    e92d4010    .@-.    STMFD    r13!,{r4,r14}
        0x000027b0:    e590c00c    ....    LDR      r12,[r0,#0xc]
        0x000027b4:    e31c0003    ....    TST      r12,#3
        0x000027b8:    0a000001    ....    BEQ      0x27c4
        0x000027bc:    e31c0840    @...    TST      r12,#0x400000
        0x000027c0:    0a000001    ....    BEQ      0x27cc
        0x000027c4:    e3a00001    ....    MOV      r0,#1
        0x000027c8:    e8bd8010    ....    LDMFD    r13!,{r4,pc}
        0x000027cc:    e3520f40    @.R.    CMP      r2,#0x100
        0x000027d0:    13520f80    ..R.    CMPNE    r2,#0x200
        0x000027d4:    0a000005    ....    BEQ      0x27f0
        0x000027d8:    e3520e40    @.R.    CMP      r2,#0x400
        0x000027dc:    13a00001    ....    MOVNE    r0,#1
        0x000027e0:    18bd8010    ....    LDMNEFD  r13!,{r4,pc}
        0x000027e4:    e2801024    $...    ADD      r1,r0,#0x24
        0x000027e8:    e3a03001    .0..    MOV      r3,#1
        0x000027ec:    ea000004    ....    B        0x2804
        0x000027f0:    e243e001    ..C.    SUB      r14,r3,#1
        0x000027f4:    e3e044ff    .D..    MVN      r4,#0xff000000
        0x000027f8:    e15e0004    ..^.    CMP      r14,r4
        0x000027fc:    23a00001    ...#    MOVCS    r0,#1
        0x00002800:    28bd8010    ...(    LDMCSFD  r13!,{r4,pc}
        0x00002804:    e5801010    ....    STR      r1,[r0,#0x10]
        0x00002808:    e5801004    ....    STR      r1,[r0,#4]
        0x0000280c:    e3cc1ef0    ....    BIC      r1,r12,#0xf00
        0x00002810:    e1811002    ....    ORR      r1,r1,r2
        0x00002814:    e5a0100c    ....    STR      r1,[r0,#0xc]!
        0x00002818:    e5803010    .0..    STR      r3,[r0,#0x10]
        0x0000281c:    e3a00000    ....    MOV      r0,#0
        0x00002820:    e8bd8010    ....    LDMFD    r13!,{r4,pc}
    setbuf
        0x00002824:    e52de004    ..-.    STR      r14,[r13,#-4]!
        0x00002828:    e3510000    ..Q.    CMP      r1,#0
        0x0000282c:    e590200c    . ..    LDR      r2,[r0,#0xc]
        0x00002830:    03a03e40    @>..    MOVEQ    r3,#0x400
        0x00002834:    13a03f40    @?..    MOVNE    r3,#0x100
        0x00002838:    e3120003    ....    TST      r2,#3
        0x0000283c:    e3a0cf80    ....    MOV      r12,#0x200
        0x00002840:    049df004    ....    LDREQ    pc,[r13],#4
        0x00002844:    e3120840    @...    TST      r2,#0x400000
        0x00002848:    149df004    ....    LDRNE    pc,[r13],#4
        0x0000284c:    e3530f40    @.S.    CMP      r3,#0x100
        0x00002850:    13530f80    ..S.    CMPNE    r3,#0x200
        0x00002854:    0a000003    ....    BEQ      0x2868
        0x00002858:    e3530e40    @.S.    CMP      r3,#0x400
        0x0000285c:    149df004    ....    LDRNE    pc,[r13],#4
        0x00002860:    e2801024    $...    ADD      r1,r0,#0x24
        0x00002864:    e3a0c001    ....    MOV      r12,#1
        0x00002868:    e5801010    ....    STR      r1,[r0,#0x10]
        0x0000286c:    e5801004    ....    STR      r1,[r0,#4]
        0x00002870:    e3c21ef0    ....    BIC      r1,r2,#0xf00
        0x00002874:    e1811003    ....    ORR      r1,r1,r3
        0x00002878:    e5a0100c    ....    STR      r1,[r0,#0xc]!
        0x0000287c:    e580c010    ....    STR      r12,[r0,#0x10]
        0x00002880:    e49df004    ....    LDR      pc,[r13],#4
    strlen
    .text
        0x00002884:    e280c001    ....    ADD      r12,r0,#1
        0x00002888:    e3100003    ....    TST      r0,#3
        0x0000288c:    0a000005    ....    BEQ      0x28a8
        0x00002890:    e4d01001    ....    LDRB     r1,[r0],#1
        0x00002894:    e3510000    ..Q.    CMP      r1,#0
        0x00002898:    0040000c    ..@.    SUBEQ    r0,r0,r12
        0x0000289c:    01a0f00e    ....    MOVEQ    pc,r14
        0x000028a0:    e3100003    ....    TST      r0,#3
        0x000028a4:    1afffff9    ....    BNE      0x2890
        0x000028a8:    e59f2038    8 ..    LDR      r2,0x28e8
        0x000028ac:    e4901004    ....    LDR      r1,[r0],#4
        0x000028b0:    e0413002    .0A.    SUB      r3,r1,r2
        0x000028b4:    e1c33001    .0..    BIC      r3,r3,r1
        0x000028b8:    e1130382    ....    TST      r3,r2,LSL #7
        0x000028bc:    0afffffa    ....    BEQ      0x28ac
        0x000028c0:    e040000c    ..@.    SUB      r0,r0,r12
        0x000028c4:    e31100ff    ....    TST      r1,#0xff
        0x000028c8:    02400003    ..@.    SUBEQ    r0,r0,#3
        0x000028cc:    01a0f00e    ....    MOVEQ    pc,r14
        0x000028d0:    e3110cff    ....    TST      r1,#0xff00
        0x000028d4:    02400002    ..@.    SUBEQ    r0,r0,#2
        0x000028d8:    01a0f00e    ....    MOVEQ    pc,r14
        0x000028dc:    e31108ff    ....    TST      r1,#0xff0000
        0x000028e0:    02400001    ..@.    SUBEQ    r0,r0,#1
        0x000028e4:    e1a0f00e    ....    MOV      pc,r14
    $d
        0x000028e8:    01010101    ....    DCD    16843009
    _sys_open
    $a
    .text
        0x000028ec:    e52de004    ..-.    STR      r14,[r13,#-4]!
        0x000028f0:    e24dd00c    ..M.    SUB      r13,r13,#0xc
        0x000028f4:    e88d0003    ....    STMIA    r13,{r0,r1}
        0x000028f8:    ebffffe1    ....    BL       strlen  ; 0x2884
        0x000028fc:    e58d0008    ....    STR      r0,[r13,#8]
        0x00002900:    e3a00001    ....    MOV      r0,#1
        0x00002904:    e1a0100d    ....    MOV      r1,r13
        0x00002908:    ef123456    V4..    SWI      0x123456
        0x0000290c:    e28dd00c    ....    ADD      r13,r13,#0xc
        0x00002910:    e49df004    ....    LDR      pc,[r13],#4
    _sys_close
        0x00002914:    e92d4008    .@-.    STMFD    r13!,{r3,r14}
        0x00002918:    e58d0000    ....    STR      r0,[r13,#0]
        0x0000291c:    e3a00002    ....    MOV      r0,#2
        0x00002920:    e1a0100d    ....    MOV      r1,r13
        0x00002924:    ef123456    V4..    SWI      0x123456
        0x00002928:    e8bd8008    ....    LDMFD    r13!,{r3,pc}
    _sys_write
        0x0000292c:    e52de004    ..-.    STR      r14,[r13,#-4]!
        0x00002930:    e24dd014    ..M.    SUB      r13,r13,#0x14
        0x00002934:    e98d0007    ....    STMIB    r13,{r0-r2}
        0x00002938:    e28d1004    ....    ADD      r1,r13,#4
        0x0000293c:    e3a00005    ....    MOV      r0,#5
        0x00002940:    ef123456    V4..    SWI      0x123456
        0x00002944:    e28dd014    ....    ADD      r13,r13,#0x14
        0x00002948:    e49df004    ....    LDR      pc,[r13],#4
    _sys_read
        0x0000294c:    e52de004    ..-.    STR      r14,[r13,#-4]!
        0x00002950:    e24dd014    ..M.    SUB      r13,r13,#0x14
        0x00002954:    e98d000f    ....    STMIB    r13,{r0-r3}
        0x00002958:    e28d1004    ....    ADD      r1,r13,#4
        0x0000295c:    e3a00006    ....    MOV      r0,#6
        0x00002960:    ef123456    V4..    SWI      0x123456
        0x00002964:    e28dd014    ....    ADD      r13,r13,#0x14
        0x00002968:    e49df004    ....    LDR      pc,[r13],#4
    _sys_istty
        0x0000296c:    e92d4008    .@-.    STMFD    r13!,{r3,r14}
        0x00002970:    e58d0000    ....    STR      r0,[r13,#0]
        0x00002974:    e3a00009    ....    MOV      r0,#9
        0x00002978:    e1a0100d    ....    MOV      r1,r13
        0x0000297c:    ef123456    V4..    SWI      0x123456
        0x00002980:    e8bd8008    ....    LDMFD    r13!,{r3,pc}
    _sys_seek
        0x00002984:    e52de004    ..-.    STR      r14,[r13,#-4]!
        0x00002988:    e24dd00c    ..M.    SUB      r13,r13,#0xc
        0x0000298c:    e98d0003    ....    STMIB    r13,{r0,r1}
        0x00002990:    e28d1004    ....    ADD      r1,r13,#4
        0x00002994:    e3a0000a    ....    MOV      r0,#0xa
        0x00002998:    ef123456    V4..    SWI      0x123456
        0x0000299c:    e28dd00c    ....    ADD      r13,r13,#0xc
        0x000029a0:    e49df004    ....    LDR      pc,[r13],#4
    _sys_ensure
        0x000029a4:    e3a00000    ....    MOV      r0,#0
        0x000029a8:    e1a0f00e    ....    MOV      pc,r14
    _sys_flen
        0x000029ac:    e92d4008    .@-.    STMFD    r13!,{r3,r14}
        0x000029b0:    e58d0000    ....    STR      r0,[r13,#0]
        0x000029b4:    e3a0000c    ....    MOV      r0,#0xc
        0x000029b8:    e1a0100d    ....    MOV      r1,r13
        0x000029bc:    ef123456    V4..    SWI      0x123456
        0x000029c0:    e8bd8008    ....    LDMFD    r13!,{r3,pc}
    __raise
    .text
        0x000029c4:    e92d4070    p@-.    STMFD    r13!,{r4-r6,r14}
        0x000029c8:    e59f6050    P`..    LDR      r6,0x2a20
        0x000029cc:    e1a05001    .P..    MOV      r5,r1
        0x000029d0:    e1a01000    ....    MOV      r1,r0
        0x000029d4:    e1a04000    .@..    MOV      r4,r0
        0x000029d8:    e08f6006    .`..    ADD      r6,pc,r6
        0x000029dc:    e1a00006    ....    MOV      r0,r6
        0x000029e0:    ebffffff    ....    BL       0x29e4
        0x000029e4:    e1500006    ..P.    CMP      r0,r6
        0x000029e8:    e1a02000    . ..    MOV      r2,r0
        0x000029ec:    01a00004    ....    MOVEQ    r0,r4
        0x000029f0:    01a01005    ....    MOVEQ    r1,r5
        0x000029f4:    08bd4070    p@..    LDMEQFD  r13!,{r4-r6,r14}
        0x000029f8:    0a000210    ....    BEQ      __default_signal_handler  ; 0x3240
        0x000029fc:    e59f0020     ...    LDR      r0,0x2a24
        0x00002a00:    e08f0000    ....    ADD      r0,pc,r0
        0x00002a04:    e1520000    ..R.    CMP      r2,r0
        0x00002a08:    11a01005    ....    MOVNE    r1,r5
        0x00002a0c:    11a00004    ....    MOVNE    r0,r4
        0x00002a10:    11a0e00f    ....    MOVNE    r14,pc
    $p
        0x00002a14:    11a0f002    ....    MOVNE    pc,r2
        0x00002a18:    e3a00000    ....    MOV      r0,#0
        0x00002a1c:    e8bd8070    p...    LDMFD    r13!,{r4-r6,pc}
    $d
        0x00002a20:    ffffd61f    ....    DCD    4294956575
        0x00002a24:    ffffd5f5    ....    DCD    4294956533
    _main_redirection
    $a
    .text
        0x00002a28:    e1a0f00e    ....    MOV      pc,r14
    _handle_redirection
        0x00002a2c:    e92d40f0    .@-.    STMFD    r13!,{r4-r7,r14}
        0x00002a30:    e52d3004    .0-.    STR      r3,[r13,#-4]!
        0x00002a34:    e5d03000    .0..    LDRB     r3,[r0,#0]
        0x00002a38:    e1a04000    .@..    MOV      r4,r0
        0x00002a3c:    e3a00000    ....    MOV      r0,#0
        0x00002a40:    e3530003    ..S.    CMP      r3,#3
        0x00002a44:    05c40000    ....    STREQB   r0,[r4,#0]
        0x00002a48:    e5d43000    .0..    LDRB     r3,[r4,#0]
        0x00002a4c:    e3a0e002    ....    MOV      r14,#2
        0x00002a50:    e59f71f0    .q..    LDR      r7,0x2c48
        0x00002a54:    e59f61e8    .a..    LDR      r6,0x2c44
        0x00002a58:    e3530000    ..S.    CMP      r3,#0
        0x00002a5c:    1a000051    Q...    BNE      0x2ba8
        0x00002a60:    e3520000    ..R.    CMP      r2,#0
        0x00002a64:    18bd00f8    ....    LDMNEFD  r13!,{r3-r7}
        0x00002a68:    149df004    ....    LDRNE    pc,[r13],#4
        0x00002a6c:    e5c40001    ....    STRB     r0,[r4,#1]
        0x00002a70:    e5d13000    .0..    LDRB     r3,[r1,#0]
        0x00002a74:    e2812001    . ..    ADD      r2,r1,#1
        0x00002a78:    e3a05001    .P..    MOV      r5,#1
        0x00002a7c:    e353003c    <.S.    CMP      r3,#0x3c
        0x00002a80:    1a000010    ....    BNE      0x2ac8
        0x00002a84:    e1a01002    ....    MOV      r1,r2
        0x00002a88:    ea000003    ....    B        0x2a9c
        0x00002a8c:    e353003e    >.S.    CMP      r3,#0x3e
        0x00002a90:    08bd00f8    ....    LDMEQFD  r13!,{r3-r7}
        0x00002a94:    049df004    ....    LDREQ    pc,[r13],#4
        0x00002a98:    e2822001    . ..    ADD      r2,r2,#1
        0x00002a9c:    e5d23000    .0..    LDRB     r3,[r2,#0]
        0x00002aa0:    e3530000    ..S.    CMP      r3,#0
        0x00002aa4:    13530020     .S.    CMPNE    r3,#0x20
        0x00002aa8:    1243c009    ..C.    SUBNE    r12,r3,#9
        0x00002aac:    135c0004    ..\.    CMPNE    r12,#4
        0x00002ab0:    8afffff5    ....    BHI      0x2a8c
        0x00002ab4:    e59f2190    .!..    LDR      r2,0x2c4c
        0x00002ab8:    e5842008    . ..    STR      r2,[r4,#8]
        0x00002abc:    e3a02072    r ..    MOV      r2,#0x72
        0x00002ac0:    e5c42002    . ..    STRB     r2,[r4,#2]
        0x00002ac4:    ea000025    %...    B        0x2b60
        0x00002ac8:    e5847008    .p..    STR      r7,[r4,#8]
        0x00002acc:    e5d13000    .0..    LDRB     r3,[r1,#0]
        0x00002ad0:    e3530031    1.S.    CMP      r3,#0x31
        0x00002ad4:    01a01002    ....    MOVEQ    r1,r2
        0x00002ad8:    0a000002    ....    BEQ      0x2ae8
        0x00002adc:    e3530032    2.S.    CMP      r3,#0x32
        0x00002ae0:    01a01002    ....    MOVEQ    r1,r2
        0x00002ae4:    05846008    .`..    STREQ    r6,[r4,#8]
        0x00002ae8:    e4d12001    . ..    LDRB     r2,[r1],#1
        0x00002aec:    e352003e    >.R.    CMP      r2,#0x3e
        0x00002af0:    18bd00f8    ....    LDMNEFD  r13!,{r3-r7}
        0x00002af4:    149df004    ....    LDRNE    pc,[r13],#4
        0x00002af8:    e5d12000    . ..    LDRB     r2,[r1,#0]
        0x00002afc:    e352003e    >.R.    CMP      r2,#0x3e
        0x00002b00:    13a02077    w ..    MOVNE    r2,#0x77
        0x00002b04:    03a02061    a ..    MOVEQ    r2,#0x61
        0x00002b08:    e5c42002    . ..    STRB     r2,[r4,#2]
        0x00002b0c:    02811001    ....    ADDEQ    r1,r1,#1
        0x00002b10:    e5d12000    . ..    LDRB     r2,[r1,#0]
        0x00002b14:    e3520026    &.R.    CMP      r2,#0x26
        0x00002b18:    1a000010    ....    BNE      0x2b60
        0x00002b1c:    e5c45001    .P..    STRB     r5,[r4,#1]
        0x00002b20:    e5942008    . ..    LDR      r2,[r4,#8]
        0x00002b24:    e2811001    ....    ADD      r1,r1,#1
        0x00002b28:    e1520007    ..R.    CMP      r2,r7
        0x00002b2c:    05d13000    .0..    LDREQB   r3,[r1,#0]
        0x00002b30:    03530032    2.S.    CMPEQ    r3,#0x32
        0x00002b34:    0a000003    ....    BEQ      0x2b48
        0x00002b38:    e1520006    ..R.    CMP      r2,r6
        0x00002b3c:    05d13000    .0..    LDREQB   r3,[r1,#0]
        0x00002b40:    03530031    1.S.    CMPEQ    r3,#0x31
        0x00002b44:    1a000002    ....    BNE      0x2b54
        0x00002b48:    e2811001    ....    ADD      r1,r1,#1
        0x00002b4c:    e5c40002    ....    STRB     r0,[r4,#2]
        0x00002b50:    ea000002    ....    B        0x2b60
        0x00002b54:    e1520007    ..R.    CMP      r2,r7
        0x00002b58:    18bd00f8    ....    LDMNEFD  r13!,{r3-r7}
        0x00002b5c:    149df004    ....    LDRNE    pc,[r13],#4
        0x00002b60:    e5d12000    . ..    LDRB     r2,[r1,#0]
        0x00002b64:    e3520000    ..R.    CMP      r2,#0
        0x00002b68:    0a000006    ....    BEQ      0x2b88
        0x00002b6c:    e5d42002    . ..    LDRB     r2,[r4,#2]
        0x00002b70:    e3520000    ..R.    CMP      r2,#0
        0x00002b74:    08bd00f8    ....    LDMEQFD  r13!,{r3-r7}
        0x00002b78:    049df004    ....    LDREQ    pc,[r13],#4
        0x00002b7c:    e5c4e000    ....    STRB     r14,[r4,#0]
        0x00002b80:    e5841004    ....    STR      r1,[r4,#4]
        0x00002b84:    ea00000e    ....    B        0x2bc4
        0x00002b88:    e5c45000    .P..    STRB     r5,[r4,#0]
        0x00002b8c:    e5840004    ....    STR      r0,[r4,#4]
        0x00002b90:    e5d41002    ....    LDRB     r1,[r4,#2]
        0x00002b94:    e3510000    ..Q.    CMP      r1,#0
        0x00002b98:    18bd00f8    ....    LDMNEFD  r13!,{r3-r7}
        0x00002b9c:    149df004    ....    LDRNE    pc,[r13],#4
        0x00002ba0:    e5c4e000    ....    STRB     r14,[r4,#0]
        0x00002ba4:    ea000006    ....    B        0x2bc4
        0x00002ba8:    e3530001    ..S.    CMP      r3,#1
        0x00002bac:    05841004    ....    STREQ    r1,[r4,#4]
        0x00002bb0:    05c4e000    ....    STREQB   r14,[r4,#0]
        0x00002bb4:    0a000002    ....    BEQ      0x2bc4
        0x00002bb8:    e3530002    ..S.    CMP      r3,#2
        0x00002bbc:    18bd00f8    ....    LDMNEFD  r13!,{r3-r7}
        0x00002bc0:    149df004    ....    LDRNE    pc,[r13],#4
        0x00002bc4:    e5941004    ....    LDR      r1,[r4,#4]
        0x00002bc8:    e5945008    .P..    LDR      r5,[r4,#8]
        0x00002bcc:    e3510000    ..Q.    CMP      r1,#0
        0x00002bd0:    0a00000f    ....    BEQ      0x2c14
        0x00002bd4:    e5c40003    ....    STRB     r0,[r4,#3]
        0x00002bd8:    e1a00001    ....    MOV      r0,r1
        0x00002bdc:    e2841002    ....    ADD      r1,r4,#2
        0x00002be0:    e1a02005    . ..    MOV      r2,r5
        0x00002be4:    ebfffa0a    ....    BL       freopen  ; 0x1414
        0x00002be8:    e3500000    ..P.    CMP      r0,#0
        0x00002bec:    03a00008    ....    MOVEQ    r0,#8
        0x00002bf0:    05941004    ....    LDREQ    r1,[r4,#4]
        0x00002bf4:    0bfffedb    ....    BLEQ     __32__rt_raise  ; 0x2768
        0x00002bf8:    e1550006    ..U.    CMP      r5,r6
        0x00002bfc:    0a000004    ....    BEQ      0x2c14
        0x00002c00:    e3a03f80    .?..    MOV      r3,#0x200
        0x00002c04:    e3a02f40    @/..    MOV      r2,#0x100
        0x00002c08:    e3a01000    ....    MOV      r1,#0
        0x00002c0c:    e1a00005    ....    MOV      r0,r5
        0x00002c10:    ebfffee5    ....    BL       setvbuf  ; 0x27ac
        0x00002c14:    e5d40001    ....    LDRB     r0,[r4,#1]
        0x00002c18:    e3500000    ..P.    CMP      r0,#0
        0x00002c1c:    0a000004    ....    BEQ      0x2c34
        0x00002c20:    e1550007    ..U.    CMP      r5,r7
        0x00002c24:    11a00007    ....    MOVNE    r0,r7
        0x00002c28:    01a00006    ....    MOVEQ    r0,r6
        0x00002c2c:    e1a01005    ....    MOV      r1,r5
        0x00002c30:    eb000160    `...    BL       __dup  ; 0x31b8
        0x00002c34:    e3a00003    ....    MOV      r0,#3
        0x00002c38:    e5c40000    ....    STRB     r0,[r4,#0]
        0x00002c3c:    e8bd00f8    ....    LDMFD    r13!,{r3-r7}
        0x00002c40:    e49df004    ....    LDR      pc,[r13],#4
    $d
        0x00002c44:    00004890    .H..    DCD    18576
        0x00002c48:    0000484c    LH..    DCD    18508
        0x00002c4c:    00004808    .H..    DCD    18440
    _btod_etento
    $a
    .text
        0x00002c50:    e92d4d80    .M-.    STMFD    r13!,{r7,r8,r10,r11,r14}
        0x00002c54:    e92d0070    p.-.    STMFD    r13!,{r4-r6}
        0x00002c58:    e1a05002    .P..    MOV      r5,r2
        0x00002c5c:    e59f2138    8!..    LDR      r2,0x2d9c
        0x00002c60:    e24dd028    (.M.    SUB      r13,r13,#0x28
        0x00002c64:    e1a0a000    ....    MOV      r10,r0
        0x00002c68:    e08f2002    . ..    ADD      r2,pc,r2
        0x00002c6c:    e28d001c    ....    ADD      r0,r13,#0x1c
        0x00002c70:    e8920058    X...    LDMIA    r2,{r3,r4,r6}
        0x00002c74:    e8800058    X...    STMIA    r0,{r3,r4,r6}
        0x00002c78:    e59f0120     ...    LDR      r0,0x2da0
        0x00002c7c:    e08f0000    ....    ADD      r0,pc,r0
        0x00002c80:    e890001c    ....    LDMIA    r0,{r2-r4}
        0x00002c84:    e28db010    ....    ADD      r11,r13,#0x10
        0x00002c88:    e2810d6e    n...    ADD      r0,r1,#0x1b80
        0x00002c8c:    e280101b    ....    ADD      r1,r0,#0x1b
        0x00002c90:    e3a00037    7...    MOV      r0,#0x37
        0x00002c94:    e88b001c    ....    STMIA    r11,{r2-r4}
        0x00002c98:    eb0000d3    ....    BL       __rt_sdiv  ; 0x2fec
        0x00002c9c:    e241401b    .@A.    SUB      r4,r1,#0x1b
        0x00002ca0:    e3540000    ..T.    CMP      r4,#0
        0x00002ca4:    a3a08000    ....    MOVGE    r8,#0
        0x00002ca8:    b2644000    .@d.    RSBLT    r4,r4,#0
        0x00002cac:    b3a08001    ....    MOVLT    r8,#1
        0x00002cb0:    e3540000    ..T.    CMP      r4,#0
        0x00002cb4:    e2406080    .`@.    SUB      r6,r0,#0x80
        0x00002cb8:    e3a07000    .p..    MOV      r7,#0
        0x00002cbc:    0a00000d    ....    BEQ      0x2cf8
        0x00002cc0:    e3140001    ....    TST      r4,#1
        0x00002cc4:    0a000008    ....    BEQ      0x2cec
        0x00002cc8:    e59f10d4    ....    LDR      r1,0x2da4
        0x00002ccc:    e0870087    ....    ADD      r0,r7,r7,LSL #1
        0x00002cd0:    e08f1001    ....    ADD      r1,pc,r1
        0x00002cd4:    e0811100    ....    ADD      r1,r1,r0,LSL #2
        0x00002cd8:    e28d001c    ....    ADD      r0,r13,#0x1c
        0x00002cdc:    e1a02005    . ..    MOV      r2,r5
        0x00002ce0:    eb000263    c...    BL       _btod_emul  ; 0x3674
        0x00002ce4:    e28d301c    .0..    ADD      r3,r13,#0x1c
        0x00002ce8:    e8830007    ....    STMIA    r3,{r0-r2}
        0x00002cec:    e1b040c4    .@..    MOVS     r4,r4,ASR #1
        0x00002cf0:    e2877001    .p..    ADD      r7,r7,#1
        0x00002cf4:    1afffff1    ....    BNE      0x2cc0
        0x00002cf8:    e3a04000    .@..    MOV      r4,#0
        0x00002cfc:    e3560000    ..V.    CMP      r6,#0
        0x00002d00:    0a000016    ....    BEQ      0x2d60
        0x00002d04:    e28d7004    .p..    ADD      r7,r13,#4
        0x00002d08:    e3160001    ....    TST      r6,#1
        0x00002d0c:    0a000010    ....    BEQ      0x2d54
        0x00002d10:    e59f0090    ....    LDR      r0,0x2da8
        0x00002d14:    e08f0000    ....    ADD      r0,pc,r0
        0x00002d18:    e0800204    ....    ADD      r0,r0,r4,LSL #4
        0x00002d1c:    e890000e    ....    LDMIA    r0,{r1-r3}
        0x00002d20:    e887000e    ....    STMIA    r7,{r1-r3}
        0x00002d24:    e590000c    ....    LDR      r0,[r0,#0xc]
        0x00002d28:    e1a02005    . ..    MOV      r2,r5
        0x00002d2c:    e2600000    ..`.    RSB      r0,r0,#0
        0x00002d30:    e1500005    ..P.    CMP      r0,r5
        0x00002d34:    059d000c    ....    LDREQ    r0,[r13,#0xc]
        0x00002d38:    e1a01007    ....    MOV      r1,r7
        0x00002d3c:    00800005    ....    ADDEQ    r0,r0,r5
        0x00002d40:    058d000c    ....    STREQ    r0,[r13,#0xc]
        0x00002d44:    e1a0000b    ....    MOV      r0,r11
        0x00002d48:    eb000249    I...    BL       _btod_emul  ; 0x3674
        0x00002d4c:    e28d3010    .0..    ADD      r3,r13,#0x10
        0x00002d50:    e8830007    ....    STMIA    r3,{r0-r2}
        0x00002d54:    e1b060c6    .`..    MOVS     r6,r6,ASR #1
        0x00002d58:    e2844001    .@..    ADD      r4,r4,#1
        0x00002d5c:    1affffe9    ....    BNE      0x2d08
        0x00002d60:    e3580000    ..X.    CMP      r8,#0
        0x00002d64:    e1a02005    . ..    MOV      r2,r5
        0x00002d68:    e28d101c    ....    ADD      r1,r13,#0x1c
        0x00002d6c:    e1a0000b    ....    MOV      r0,r11
        0x00002d70:    0a000004    ....    BEQ      0x2d88
        0x00002d74:    eb00024a    J...    BL       _btod_ediv  ; 0x36a4
        0x00002d78:    e88a0007    ....    STMIA    r10,{r0-r2}
        0x00002d7c:    e28dd028    (...    ADD      r13,r13,#0x28
        0x00002d80:    e8bd01f0    ....    LDMFD    r13!,{r4-r8}
        0x00002d84:    e8bd8c00    ....    LDMFD    r13!,{r10,r11,pc}
        0x00002d88:    eb000239    9...    BL       _btod_emul  ; 0x3674
        0x00002d8c:    e88a0007    ....    STMIA    r10,{r0-r2}
        0x00002d90:    e28dd028    (...    ADD      r13,r13,#0x28
        0x00002d94:    e8bd01f0    ....    LDMFD    r13!,{r4-r8}
        0x00002d98:    e8bd8c00    ....    LDMFD    r13!,{r10,r11,pc}
    $d
        0x00002d9c:    00001a34    4...    DCD    6708
        0x00002da0:    00001a2c    ,...    DCD    6700
        0x00002da4:    00001950    P...    DCD    6480
        0x00002da8:    00001948    H...    DCD    6472
    ftell
    $a
    .text
        0x00002dac:    e92d4008    .@-.    STMFD    r13!,{r3,r14}
        0x00002db0:    e590100c    ....    LDR      r1,[r0,#0xc]
        0x00002db4:    e3110003    ....    TST      r1,#3
        0x00002db8:    1a000004    ....    BNE      0x2dd0
        0x00002dbc:    eb00017a    z...    BL       __rt_errno_addr  ; 0x33ac
        0x00002dc0:    e3a01001    ....    MOV      r1,#1
        0x00002dc4:    e5801000    ....    STR      r1,[r0,#0]
        0x00002dc8:    e3e00000    ....    MVN      r0,#0
        0x00002dcc:    e8bd8008    ....    LDMFD    r13!,{r3,pc}
        0x00002dd0:    e3110020     ...    TST      r1,#0x20
        0x00002dd4:    15900028    (...    LDRNE    r0,[r0,#0x28]
        0x00002dd8:    1a000004    ....    BNE      0x2df0
        0x00002ddc:    e5902004    . ..    LDR      r2,[r0,#4]
        0x00002de0:    e5903018    .0..    LDR      r3,[r0,#0x18]
        0x00002de4:    e5900010    ....    LDR      r0,[r0,#0x10]
        0x00002de8:    e0822003    . ..    ADD      r2,r2,r3
        0x00002dec:    e0420000    ..B.    SUB      r0,r2,r0
        0x00002df0:    e2011a80    ....    AND      r1,r1,#0x80000
        0x00002df4:    e3510000    ..Q.    CMP      r1,#0
        0x00002df8:    13500000    ..P.    CMPNE    r0,#0
        0x00002dfc:    c2400001    ..@.    SUBGT    r0,r0,#1
        0x00002e00:    e8bd8008    ....    LDMFD    r13!,{r3,pc}
    __Heap_Initialize
    .text
        0x00002e04:    e3a01000    ....    MOV      r1,#0
        0x00002e08:    e5801000    ....    STR      r1,[r0,#0]
        0x00002e0c:    e5801004    ....    STR      r1,[r0,#4]
        0x00002e10:    e5800008    ....    STR      r0,[r0,#8]
        0x00002e14:    e1a0f00e    ....    MOV      pc,r14
    __Heap_DescSize
        0x00002e18:    e3a0000c    ....    MOV      r0,#0xc
        0x00002e1c:    e1a0f00e    ....    MOV      pc,r14
    __Heap_Alloc
        0x00002e20:    e92d4038    8@-.    STMFD    r13!,{r3-r5,r14}
        0x00002e24:    e1a05000    .P..    MOV      r5,r0
        0x00002e28:    e2810004    ....    ADD      r0,r1,#4
        0x00002e2c:    e3500008    ..P.    CMP      r0,#8
        0x00002e30:    33a00008    ...3    MOVCC    r0,#8
        0x00002e34:    e2800007    ....    ADD      r0,r0,#7
        0x00002e38:    e3c04007    .@..    BIC      r4,r0,#7
        0x00002e3c:    e2410001    ..A.    SUB      r0,r1,#1
        0x00002e40:    e1540000    ..T.    CMP      r4,r0
        0x00002e44:    93a00000    ....    MOVLS    r0,#0
        0x00002e48:    98bd8038    8...    LDMLSFD  r13!,{r3-r5,pc}
        0x00002e4c:    e5950004    ....    LDR      r0,[r5,#4]
        0x00002e50:    e1a01005    ....    MOV      r1,r5
        0x00002e54:    e3500000    ..P.    CMP      r0,#0
        0x00002e58:    0a000016    ....    BEQ      0x2eb8
        0x00002e5c:    e5902000    . ..    LDR      r2,[r0,#0]
        0x00002e60:    e1520004    ..R.    CMP      r2,r4
        0x00002e64:    3a00000f    ...:    BCC      0x2ea8
        0x00002e68:    e5902000    . ..    LDR      r2,[r0,#0]
        0x00002e6c:    e2843008    .0..    ADD      r3,r4,#8
        0x00002e70:    e1520003    ..R.    CMP      r2,r3
        0x00002e74:    35902004    . .5    LDRCC    r2,[r0,#4]
        0x00002e78:    35812004    . .5    STRCC    r2,[r1,#4]
        0x00002e7c:    3a000007    ...:    BCC      0x2ea0
        0x00002e80:    e5903004    .0..    LDR      r3,[r0,#4]
        0x00002e84:    e0802004    . ..    ADD      r2,r0,r4
        0x00002e88:    e5823004    .0..    STR      r3,[r2,#4]
        0x00002e8c:    e5903000    .0..    LDR      r3,[r0,#0]
        0x00002e90:    e0433004    .0C.    SUB      r3,r3,r4
        0x00002e94:    e5823000    .0..    STR      r3,[r2,#0]
        0x00002e98:    e5812004    . ..    STR      r2,[r1,#4]
        0x00002e9c:    e5804000    .@..    STR      r4,[r0,#0]
        0x00002ea0:    e2800004    ....    ADD      r0,r0,#4
        0x00002ea4:    e8bd8038    8...    LDMFD    r13!,{r3-r5,pc}
        0x00002ea8:    e1a01000    ....    MOV      r1,r0
        0x00002eac:    e5900004    ....    LDR      r0,[r0,#4]
        0x00002eb0:    e3500000    ..P.    CMP      r0,#0
        0x00002eb4:    1affffe8    ....    BNE      0x2e5c
        0x00002eb8:    e1a01004    ....    MOV      r1,r4
        0x00002ebc:    e1a00005    ....    MOV      r0,r5
        0x00002ec0:    ebfffdd4    ....    BL       __Heap_Full  ; 0x2618
        0x00002ec4:    e3500000    ..P.    CMP      r0,#0
        0x00002ec8:    1affffdf    ....    BNE      0x2e4c
        0x00002ecc:    e3a00000    ....    MOV      r0,#0
        0x00002ed0:    e8bd8038    8...    LDMFD    r13!,{r3-r5,pc}
    __Heap_ProvideMemory
    .text
        0x00002ed4:    e92d4008    .@-.    STMFD    r13!,{r3,r14}
        0x00002ed8:    e5903004    .0..    LDR      r3,[r0,#4]
        0x00002edc:    e1a0c000    ....    MOV      r12,r0
        0x00002ee0:    ea000001    ....    B        0x2eec
        0x00002ee4:    e1a0c003    ....    MOV      r12,r3
        0x00002ee8:    e5933004    .0..    LDR      r3,[r3,#4]
        0x00002eec:    e3530000    ..S.    CMP      r3,#0
        0x00002ef0:    11530001    ..S.    CMPNE    r3,r1
        0x00002ef4:    3afffffa    ...:    BCC      0x2ee4
        0x00002ef8:    e59c3000    .0..    LDR      r3,[r12,#0]
        0x00002efc:    e083300c    .0..    ADD      r3,r3,r12
        0x00002f00:    e1530001    ..S.    CMP      r3,r1
        0x00002f04:    12811003    ....    ADDNE    r1,r1,#3
        0x00002f08:    13c11007    ....    BICNE    r1,r1,#7
        0x00002f0c:    12811004    ....    ADDNE    r1,r1,#4
        0x00002f10:    e4812004    . ..    STR      r2,[r1],#4
        0x00002f14:    e8bd4008    .@..    LDMFD    r13!,{r3,r14}
        0x00002f18:    eaffffff    ....    B        __Heap_Free  ; 0x2f1c
    __Heap_Free
    .text
        0x00002f1c:    e1a02000    . ..    MOV      r2,r0
        0x00002f20:    e5900004    ....    LDR      r0,[r0,#4]
        0x00002f24:    e2411004    ..A.    SUB      r1,r1,#4
        0x00002f28:    ea000001    ....    B        0x2f34
        0x00002f2c:    e1a02000    . ..    MOV      r2,r0
        0x00002f30:    e5900004    ....    LDR      r0,[r0,#4]
        0x00002f34:    e3500000    ..P.    CMP      r0,#0
        0x00002f38:    11500001    ..P.    CMPNE    r0,r1
        0x00002f3c:    3afffffa    ...:    BCC      0x2f2c
        0x00002f40:    e5923000    .0..    LDR      r3,[r2,#0]
        0x00002f44:    e083c002    ....    ADD      r12,r3,r2
        0x00002f48:    e15c0001    ..\.    CMP      r12,r1
        0x00002f4c:    15821004    ....    STRNE    r1,[r2,#4]
        0x00002f50:    1a000003    ....    BNE      0x2f64
        0x00002f54:    e5911000    ....    LDR      r1,[r1,#0]
        0x00002f58:    e0831001    ....    ADD      r1,r3,r1
        0x00002f5c:    e5821000    ....    STR      r1,[r2,#0]
        0x00002f60:    e1a01002    ....    MOV      r1,r2
        0x00002f64:    e5912000    . ..    LDR      r2,[r1,#0]
        0x00002f68:    e0823001    .0..    ADD      r3,r2,r1
        0x00002f6c:    e1530000    ..S.    CMP      r3,r0
        0x00002f70:    15810004    ....    STRNE    r0,[r1,#4]
        0x00002f74:    11a0f00e    ....    MOVNE    pc,r14
        0x00002f78:    e5903004    .0..    LDR      r3,[r0,#4]
        0x00002f7c:    e5813004    .0..    STR      r3,[r1,#4]
        0x00002f80:    e5900000    ....    LDR      r0,[r0,#0]
        0x00002f84:    e0820000    ....    ADD      r0,r2,r0
        0x00002f88:    e5810000    ....    STR      r0,[r1,#0]
        0x00002f8c:    e1a0f00e    ....    MOV      pc,r14
    __heap_extend
    .text
        0x00002f90:    e92d4010    .@-.    STMFD    r13!,{r4,r14}
        0x00002f94:    eb00012f    /...    BL       __rt_heap_extend  ; 0x3458
        0x00002f98:    e8bd8010    ....    LDMFD    r13!,{r4,pc}
    __heap_guard
    .text
        0x00002f9c:    e1a0f00e    ....    MOV      pc,r14
    __I_use_heap
        0x00002fa0:    e1a0f00e    ....    MOV      pc,r14
    _get_lc_numeric
    .text
        0x00002fa4:    e92d4008    .@-.    STMFD    r13!,{r3,r14}
        0x00002fa8:    e1b00001    ....    MOVS     r0,r1
        0x00002fac:    15d01000    ....    LDRNEB   r1,[r0,#0]
        0x00002fb0:    13510000    ..Q.    CMPNE    r1,#0
        0x00002fb4:    0a000004    ....    BEQ      0x2fcc
        0x00002fb8:    e28f1018    ....    ADD      r1,pc,#0x18 ; #0x2fd8
        0x00002fbc:    ebfff4de    ....    BL       strcmp  ; 0x33c
        0x00002fc0:    e3500000    ..P.    CMP      r0,#0
        0x00002fc4:    13a00000    ....    MOVNE    r0,#0
        0x00002fc8:    18bd8008    ....    LDMNEFD  r13!,{r3,pc}
        0x00002fcc:    e59f0008    ....    LDR      r0,0x2fdc
        0x00002fd0:    e08f0000    ....    ADD      r0,pc,r0
        0x00002fd4:    e8bd8008    ....    LDMFD    r13!,{r3,pc}
    $d
        0x00002fd8:    00000043    C...    DCD    67
        0x00002fdc:    000016f4    ....    DCD    5876
    __user_libspace
    $a
    .text
        0x00002fe0:    e59f0000    ....    LDR      r0,0x2fe8
        0x00002fe4:    e1a0f00e    ....    MOV      pc,r14
    $d
        0x00002fe8:    000048d4    .H..    DCD    18644
    __rt_sdiv
    $a
    .text
        0x00002fec:    e2102480    .$..    ANDS     r2,r0,#0x80000000
        0x00002ff0:    42600000    ..`B    RSBMI    r0,r0,#0
        0x00002ff4:    e0323041    A02.    EORS     r3,r2,r1,ASR #32
        0x00002ff8:    22611000    ..a"    RSBCS    r1,r1,#0
        0x00002ffc:    e070c1a1    ..p.    RSBS     r12,r0,r1,LSR #3
        0x00003000:    3a000020     ..:    BCC      0x3088
        0x00003004:    e070c421    !.p.    RSBS     r12,r0,r1,LSR #8
        0x00003008:    3a00000f    ...:    BCC      0x304c
        0x0000300c:    e1a00400    ....    MOV      r0,r0,LSL #8
        0x00003010:    e38224ff    .$..    ORR      r2,r2,#0xff000000
        0x00003014:    e070c221    !.p.    RSBS     r12,r0,r1,LSR #4
        0x00003018:    3a000017    ...:    BCC      0x307c
        0x0000301c:    e070c421    !.p.    RSBS     r12,r0,r1,LSR #8
        0x00003020:    3a000009    ...:    BCC      0x304c
        0x00003024:    e1a00400    ....    MOV      r0,r0,LSL #8
        0x00003028:    e38228ff    .(..    ORR      r2,r2,#0xff0000
        0x0000302c:    e070c421    !.p.    RSBS     r12,r0,r1,LSR #8
        0x00003030:    21a00400    ...!    MOVCS    r0,r0,LSL #8
        0x00003034:    23822cff    .,.#    ORRCS    r2,r2,#0xff00
        0x00003038:    e070c221    !.p.    RSBS     r12,r0,r1,LSR #4
        0x0000303c:    3a00000e    ...:    BCC      0x307c
        0x00003040:    e270c000    ..p.    RSBS     r12,r0,#0
        0x00003044:    2a0000d5    ...*    BCS      __rt_div0  ; 0x33a0
        0x00003048:    21a00420     ..!    MOVCS    r0,r0,LSR #8
        0x0000304c:    e070c3a1    ..p.    RSBS     r12,r0,r1,LSR #7
        0x00003050:    20411380    ..A     SUBCS    r1,r1,r0,LSL #7
        0x00003054:    e0a22002    . ..    ADC      r2,r2,r2
        0x00003058:    e070c321    !.p.    RSBS     r12,r0,r1,LSR #6
        0x0000305c:    20411300    ..A     SUBCS    r1,r1,r0,LSL #6
        0x00003060:    e0a22002    . ..    ADC      r2,r2,r2
        0x00003064:    e070c2a1    ..p.    RSBS     r12,r0,r1,LSR #5
        0x00003068:    20411280    ..A     SUBCS    r1,r1,r0,LSL #5
        0x0000306c:    e0a22002    . ..    ADC      r2,r2,r2
        0x00003070:    e070c221    !.p.    RSBS     r12,r0,r1,LSR #4
        0x00003074:    20411200    ..A     SUBCS    r1,r1,r0,LSL #4
        0x00003078:    e0a22002    . ..    ADC      r2,r2,r2
        0x0000307c:    e070c1a1    ..p.    RSBS     r12,r0,r1,LSR #3
        0x00003080:    20411180    ..A     SUBCS    r1,r1,r0,LSL #3
        0x00003084:    e0a22002    . ..    ADC      r2,r2,r2
        0x00003088:    e070c121    !.p.    RSBS     r12,r0,r1,LSR #2
        0x0000308c:    20411100    ..A     SUBCS    r1,r1,r0,LSL #2
        0x00003090:    e0a22002    . ..    ADC      r2,r2,r2
        0x00003094:    e070c0a1    ..p.    RSBS     r12,r0,r1,LSR #1
        0x00003098:    20411080    ..A     SUBCS    r1,r1,r0,LSL #1
        0x0000309c:    e0a22002    . ..    ADC      r2,r2,r2
        0x000030a0:    e070c001    ..p.    RSBS     r12,r0,r1
        0x000030a4:    20411000    ..A     SUBCS    r1,r1,r0
        0x000030a8:    e0b22002    . ..    ADCS     r2,r2,r2
        0x000030ac:    2affffe5    ...*    BCS      0x3048
        0x000030b0:    e0320fc3    ..2.    EORS     r0,r2,r3,ASR #31
        0x000030b4:    e0800fa3    ....    ADD      r0,r0,r3,LSR #31
        0x000030b8:    22611000    ..a"    RSBCS    r1,r1,#0
        0x000030bc:    e1a0f00e    ....    MOV      pc,r14
    __rt_sdiv10
    .text
        0x000030c0:    e1b03000    .0..    MOVS     r3,r0
        0x000030c4:    42600000    ..`B    RSBMI    r0,r0,#0
        0x000030c8:    e240100a    ..@.    SUB      r1,r0,#0xa
        0x000030cc:    e0400120     .@.    SUB      r0,r0,r0,LSR #2
        0x000030d0:    e0800220     ...    ADD      r0,r0,r0,LSR #4
        0x000030d4:    e0800420     ...    ADD      r0,r0,r0,LSR #8
        0x000030d8:    e0800820     ...    ADD      r0,r0,r0,LSR #16
        0x000030dc:    e1a001a0    ....    MOV      r0,r0,LSR #3
        0x000030e0:    e0802100    .!..    ADD      r2,r0,r0,LSL #2
        0x000030e4:    e0511082    ..Q.    SUBS     r1,r1,r2,LSL #1
        0x000030e8:    52800001    ...R    ADDPL    r0,r0,#1
        0x000030ec:    4281100a    ...B    ADDMI    r1,r1,#0xa
        0x000030f0:    e1b03003    .0..    MOVS     r3,r3
        0x000030f4:    42600000    ..`B    RSBMI    r0,r0,#0
        0x000030f8:    42611000    ..aB    RSBMI    r1,r1,#0
        0x000030fc:    e1a0f00e    ....    MOV      pc,r14
    _sys_exit
    .text
        0x00003100:    e3a00018    ....    MOV      r0,#0x18
        0x00003104:    e59f1008    ....    LDR      r1,0x3114
        0x00003108:    ef123456    V4..    SWI      0x123456
        0x0000310c:    e1a0f00e    ....    MOV      pc,r14
    $d
    $f
        0x00003110:    00000008    ....    DCD    8
        0x00003114:    00020026    &...    DCD    131110
    __32__I_use_semihosting_swi
    __I_use_semihosting_swi
    __semihosting_swi_guard
    $a
    .text
        0x00003118:    e1a0f00e    ....    MOV      pc,r14
    __mathlib_classify
    .text
        0x0000311c:    e5902004    . ..    LDR      r2,[r0,#4]
        0x00003120:    e59f3038    80..    LDR      r3,0x3160
        0x00003124:    e1a02fa2    ./..    MOV      r2,r2,LSR #31
        0x00003128:    e5812000    . ..    STR      r2,[r1,#0]
        0x0000312c:    e5901004    ....    LDR      r1,[r0,#4]
        0x00003130:    e1a02081    . ..    MOV      r2,r1,LSL #1
        0x00003134:    e1530aa2    ..S.    CMP      r3,r2,LSR #21
        0x00003138:    13a00000    ....    MOVNE    r0,#0
        0x0000313c:    1a000005    ....    BNE      0x3158
        0x00003140:    e1a01601    ....    MOV      r1,r1,LSL #12
        0x00003144:    e1b01621    !...    MOVS     r1,r1,LSR #12
        0x00003148:    05900000    ....    LDREQ    r0,[r0,#0]
        0x0000314c:    03500000    ..P.    CMPEQ    r0,#0
        0x00003150:    13a00001    ....    MOVNE    r0,#1
        0x00003154:    03a00002    ....    MOVEQ    r0,#2
        0x00003158:    e20000ff    ....    AND      r0,r0,#0xff
        0x0000315c:    e1a0f00e    ....    MOV      pc,r14
    $d
        0x00003160:    000007ff    ....    DCD    2047
    __support_dtoi
    $a
    .text
        0x00003164:    e92d4010    .@-.    STMFD    r13!,{r4,r14}
        0x00003168:    e1a04002    .@..    MOV      r4,r2
        0x0000316c:    e5902004    . ..    LDR      r2,[r0,#4]
        0x00003170:    e5812000    . ..    STR      r2,[r1,#0]
        0x00003174:    e5903000    .0..    LDR      r3,[r0,#0]
        0x00003178:    e5813004    .0..    STR      r3,[r1,#4]
        0x0000317c:    e1a01082    ....    MOV      r1,r2,LSL #1
        0x00003180:    e1b02aa1    .*..    MOVS     r2,r1,LSR #21
        0x00003184:    11a00aa1    ....    MOVNE    r0,r1,LSR #21
        0x00003188:    1a000006    ....    BNE      0x31a8
        0x0000318c:    e28f101c    ....    ADD      r1,pc,#0x1c ; #0x31b0
        0x00003190:    e891000c    ....    LDMIA    r1,{r2,r3}
        0x00003194:    e8900003    ....    LDMIA    r0,{r0,r1}
        0x00003198:    eb00032e    ....    BL       _dmul  ; 0x3e58
        0x0000319c:    e1a00081    ....    MOV      r0,r1,LSL #1
        0x000031a0:    e3e0103f    ?...    MVN      r1,#0x3f
        0x000031a4:    e0810aa0    ....    ADD      r0,r1,r0,LSR #21
        0x000031a8:    e5840000    ....    STR      r0,[r4,#0]
        0x000031ac:    e8bd8010    ....    LDMFD    r13!,{r4,pc}
    $d
        0x000031b0:    00000000    ....    DCD    0
        0x000031b4:    43f00000    ...C    DCD    1139802112
    __dup
    $a
    .text
        0x000031b8:    e92d4038    8@-.    STMFD    r13!,{r3-r5,r14}
        0x000031bc:    e1a05001    .P..    MOV      r5,r1
        0x000031c0:    e1a04000    .@..    MOV      r4,r0
        0x000031c4:    ebfff865    e...    BL       fclose  ; 0x1360
        0x000031c8:    e3a01003    ....    MOV      r1,#3
        0x000031cc:    e595000c    ....    LDR      r0,[r5,#0xc]
        0x000031d0:    e2811c8f    ....    ADD      r1,r1,#0x8f00
        0x000031d4:    e0000001    ....    AND      r0,r0,r1
        0x000031d8:    e584000c    ....    STR      r0,[r4,#0xc]
        0x000031dc:    e5950014    ....    LDR      r0,[r5,#0x14]
        0x000031e0:    e3a01000    ....    MOV      r1,#0
        0x000031e4:    e5840014    ....    STR      r0,[r4,#0x14]
        0x000031e8:    e1a00004    ....    MOV      r0,r4
        0x000031ec:    e3a03040    @0..    MOV      r3,#0x40
        0x000031f0:    e3a02f80    ./..    MOV      r2,#0x200
        0x000031f4:    ebfffd6c    l...    BL       setvbuf  ; 0x27ac
        0x000031f8:    e1a00005    ....    MOV      r0,r5
        0x000031fc:    e28dd004    ....    ADD      r13,r13,#4
        0x00003200:    e8bd4030    0@..    LDMFD    r13!,{r4,r5,r14}
        0x00003204:    e3a03040    @0..    MOV      r3,#0x40
        0x00003208:    e3a02f80    ./..    MOV      r2,#0x200
        0x0000320c:    e3a01000    ....    MOV      r1,#0
        0x00003210:    eafffd65    e...    B        setvbuf  ; 0x27ac
    _fisatty
        0x00003214:    e92d4008    .@-.    STMFD    r13!,{r3,r14}
        0x00003218:    e590100c    ....    LDR      r1,[r0,#0xc]
        0x0000321c:    e3110001    ....    TST      r1,#1
        0x00003220:    0a000004    ....    BEQ      0x3238
        0x00003224:    e5900014    ....    LDR      r0,[r0,#0x14]
        0x00003228:    ebfffdcf    ....    BL       _sys_istty  ; 0x296c
        0x0000322c:    e3500000    ..P.    CMP      r0,#0
        0x00003230:    13a00001    ....    MOVNE    r0,#1
        0x00003234:    18bd8008    ....    LDMNEFD  r13!,{r3,pc}
        0x00003238:    e3a00000    ....    MOV      r0,#0
        0x0000323c:    e8bd8008    ....    LDMFD    r13!,{r3,pc}
    __default_signal_handler
    .text
        0x00003240:    e92d4038    8@-.    STMFD    r13!,{r3-r5,r14}
        0x00003244:    e2402001    . @.    SUB      r2,r0,#1
        0x00003248:    e352000d    ..R.    CMP      r2,#0xd
        0x0000324c:    228f50d4    .P."    ADDCS    r5,pc,#0xd4 ; #0x3328
        0x00003250:    e28f40cc    .@..    ADD      r4,pc,#0xcc ; #0x3324
        0x00003254:    2a00001c    ...*    BCS      0x32cc
        0x00003258:    e59f30d8    .0..    LDR      r3,0x3338
        0x0000325c:    e0602180    .!`.    RSB      r2,r0,r0,LSL #3
        0x00003260:    e0822200    ."..    ADD      r2,r2,r0,LSL #4
        0x00003264:    e08f3003    .0..    ADD      r3,pc,r3
        0x00003268:    e0822003    . ..    ADD      r2,r2,r3
        0x0000326c:    e2425017    .PB.    SUB      r5,r2,#0x17
        0x00003270:    e3500002    ..P.    CMP      r0,#2
        0x00003274:    1a00000e    ....    BNE      0x32b4
        0x00003278:    e3110640    @...    TST      r1,#0x4000000
        0x0000327c:    128f40b8    .@..    ADDNE    r4,pc,#0xb8 ; #0x333c
        0x00003280:    1a000011    ....    BNE      0x32cc
        0x00003284:    e3110382    ....    TST      r1,#0x8000002
        0x00003288:    128f40c0    .@..    ADDNE    r4,pc,#0xc0 ; #0x3350
        0x0000328c:    1a00000e    ....    BNE      0x32cc
        0x00003290:    e3110540    @...    TST      r1,#0x10000000
        0x00003294:    128f40c4    .@..    ADDNE    r4,pc,#0xc4 ; #0x3360
        0x00003298:    1a00000b    ....    BNE      0x32cc
        0x0000329c:    e3110580    ....    TST      r1,#0x20000000
        0x000032a0:    128f40c4    .@..    ADDNE    r4,pc,#0xc4 ; #0x336c
        0x000032a4:    1a000008    ....    BNE      0x32cc
        0x000032a8:    e3110440    @...    TST      r1,#0x40000000
        0x000032ac:    128f40c4    .@..    ADDNE    r4,pc,#0xc4 ; #0x3378
        0x000032b0:    ea000005    ....    B        0x32cc
        0x000032b4:    e3500008    ..P.    CMP      r0,#8
        0x000032b8:    01a04001    .@..    MOVEQ    r4,r1
        0x000032bc:    0a000002    ....    BEQ      0x32cc
        0x000032c0:    e3500009    ..P.    CMP      r0,#9
        0x000032c4:    03510001    ..Q.    CMPEQ    r1,#1
        0x000032c8:    028f50b8    .P..    ADDEQ    r5,pc,#0xb8 ; #0x3388
        0x000032cc:    e3a0000a    ....    MOV      r0,#0xa
        0x000032d0:    eb00008c    ....    BL       _ttywrch  ; 0x3508
        0x000032d4:    e5d50000    ....    LDRB     r0,[r5,#0]
        0x000032d8:    e3500000    ..P.    CMP      r0,#0
        0x000032dc:    0a000004    ....    BEQ      0x32f4
        0x000032e0:    e4d50001    ....    LDRB     r0,[r5],#1
        0x000032e4:    eb000087    ....    BL       _ttywrch  ; 0x3508
        0x000032e8:    e5d50000    ....    LDRB     r0,[r5,#0]
        0x000032ec:    e3500000    ..P.    CMP      r0,#0
        0x000032f0:    1afffffa    ....    BNE      0x32e0
        0x000032f4:    e5d40000    ....    LDRB     r0,[r4,#0]
        0x000032f8:    e3500000    ..P.    CMP      r0,#0
        0x000032fc:    0a000004    ....    BEQ      0x3314
        0x00003300:    e4d40001    ....    LDRB     r0,[r4],#1
        0x00003304:    eb00007f    ....    BL       _ttywrch  ; 0x3508
        0x00003308:    e5d40000    ....    LDRB     r0,[r4,#0]
        0x0000330c:    e3500000    ..P.    CMP      r0,#0
        0x00003310:    1afffffa    ....    BNE      0x3300
        0x00003314:    e3a0000a    ....    MOV      r0,#0xa
        0x00003318:    eb00007a    z...    BL       _ttywrch  ; 0x3508
        0x0000331c:    e3a00001    ....    MOV      r0,#1
        0x00003320:    e8bd8038    8...    LDMFD    r13!,{r3-r5,pc}
    $d
        0x00003324:    00000000    ....    DCD    0
        0x00003328:    6e6b6e55    Unkn    DCD    1852534357
        0x0000332c:    206e776f    own     DCD    544110447
        0x00003330:    6e676973    sign    DCD    1852270963
        0x00003334:    00006c61    al..    DCD    27745
        0x00003338:    00001470    p...    DCD    5232
        0x0000333c:    61766e49    Inva    DCD    1635151433
        0x00003340:    2064696c    lid     DCD    543451500
        0x00003344:    7265704f    Oper    DCD    1919250511
        0x00003348:    6f697461    atio    DCD    1869182049
        0x0000334c:    0000006e    n...    DCD    110
        0x00003350:    69766944    Divi    DCD    1769367876
        0x00003354:    42206564    de B    DCD    1109419364
        0x00003358:    655a2079    y Ze    DCD    1700405369
        0x0000335c:    00006f72    ro..    DCD    28530
        0x00003360:    7265764f    Over    DCD    1919252047
        0x00003364:    776f6c66    flow    DCD    2003790950
        0x00003368:    00000000    ....    DCD    0
        0x0000336c:    65646e55    Unde    DCD    1701080661
        0x00003370:    6f6c6672    rflo    DCD    1869375090
        0x00003374:    00000077    w...    DCD    119
        0x00003378:    78656e49    Inex    DCD    2019913289
        0x0000337c:    20746361    act     DCD    544498529
        0x00003380:    75736552    Resu    DCD    1970496850
        0x00003384:    0000746c    lt..    DCD    29804
        0x00003388:    6548203a    : He    DCD    1699225658
        0x0000338c:    6d207061    ap m    DCD    1830842465
        0x00003390:    726f6d65    emor    DCD    1919905125
        0x00003394:    6f632079    y co    DCD    1868767353
        0x00003398:    70757272    rrup    DCD    1886745202
        0x0000339c:    00646574    ted.    DCD    6579572
    __rt_div0
    $a
    .text
        0x000033a0:    e3a00002    ....    MOV      r0,#2
        0x000033a4:    e3a01002    ....    MOV      r1,#2
        0x000033a8:    eafffcee    ....    B        __32__rt_raise  ; 0x2768
    __rt_errno_addr
    .text
        0x000033ac:    e92d4010    .@-.    STMFD    r13!,{r4,r14}
        0x000033b0:    ebffff0a    ....    BL       __user_libspace  ; 0x2fe0
        0x000033b4:    e8bd8010    ....    LDMFD    r13!,{r4,pc}
    __rt_fp_status_addr
    .text
        0x000033b8:    e92d4010    .@-.    STMFD    r13!,{r4,r14}
        0x000033bc:    ebffff07    ....    BL       __user_libspace  ; 0x2fe0
        0x000033c0:    e2800004    ....    ADD      r0,r0,#4
        0x000033c4:    e8bd8010    ....    LDMFD    r13!,{r4,pc}
    __rt_stackheap_init
    .text
        0x000033c8:    e1a0500e    .P..    MOV      r5,r14
        0x000033cc:    ebffff03    ....    BL       __user_libspace  ; 0x2fe0
        0x000033d0:    e1a0e005    ....    MOV      r14,r5
        0x000033d4:    e1a04000    .@..    MOV      r4,r0
        0x000033d8:    e1a0100d    ....    MOV      r1,r13
        0x000033dc:    e1a0300a    .0..    MOV      r3,r10
        0x000033e0:    e3c00007    ....    BIC      r0,r0,#7
        0x000033e4:    e280d060    `...    ADD      r13,r0,#0x60
        0x000033e8:    e92d4010    .@-.    STMFD    r13!,{r4,r14}
        0x000033ec:    eb000034    4...    BL       __user_initial_stackheap  ; 0x34c4
        0x000033f0:    e8bd4010    .@..    LDMFD    r13!,{r4,r14}
        0x000033f4:    e3c1d007    ....    BIC      r13,r1,#7
        0x000033f8:    e3a06000    .`..    MOV      r6,#0
        0x000033fc:    e3a07000    .p..    MOV      r7,#0
        0x00003400:    e3a08000    ....    MOV      r8,#0
        0x00003404:    e3a0b000    ....    MOV      r11,#0
        0x00003408:    e1a0c004    ....    MOV      r12,r4
        0x0000340c:    e8ac09c0    ....    STMIA    r12!,{r6-r8,r11}
        0x00003410:    e8ac09c0    ....    STMIA    r12!,{r6-r8,r11}
        0x00003414:    e8ac09c0    ....    STMIA    r12!,{r6-r8,r11}
        0x00003418:    e8ac09c0    ....    STMIA    r12!,{r6-r8,r11}
        0x0000341c:    e92d4013    .@-.    STMFD    r13!,{r0,r1,r4,r14}
        0x00003420:    e3a00000    ....    MOV      r0,#0
        0x00003424:    e3a01000    ....    MOV      r1,#0
        0x00003428:    ebffffff    ....    BL       0x342c
        0x0000342c:    e2811040    @...    ADD      r1,r1,#0x40
        0x00003430:    e0802001    . ..    ADD      r2,r0,r1
        0x00003434:    e2822f44    D/..    ADD      r2,r2,#0x110
        0x00003438:    e584201c    . ..    STR      r2,[r4,#0x1c]
        0x0000343c:    e5841018    ....    STR      r1,[r4,#0x18]
        0x00003440:    e3a00001    ....    MOV      r0,#1
        0x00003444:    e5840010    ....    STR      r0,[r4,#0x10]
        0x00003448:    e8bd4013    .@..    LDMFD    r13!,{r0,r1,r4,r14}
        0x0000344c:    e5840014    ....    STR      r0,[r4,#0x14]
        0x00003450:    e1a01000    ....    MOV      r1,r0
        0x00003454:    e1a0f00e    ....    MOV      pc,r14
    __rt_heap_extend
        0x00003458:    e92d4010    .@-.    STMFD    r13!,{r4,r14}
        0x0000345c:    e92d0003    ..-.    STMFD    r13!,{r0,r1}
        0x00003460:    ebfffede    ....    BL       __user_libspace  ; 0x2fe0
        0x00003464:    e1a04000    .@..    MOV      r4,r0
        0x00003468:    e8bd0003    ....    LDMFD    r13!,{r0,r1}
        0x0000346c:    e594301c    .0..    LDR      r3,[r4,#0x1c]
        0x00003470:    e04d3003    .0M.    SUB      r3,r13,r3
        0x00003474:    e5942014    . ..    LDR      r2,[r4,#0x14]
        0x00003478:    e5812000    . ..    STR      r2,[r1,#0]
        0x0000347c:    e082e000    ....    ADD      r14,r2,r0
        0x00003480:    e15e0003    ..^.    CMP      r14,r3
        0x00003484:    8a00000a    ....    BHI      _heap_overflow  ; 0x34b4
        0x00003488:    e093300e    .0..    ADDS     r3,r3,r14
        0x0000348c:    e1a03063    c0..    MOV      r3,r3,RRX
        0x00003490:    e3c33007    .0..    BIC      r3,r3,#7
        0x00003494:    e28e1d40    @...    ADD      r1,r14,#0x1000
        0x00003498:    e2811007    ....    ADD      r1,r1,#7
        0x0000349c:    e3c11007    ....    BIC      r1,r1,#7
        0x000034a0:    e1510003    ..Q.    CMP      r1,r3
        0x000034a4:    81a01003    ....    MOVHI    r1,r3
        0x000034a8:    e0410002    ..A.    SUB      r0,r1,r2
        0x000034ac:    e5841014    ....    STR      r1,[r4,#0x14]
        0x000034b0:    e8bd8010    ....    LDMFD    r13!,{r4,pc}
    _heap_overflow
        0x000034b4:    e1a02000    . ..    MOV      r2,r0
        0x000034b8:    e3a00000    ....    MOV      r0,#0
        0x000034bc:    ebffffff    ....    BL       0x34c0
        0x000034c0:    e8bd8010    ....    LDMFD    r13!,{r4,pc}
    __user_initial_stackheap
    .text
        0x000034c4:    e92d4000    .@-.    STMFD    r13!,{r14}
        0x000034c8:    e24dd014    ..M.    SUB      r13,r13,#0x14
        0x000034cc:    e1a0100d    ....    MOV      r1,r13
        0x000034d0:    e28d2004    . ..    ADD      r2,r13,#4
        0x000034d4:    e5812000    . ..    STR      r2,[r1,#0]
        0x000034d8:    e3a00016    ....    MOV      r0,#0x16
        0x000034dc:    ef123456    V4..    SWI      0x123456
        0x000034e0:    e59d0004    ....    LDR      r0,[r13,#4]
        0x000034e4:    e59d100c    ....    LDR      r1,[r13,#0xc]
        0x000034e8:    e59d2008    . ..    LDR      r2,[r13,#8]
        0x000034ec:    e59d3010    .0..    LDR      r3,[r13,#0x10]
        0x000034f0:    e3500000    ..P.    CMP      r0,#0
        0x000034f4:    059f0008    ....    LDREQ    r0,0x3504
        0x000034f8:    e28dd014    ....    ADD      r13,r13,#0x14
        0x000034fc:    e8bd8000    ....    LDMFD    r13!,{pc}
    $d
    $f
        0x00003500:    fffffc18    ....    DCD    4294966296
    _RW_Limit
        0x00003504:    00004934    4I..    DCD    18740
    _ttywrch
    $a
    .text
        0x00003508:    e92d4008    .@-.    STMFD    r13!,{r3,r14}
        0x0000350c:    e5cd0000    ....    STRB     r0,[r13,#0]
        0x00003510:    e3a00003    ....    MOV      r0,#3
        0x00003514:    e1a0100d    ....    MOV      r1,r13
        0x00003518:    ef123456    V4..    SWI      0x123456
        0x0000351c:    e8bd8008    ....    LDMFD    r13!,{r3,pc}
    _fp_trap
    .text
        0x00003520:    e92d403c    <@-.    STMFD    r13!,{r2-r5,r14}
        0x00003524:    e92d0003    ..-.    STMFD    r13!,{r0,r1}
        0x00003528:    e24dd00c    ..M.    SUB      r13,r13,#0xc
        0x0000352c:    e59d4028    (@..    LDR      r4,[r13,#0x28]
        0x00003530:    e28d5004    .P..    ADD      r5,r13,#4
        0x00003534:    e1a01005    ....    MOV      r1,r5
        0x00003538:    e28d3014    .0..    ADD      r3,r13,#0x14
        0x0000353c:    e28d200c    . ..    ADD      r2,r13,#0xc
        0x00003540:    e3a00000    ....    MOV      r0,#0
        0x00003544:    e58d4000    .@..    STR      r4,[r13,#0]
        0x00003548:    ebffffff    ....    BL       0x354c
        0x0000354c:    e3500000    ..P.    CMP      r0,#0
        0x00003550:    199d0003    ....    LDMNEIB  r13,{r0,r1}
        0x00003554:    128dd01c    ....    ADDNE    r13,r13,#0x1c
        0x00003558:    18bd8030    0...    LDMNEFD  r13!,{r4,r5,pc}
        0x0000355c:    e204147c    |...    AND      r1,r4,#0x7c000000
        0x00003560:    e3a00002    ....    MOV      r0,#2
        0x00003564:    ebfffc7f    ....    BL       __32__rt_raise  ; 0x2768
        0x00003568:    e3a00000    ....    MOV      r0,#0
        0x0000356c:    e3a01000    ....    MOV      r1,#0
        0x00003570:    e8850003    ....    STMIA    r5,{r0,r1}
        0x00003574:    e99d0003    ....    LDMIB    r13,{r0,r1}
        0x00003578:    e28dd01c    ....    ADD      r13,r13,#0x1c
        0x0000357c:    e8bd8030    0...    LDMFD    r13!,{r4,r5,pc}
    _btod_d2e
    CL$$btodstuff
        0x00003580:    e1b0c080    ....    MOVS     r12,r0,LSL #1
        0x00003584:    03310000    ..1.    TEQEQ    r1,#0
        0x00003588:    e1a0350c    .5..    MOV      r3,r12,LSL #10
        0x0000358c:    e1a02581    .%..    MOV      r2,r1,LSL #11
        0x00003590:    e1831aa1    ....    ORR      r1,r3,r1,LSR #21
        0x00003594:    e1a00a2c    ,...    MOV      r0,r12,LSR #20
        0x00003598:    12800c78    x...    ADDNE    r0,r0,#0x7800
        0x0000359c:    e1a00060    `...    MOV      r0,r0,RRX
        0x000035a0:    13811480    ....    ORRNE    r1,r1,#0x80000000
        0x000035a4:    e1b0cacc    ....    MOVS     r12,r12,ASR #21
        0x000035a8:    0a000002    ....    BEQ      _d2e_norm_op1  ; 0x35b8
        0x000035ac:    e37c0001    ..|.    CMN      r12,#1
        0x000035b0:    03800440    @...    ORREQ    r0,r0,#0x40000000
        0x000035b4:    e1a0f00e    ....    MOV      pc,r14
    _d2e_norm_op1
        0x000035b8:    e3110480    ....    TST      r1,#0x80000000
        0x000035bc:    01a0f00e    ....    MOVEQ    pc,r14
        0x000035c0:    e3d11480    ....    BICS     r1,r1,#0x80000000
        0x000035c4:    0a000015    ....    BEQ      _d2e_denorm_low  ; 0x3620
        0x000035c8:    e1b03821    !8..    MOVS     r3,r1,LSR #16
        0x000035cc:    01a01801    ....    MOVEQ    r1,r1,LSL #16
        0x000035d0:    03a0c010    ....    MOVEQ    r12,#0x10
        0x000035d4:    13a0c000    ....    MOVNE    r12,#0
        0x000035d8:    e1b03c21    !<..    MOVS     r3,r1,LSR #24
        0x000035dc:    01a01401    ....    MOVEQ    r1,r1,LSL #8
        0x000035e0:    028cc008    ....    ADDEQ    r12,r12,#8
        0x000035e4:    e1b03e21    !>..    MOVS     r3,r1,LSR #28
        0x000035e8:    01a01201    ....    MOVEQ    r1,r1,LSL #4
        0x000035ec:    028cc004    ....    ADDEQ    r12,r12,#4
        0x000035f0:    e1b03f21    !?..    MOVS     r3,r1,LSR #30
        0x000035f4:    01a01101    ....    MOVEQ    r1,r1,LSL #2
        0x000035f8:    028cc002    ....    ADDEQ    r12,r12,#2
        0x000035fc:    e1b03fa1    .?..    MOVS     r3,r1,LSR #31
        0x00003600:    01a01081    ....    MOVEQ    r1,r1,LSL #1
        0x00003604:    028cc001    ....    ADDEQ    r12,r12,#1
        0x00003608:    e26c3020     0l.    RSB      r3,r12,#0x20
        0x0000360c:    e1811332    2...    ORR      r1,r1,r2,LSR r3
        0x00003610:    e1a02c12    .,..    MOV      r2,r2,LSL r12
        0x00003614:    e040000c    ..@.    SUB      r0,r0,r12
        0x00003618:    e2800001    ....    ADD      r0,r0,#1
        0x0000361c:    e1a0f00e    ....    MOV      pc,r14
    _d2e_denorm_low
        0x00003620:    e1b03822    "8..    MOVS     r3,r2,LSR #16
        0x00003624:    01a02802    .(..    MOVEQ    r2,r2,LSL #16
        0x00003628:    03a0c010    ....    MOVEQ    r12,#0x10
        0x0000362c:    13a0c000    ....    MOVNE    r12,#0
        0x00003630:    e1b03c22    "<..    MOVS     r3,r2,LSR #24
        0x00003634:    01a02402    .$..    MOVEQ    r2,r2,LSL #8
        0x00003638:    028cc008    ....    ADDEQ    r12,r12,#8
        0x0000363c:    e1b03e22    ">..    MOVS     r3,r2,LSR #28
        0x00003640:    01a02202    ."..    MOVEQ    r2,r2,LSL #4
        0x00003644:    028cc004    ....    ADDEQ    r12,r12,#4
        0x00003648:    e1b03f22    "?..    MOVS     r3,r2,LSR #30
        0x0000364c:    01a02102    .!..    MOVEQ    r2,r2,LSL #2
        0x00003650:    028cc002    ....    ADDEQ    r12,r12,#2
        0x00003654:    e1b03fa2    .?..    MOVS     r3,r2,LSR #31
        0x00003658:    01a02082    . ..    MOVEQ    r2,r2,LSL #1
        0x0000365c:    028cc001    ....    ADDEQ    r12,r12,#1
        0x00003660:    e1a01002    ....    MOV      r1,r2
        0x00003664:    e3a02000    . ..    MOV      r2,#0
        0x00003668:    e240001f    ..@.    SUB      r0,r0,#0x1f
        0x0000366c:    e040000c    ..@.    SUB      r0,r0,r12
        0x00003670:    e1a0f00e    ....    MOV      pc,r14
    _btod_emul
        0x00003674:    e92d48c0    .H-.    STMFD    r13!,{r6,r7,r11,r14}
        0x00003678:    e92d0030    0.-.    STMFD    r13!,{r4,r5}
        0x0000367c:    e1a0b002    ....    MOV      r11,r2
        0x00003680:    e8910038    8...    LDMIA    r1,{r3-r5}
        0x00003684:    e8900007    ....    LDMIA    r0,{r0-r2}
        0x00003688:    e3100440    @...    TST      r0,#0x40000000
        0x0000368c:    03130440    @...    TSTEQ    r3,#0x40000000
        0x00003690:    1a000001    ....    BNE      _mul_uncommon  ; 0x369c
        0x00003694:    eb000073    s...    BL       __btod_mult_common  ; 0x3868
        0x00003698:    eb000025    %...    BL       _e2e  ; 0x3734
    _mul_uncommon
        0x0000369c:    e8bd00f0    ....    LDMFD    r13!,{r4-r7}
        0x000036a0:    e8bd8800    ....    LDMFD    r13!,{r11,pc}
    _btod_ediv
        0x000036a4:    e92d48c0    .H-.    STMFD    r13!,{r6,r7,r11,r14}
        0x000036a8:    e92d0030    0.-.    STMFD    r13!,{r4,r5}
        0x000036ac:    e1a0b002    ....    MOV      r11,r2
        0x000036b0:    e8910038    8...    LDMIA    r1,{r3-r5}
        0x000036b4:    e8900007    ....    LDMIA    r0,{r0-r2}
        0x000036b8:    e1d1c080    ....    BICS     r12,r1,r0,LSL #1
        0x000036bc:    41d4c083    ...A    BICMIS   r12,r4,r3,LSL #1
        0x000036c0:    5a000001    ...Z    BPL      _div_special_case  ; 0x36cc
        0x000036c4:    eb000100    ....    BL       __btod_div_common  ; 0x3acc
        0x000036c8:    eb000019    ....    BL       _e2e  ; 0x3734
    _div_special_case
        0x000036cc:    e8bd00f0    ....    LDMFD    r13!,{r4-r7}
        0x000036d0:    e8bd8800    ....    LDMFD    r13!,{r11,pc}
    _btod_emuld
        0x000036d4:    e92d48c0    .H-.    STMFD    r13!,{r6,r7,r11,r14}
        0x000036d8:    e92d0030    0.-.    STMFD    r13!,{r4,r5}
        0x000036dc:    e1a0b002    ....    MOV      r11,r2
        0x000036e0:    e8910038    8...    LDMIA    r1,{r3-r5}
        0x000036e4:    e8900007    ....    LDMIA    r0,{r0-r2}
        0x000036e8:    e3100440    @...    TST      r0,#0x40000000
        0x000036ec:    03130440    @...    TSTEQ    r3,#0x40000000
        0x000036f0:    1a000001    ....    BNE      _muld_uncommon  ; 0x36fc
        0x000036f4:    eb00005b    [...    BL       __btod_mult_common  ; 0x3868
        0x000036f8:    eb000044    D...    BL       _e2d  ; 0x3810
    _muld_uncommon
        0x000036fc:    e8bd00f0    ....    LDMFD    r13!,{r4-r7}
        0x00003700:    e8bd8800    ....    LDMFD    r13!,{r11,pc}
    _btod_edivd
        0x00003704:    e92d48c0    .H-.    STMFD    r13!,{r6,r7,r11,r14}
        0x00003708:    e92d0030    0.-.    STMFD    r13!,{r4,r5}
        0x0000370c:    e1a0b002    ....    MOV      r11,r2
        0x00003710:    e8910038    8...    LDMIA    r1,{r3-r5}
        0x00003714:    e8900007    ....    LDMIA    r0,{r0-r2}
        0x00003718:    e1d1c080    ....    BICS     r12,r1,r0,LSL #1
        0x0000371c:    41d4c083    ...A    BICMIS   r12,r4,r3,LSL #1
        0x00003720:    5a000001    ...Z    BPL      _divd_special_case  ; 0x372c
        0x00003724:    eb0000e8    ....    BL       __btod_div_common  ; 0x3acc
        0x00003728:    eb000038    8...    BL       _e2d  ; 0x3810
    _divd_special_case
        0x0000372c:    e8bd00f0    ....    LDMFD    r13!,{r4-r7}
        0x00003730:    e8bd8800    ....    LDMFD    r13!,{r11,pc}
    _e2e
        0x00003734:    e3530000    ..S.    CMP      r3,#0
        0x00003738:    4a000016    ...J    BMI      _e2e_underflow  ; 0x3798
    _e2e_underflow_dealtwith
        0x0000373c:    e1b07086    .p..    MOVS     r7,r6,LSL #1
        0x00003740:    0a000011    ....    BEQ      _e2e_exact_or_tied  ; 0x378c
    _e2e_round_by_C
        0x00003744:    e0ad700d    .p..    ADC      r7,r13,r13
        0x00003748:    e92d401c    .@-.    STMFD    r13!,{r2-r4,r14}
        0x0000374c:    e92d0003    ..-.    STMFD    r13!,{r0,r1}
        0x00003750:    e3a00010    ....    MOV      r0,#0x10
        0x00003754:    e3a01010    ....    MOV      r1,#0x10
        0x00003758:    eb000350    P...    BL       __32__ieee_status  ; 0x44a0
        0x0000375c:    e8bd000f    ....    LDMFD    r13!,{r0-r3}
        0x00003760:    e8bd4010    .@..    LDMFD    r13!,{r4,r14}
        0x00003764:    e28bb001    ....    ADD      r11,r11,#1
        0x00003768:    e35b0001    ..[.    CMP      r11,#1
        0x0000376c:    01b070a7    .p..    MOVEQS   r7,r7,LSR #1
        0x00003770:    22922001    . ."    ADDCSS   r2,r2,#1
        0x00003774:    22911001    ..."    ADDCSS   r1,r1,#1
        0x00003778:    23a01480    ...#    MOVCS    r1,#0x80000000
        0x0000377c:    e2a33000    .0..    ADC      r3,r3,#0
    _e2e_return_value
        0x00003780:    e2000480    ....    AND      r0,r0,#0x80000000
        0x00003784:    e1830000    ....    ORR      r0,r3,r0
        0x00003788:    e1a0f00e    ....    MOV      pc,r14
    _e2e_exact_or_tied
        0x0000378c:    3afffffb    ...:    BCC      _e2e_return_value  ; 0x3780
        0x00003790:    e1b070a2    .p..    MOVS     r7,r2,LSR #1
        0x00003794:    eaffffea    ....    B        _e2e_round_by_C  ; 0x3744
    _e2e_underflow
        0x00003798:    e1866806    .h..    ORR      r6,r6,r6,LSL #16
        0x0000379c:    e1a06826    &h..    MOV      r6,r6,LSR #16
        0x000037a0:    e3730040    @.s.    CMN      r3,#0x40
        0x000037a4:    da00000f    ....    BLE      _e2e_underflow_huge  ; 0x37e8
        0x000037a8:    e3730020     .s.    CMN      r3,#0x20
        0x000037ac:    d1866002    .`..    ORRLE    r6,r6,r2
        0x000037b0:    d1a02001    . ..    MOVLE    r2,r1
        0x000037b4:    d3a01000    ....    MOVLE    r1,#0
        0x000037b8:    d2833020     0..    ADDLE    r3,r3,#0x20
        0x000037bc:    e2733000    .0s.    RSBS     r3,r3,#0
        0x000037c0:    0affffdd    ....    BEQ      _e2e_underflow_dealtwith  ; 0x373c
        0x000037c4:    e2637020     pc.    RSB      r7,r3,#0x20
        0x000037c8:    e1866806    .h..    ORR      r6,r6,r6,LSL #16
        0x000037cc:    e1a06826    &h..    MOV      r6,r6,LSR #16
        0x000037d0:    e1866712    .g..    ORR      r6,r6,r2,LSL r7
        0x000037d4:    e1a02332    2#..    MOV      r2,r2,LSR r3
        0x000037d8:    e1822711    .'..    ORR      r2,r2,r1,LSL r7
        0x000037dc:    e1a01331    1...    MOV      r1,r1,LSR r3
        0x000037e0:    e3a03000    .0..    MOV      r3,#0
        0x000037e4:    eaffffd4    ....    B        _e2e_underflow_dealtwith  ; 0x373c
    _e2e_underflow_huge
        0x000037e8:    e1866002    .`..    ORR      r6,r6,r2
        0x000037ec:    e1866806    .h..    ORR      r6,r6,r6,LSL #16
        0x000037f0:    e1a06826    &h..    MOV      r6,r6,LSR #16
        0x000037f4:    e1866001    .`..    ORR      r6,r6,r1
        0x000037f8:    b1866806    .h..    ORRLT    r6,r6,r6,LSL #16
        0x000037fc:    b1a06826    &h..    MOVLT    r6,r6,LSR #16
        0x00003800:    e3a03000    .0..    MOV      r3,#0
        0x00003804:    e3a02000    . ..    MOV      r2,#0
        0x00003808:    e3a01000    ....    MOV      r1,#0
        0x0000380c:    eaffffca    ....    B        _e2e_underflow_dealtwith  ; 0x373c
    _e2d
        0x00003810:    e92d4010    .@-.    STMFD    r13!,{r4,r14}
        0x00003814:    e1866806    .h..    ORR      r6,r6,r6,LSL #16
        0x00003818:    e1a06826    &h..    MOV      r6,r6,LSR #16
        0x0000381c:    e1866a82    .j..    ORR      r6,r6,r2,LSL #21
        0x00003820:    e1a025a2    .%..    MOV      r2,r2,LSR #11
        0x00003824:    e1822a81    .*..    ORR      r2,r2,r1,LSL #21
        0x00003828:    e1a015a1    ....    MOV      r1,r1,LSR #11
        0x0000382c:    e2433df0    .=C.    SUB      r3,r3,#0x3c00
        0x00003830:    e2433001    .0C.    SUB      r3,r3,#1
        0x00003834:    ebffffbe    ....    BL       _e2e  ; 0x3734
        0x00003838:    e3c00480    ....    BIC      r0,r0,#0x80000000
        0x0000383c:    e2007480    .t..    AND      r7,r0,#0x80000000
        0x00003840:    e280c001    ....    ADD      r12,r0,#1
        0x00003844:    e35c0e80    ..\.    CMP      r12,#0x800
        0x00003848:    e0810a00    ....    ADD      r0,r1,r0,LSL #20
        0x0000384c:    e1a01002    ....    MOV      r1,r2
        0x00003850:    e1800007    ....    ORR      r0,r0,r7
        0x00003854:    38bd8010    ...8    LDMCCFD  r13!,{r4,pc}
        0x00003858:    e59f05b4    ....    LDR      r0,0x3e14
        0x0000385c:    e3a01000    ....    MOV      r1,#0
        0x00003860:    e1800007    ....    ORR      r0,r0,r7
        0x00003864:    e8bd8010    ....    LDMFD    r13!,{r4,pc}
    __btod_mult_common
        0x00003868:    e3c074ff    .t..    BIC      r7,r0,#0xff000000
        0x0000386c:    e3c3c4ff    ....    BIC      r12,r3,#0xff000000
        0x00003870:    e0200003    .. .    EOR      r0,r0,r3
        0x00003874:    e2000480    ....    AND      r0,r0,#0x80000000
        0x00003878:    e087300c    .0..    ADD      r3,r7,r12
        0x0000387c:    e2433dfc    .=C.    SUB      r3,r3,#0x3f00
        0x00003880:    e24330fe    .0C.    SUB      r3,r3,#0xfe
        0x00003884:    e3320000    ..2.    TEQ      r2,#0
        0x00003888:    0a00005d    ]...    BEQ      _Mult_32xX  ; 0x3a04
        0x0000388c:    e3350000    ..5.    TEQ      r5,#0
        0x00003890:    0a00003d    =...    BEQ      _Mult_64x32  ; 0x398c
        0x00003894:    e92d4901    .I-.    STMFD    r13!,{r0,r8,r11,r14}
        0x00003898:    e1a00821    !...    MOV      r0,r1,LSR #16
        0x0000389c:    e1c18800    ....    BIC      r8,r1,r0,LSL #16
        0x000038a0:    e1a06824    $h..    MOV      r6,r4,LSR #16
        0x000038a4:    e1c47806    .x..    BIC      r7,r4,r6,LSL #16
        0x000038a8:    e00c0690    ....    MUL      r12,r0,r6
        0x000038ac:    e0060698    ....    MUL      r6,r8,r6
        0x000038b0:    e0080897    ....    MUL      r8,r7,r8
        0x000038b4:    e0988806    ....    ADDS     r8,r8,r6,LSL #16
        0x000038b8:    e0acc826    &...    ADC      r12,r12,r6,LSR #16
        0x000038bc:    e0070790    ....    MUL      r7,r0,r7
        0x000038c0:    e0988807    ....    ADDS     r8,r8,r7,LSL #16
        0x000038c4:    e0ac0827    '...    ADC      r0,r12,r7,LSR #16
        0x000038c8:    e1a0b822    "...    MOV      r11,r2,LSR #16
        0x000038cc:    e1c2e80b    ....    BIC      r14,r2,r11,LSL #16
        0x000038d0:    e1a06825    %h..    MOV      r6,r5,LSR #16
        0x000038d4:    e1c57806    .x..    BIC      r7,r5,r6,LSL #16
        0x000038d8:    e00c069b    ....    MUL      r12,r11,r6
        0x000038dc:    e006069e    ....    MUL      r6,r14,r6
        0x000038e0:    e00e0e97    ....    MUL      r14,r7,r14
        0x000038e4:    e09ee806    ....    ADDS     r14,r14,r6,LSL #16
        0x000038e8:    e0acc826    &...    ADC      r12,r12,r6,LSR #16
        0x000038ec:    e007079b    ....    MUL      r7,r11,r7
        0x000038f0:    e09ee807    ....    ADDS     r14,r14,r7,LSL #16
        0x000038f4:    e0acb827    '...    ADC      r11,r12,r7,LSR #16
        0x000038f8:    e098800b    ....    ADDS     r8,r8,r11
        0x000038fc:    e2a00000    ....    ADC      r0,r0,#0
        0x00003900:    e098b00e    ....    ADDS     r11,r8,r14
        0x00003904:    e0b88000    ....    ADCS     r8,r8,r0
        0x00003908:    e2a00000    ....    ADC      r0,r0,#0
        0x0000390c:    e0517002    .pQ.    SUBS     r7,r1,r2
        0x00003910:    e3a01000    ....    MOV      r1,#0
        0x00003914:    e3a06000    .`..    MOV      r6,#0
        0x00003918:    31e01001    ...1    MVNCC    r1,r1
        0x0000391c:    30446005    .`D0    SUBCC    r6,r4,r5
        0x00003920:    1055c004    ..U.    SUBNES   r12,r5,r4
        0x00003924:    03a01000    ....    MOVEQ    r1,#0
        0x00003928:    31e01001    ...1    MVNCC    r1,r1
        0x0000392c:    30466007    .`F0    SUBCC    r6,r6,r7
        0x00003930:    e1a04827    'H..    MOV      r4,r7,LSR #16
        0x00003934:    e1c75804    .X..    BIC      r5,r7,r4,LSL #16
        0x00003938:    e1a0782c    ,x..    MOV      r7,r12,LSR #16
        0x0000393c:    e1ccc807    ....    BIC      r12,r12,r7,LSL #16
        0x00003940:    e0226794    .g".    MLA      r2,r4,r7,r6
        0x00003944:    e0070795    ....    MUL      r7,r5,r7
        0x00003948:    e006059c    ....    MUL      r6,r12,r5
        0x0000394c:    e0966807    .h..    ADDS     r6,r6,r7,LSL #16
        0x00003950:    e0a22827    '(..    ADC      r2,r2,r7,LSR #16
        0x00003954:    e00c0c94    ....    MUL      r12,r4,r12
        0x00003958:    e096680c    .h..    ADDS     r6,r6,r12,LSL #16
        0x0000395c:    e0a2282c    ,(..    ADC      r2,r2,r12,LSR #16
        0x00003960:    e09b6006    .`..    ADDS     r6,r11,r6
        0x00003964:    e0b82002    . ..    ADCS     r2,r8,r2
        0x00003968:    e0b01001    ....    ADCS     r1,r0,r1
        0x0000396c:    e18ee10e    ....    ORR      r14,r14,r14,LSL #2
        0x00003970:    e186612e    .a..    ORR      r6,r6,r14,LSR #2
        0x00003974:    48bd8901    ...H    LDMMIFD  r13!,{r0,r8,r11,pc}
        0x00003978:    e0966006    .`..    ADDS     r6,r6,r6
        0x0000397c:    e0b22002    . ..    ADCS     r2,r2,r2
        0x00003980:    e0a11001    ....    ADC      r1,r1,r1
        0x00003984:    e2433001    .0C.    SUB      r3,r3,#1
        0x00003988:    e8bd8901    ....    LDMFD    r13!,{r0,r8,r11,pc}
    _Mult_64x32
        0x0000398c:    e1a05824    $X..    MOV      r5,r4,LSR #16
        0x00003990:    e1c46805    .h..    BIC      r6,r4,r5,LSL #16
        0x00003994:    e1a07821    !x..    MOV      r7,r1,LSR #16
        0x00003998:    e1c1c807    ....    BIC      r12,r1,r7,LSL #16
        0x0000399c:    e0040795    ....    MUL      r4,r5,r7
        0x000039a0:    e0070796    ....    MUL      r7,r6,r7
        0x000039a4:    e001069c    ....    MUL      r1,r12,r6
        0x000039a8:    e0911807    ....    ADDS     r1,r1,r7,LSL #16
        0x000039ac:    e0a44827    'H..    ADC      r4,r4,r7,LSR #16
        0x000039b0:    e00c0c95    ....    MUL      r12,r5,r12
        0x000039b4:    e091180c    ....    ADDS     r1,r1,r12,LSL #16
        0x000039b8:    e0a4482c    ,H..    ADC      r4,r4,r12,LSR #16
        0x000039bc:    e1a07822    "x..    MOV      r7,r2,LSR #16
        0x000039c0:    e1c2c807    ....    BIC      r12,r2,r7,LSL #16
        0x000039c4:    e0020795    ....    MUL      r2,r5,r7
        0x000039c8:    e0070796    ....    MUL      r7,r6,r7
        0x000039cc:    e006069c    ....    MUL      r6,r12,r6
        0x000039d0:    e0966807    .h..    ADDS     r6,r6,r7,LSL #16
        0x000039d4:    e0a22827    '(..    ADC      r2,r2,r7,LSR #16
        0x000039d8:    e00c0c95    ....    MUL      r12,r5,r12
        0x000039dc:    e096680c    .h..    ADDS     r6,r6,r12,LSL #16
        0x000039e0:    e0a2582c    ,X..    ADC      r5,r2,r12,LSR #16
        0x000039e4:    e0952001    . ..    ADDS     r2,r5,r1
        0x000039e8:    e2b41000    ....    ADCS     r1,r4,#0
        0x000039ec:    41a0f00e    ...A    MOVMI    pc,r14
        0x000039f0:    e0966006    .`..    ADDS     r6,r6,r6
        0x000039f4:    e0b22002    . ..    ADCS     r2,r2,r2
        0x000039f8:    e0a11001    ....    ADC      r1,r1,r1
        0x000039fc:    e2433001    .0C.    SUB      r3,r3,#1
        0x00003a00:    e1a0f00e    ....    MOV      pc,r14
    _Mult_32xX
        0x00003a04:    e3350000    ..5.    TEQ      r5,#0
        0x00003a08:    0a00001d    ....    BEQ      _Mult_32x32  ; 0x3a84
        0x00003a0c:    e1a02821    !(..    MOV      r2,r1,LSR #16
        0x00003a10:    e1c16802    .h..    BIC      r6,r1,r2,LSL #16
        0x00003a14:    e1a07824    $x..    MOV      r7,r4,LSR #16
        0x00003a18:    e1c4c807    ....    BIC      r12,r4,r7,LSL #16
        0x00003a1c:    e0010792    ....    MUL      r1,r2,r7
        0x00003a20:    e0070796    ....    MUL      r7,r6,r7
        0x00003a24:    e004069c    ....    MUL      r4,r12,r6
        0x00003a28:    e0944807    .H..    ADDS     r4,r4,r7,LSL #16
        0x00003a2c:    e0a11827    '...    ADC      r1,r1,r7,LSR #16
        0x00003a30:    e00c0c92    ....    MUL      r12,r2,r12
        0x00003a34:    e094480c    .H..    ADDS     r4,r4,r12,LSL #16
        0x00003a38:    e0a1182c    ,...    ADC      r1,r1,r12,LSR #16
        0x00003a3c:    e1a07825    %x..    MOV      r7,r5,LSR #16
        0x00003a40:    e1c5c807    ....    BIC      r12,r5,r7,LSL #16
        0x00003a44:    e0050792    ....    MUL      r5,r2,r7
        0x00003a48:    e0070796    ....    MUL      r7,r6,r7
        0x00003a4c:    e006069c    ....    MUL      r6,r12,r6
        0x00003a50:    e0966807    .h..    ADDS     r6,r6,r7,LSL #16
        0x00003a54:    e0a55827    'X..    ADC      r5,r5,r7,LSR #16
        0x00003a58:    e00c0c92    ....    MUL      r12,r2,r12
        0x00003a5c:    e096680c    .h..    ADDS     r6,r6,r12,LSL #16
        0x00003a60:    e0a5282c    ,(..    ADC      r2,r5,r12,LSR #16
        0x00003a64:    e0922004    . ..    ADDS     r2,r2,r4
        0x00003a68:    e2b11000    ....    ADCS     r1,r1,#0
        0x00003a6c:    41a0f00e    ...A    MOVMI    pc,r14
        0x00003a70:    e0966006    .`..    ADDS     r6,r6,r6
        0x00003a74:    e0b22002    . ..    ADCS     r2,r2,r2
        0x00003a78:    e0a11001    ....    ADC      r1,r1,r1
        0x00003a7c:    e2433001    .0C.    SUB      r3,r3,#1
        0x00003a80:    e1a0f00e    ....    MOV      pc,r14
    _Mult_32x32
        0x00003a84:    e1a05824    $X..    MOV      r5,r4,LSR #16
        0x00003a88:    e1c46805    .h..    BIC      r6,r4,r5,LSL #16
        0x00003a8c:    e1a07821    !x..    MOV      r7,r1,LSR #16
        0x00003a90:    e1c1c807    ....    BIC      r12,r1,r7,LSL #16
        0x00003a94:    e0010795    ....    MUL      r1,r5,r7
        0x00003a98:    e0070796    ....    MUL      r7,r6,r7
        0x00003a9c:    e002069c    ....    MUL      r2,r12,r6
        0x00003aa0:    e0922807    .(..    ADDS     r2,r2,r7,LSL #16
        0x00003aa4:    e0a11827    '...    ADC      r1,r1,r7,LSR #16
        0x00003aa8:    e00c0c95    ....    MUL      r12,r5,r12
        0x00003aac:    e092280c    .(..    ADDS     r2,r2,r12,LSL #16
        0x00003ab0:    e0b1182c    ,...    ADCS     r1,r1,r12,LSR #16
        0x00003ab4:    e3a06000    .`..    MOV      r6,#0
        0x00003ab8:    41a0f00e    ...A    MOVMI    pc,r14
        0x00003abc:    e0922002    . ..    ADDS     r2,r2,r2
        0x00003ac0:    e0a11001    ....    ADC      r1,r1,r1
        0x00003ac4:    e2433001    .0C.    SUB      r3,r3,#1
        0x00003ac8:    e1a0f00e    ....    MOV      pc,r14
    __btod_div_common
        0x00003acc:    e3c374ff    .t..    BIC      r7,r3,#0xff000000
        0x00003ad0:    e3c0c4ff    ....    BIC      r12,r0,#0xff000000
        0x00003ad4:    e0200003    .. .    EOR      r0,r0,r3
        0x00003ad8:    e2000480    ....    AND      r0,r0,#0x80000000
        0x00003adc:    e04c3007    .0L.    SUB      r3,r12,r7
        0x00003ae0:    e2833dfc    .=..    ADD      r3,r3,#0x3f00
        0x00003ae4:    e28330ff    .0..    ADD      r3,r3,#0xff
        0x00003ae8:    e92d4940    @I-.    STMFD    r13!,{r6,r8,r11,r14}
        0x00003aec:    e92d0009    ..-.    STMFD    r13!,{r0,r3}
        0x00003af0:    e1a03824    $8..    MOV      r3,r4,LSR #16
        0x00003af4:    e1c48803    ....    BIC      r8,r4,r3,LSL #16
        0x00003af8:    e1a0b825    %...    MOV      r11,r5,LSR #16
        0x00003afc:    e1c5e80b    ....    BIC      r14,r5,r11,LSL #16
        0x00003b00:    e28f6f83    .o..    ADD      r6,pc,#0x20c ; #0x3d14
        0x00003b04:    e7d66423    #d..    LDRB     r6,[r6,r3,LSR #8]
        0x00003b08:    e0276693    .f'.    MLA      r7,r3,r6,r6
        0x00003b0c:    e2677880    .xg.    RSB      r7,r7,#0x800000
        0x00003b10:    e0060697    ....    MUL      r6,r7,r6
        0x00003b14:    e1a069a6    .i..    MOV      r6,r6,LSR #19
        0x00003b18:    e2866002    .`..    ADD      r6,r6,#2
        0x00003b1c:    e1a076a4    .v..    MOV      r7,r4,LSR #13
        0x00003b20:    e02c6697    .f,.    MLA      r12,r7,r6,r6
        0x00003b24:    e26cc580    ..l.    RSB      r12,r12,#0x20000000
        0x00003b28:    e1a0782c    ,x..    MOV      r7,r12,LSR #16
        0x00003b2c:    e1ccc807    ....    BIC      r12,r12,r7,LSL #16
        0x00003b30:    e005069c    ....    MUL      r5,r12,r6
        0x00003b34:    e0040697    ....    MUL      r4,r7,r6
        0x00003b38:    e0846825    %h..    ADD      r6,r4,r5,LSR #16
        0x00003b3c:    e1a06326    &c..    MOV      r6,r6,LSR #6
        0x00003b40:    e1b010a1    ....    MOVS     r1,r1,LSR #1
        0x00003b44:    e1b02062    b ..    MOVS     r2,r2,RRX
        0x00003b48:    33a00000    ...3    MOVCC    r0,#0
        0x00003b4c:    23a00480    ...#    MOVCS    r0,#0x80000000
        0x00003b50:    e1a077a1    .w..    MOV      r7,r1,LSR #15
        0x00003b54:    e00c0796    ....    MUL      r12,r6,r7
        0x00003b58:    e1a0c82c    ,...    MOV      r12,r12,LSR #16
        0x00003b5c:    e0070b9c    ....    MUL      r7,r12,r11
        0x00003b60:    e0522007    . R.    SUBS     r2,r2,r7
        0x00003b64:    e0070c93    ....    MUL      r7,r3,r12
        0x00003b68:    e0c11007    ....    SBC      r1,r1,r7
        0x00003b6c:    e0070e9c    ....    MUL      r7,r12,r14
        0x00003b70:    e0500807    ..P.    SUBS     r0,r0,r7,LSL #16
        0x00003b74:    e0d22827    '(..    SBCS     r2,r2,r7,LSR #16
        0x00003b78:    e007089c    ....    MUL      r7,r12,r8
        0x00003b7c:    30422807    .(B0    SUBCC    r2,r2,r7,LSL #16
        0x00003b80:    20522807    .(R     SUBCSS   r2,r2,r7,LSL #16
        0x00003b84:    e0c11827    '...    SBC      r1,r1,r7,LSR #16
        0x00003b88:    e1a0480c    .H..    MOV      r4,r12,LSL #16
        0x00003b8c:    e1a07121    !q..    MOV      r7,r1,LSR #2
        0x00003b90:    e00c0796    ....    MUL      r12,r6,r7
        0x00003b94:    e1a0c82c    ,...    MOV      r12,r12,LSR #16
        0x00003b98:    e0070b9c    ....    MUL      r7,r12,r11
        0x00003b9c:    e0500987    ..P.    SUBS     r0,r0,r7,LSL #19
        0x00003ba0:    e0d226a7    .&..    SBCS     r2,r2,r7,LSR #13
        0x00003ba4:    e0070c93    ....    MUL      r7,r3,r12
        0x00003ba8:    30422987    .)B0    SUBCC    r2,r2,r7,LSL #19
        0x00003bac:    20522987    .)R     SUBCSS   r2,r2,r7,LSL #19
        0x00003bb0:    e0c116a7    ....    SBC      r1,r1,r7,LSR #13
        0x00003bb4:    e0070e9c    ....    MUL      r7,r12,r14
        0x00003bb8:    e0500187    ..P.    SUBS     r0,r0,r7,LSL #3
        0x00003bbc:    e0d22ea7    ....    SBCS     r2,r2,r7,LSR #29
        0x00003bc0:    e007089c    ....    MUL      r7,r12,r8
        0x00003bc4:    30422187    .!B0    SUBCC    r2,r2,r7,LSL #3
        0x00003bc8:    20522187    .!R     SUBCSS   r2,r2,r7,LSL #3
        0x00003bcc:    e0c11ea7    ....    SBC      r1,r1,r7,LSR #29
        0x00003bd0:    e1a01d01    ....    MOV      r1,r1,LSL #26
        0x00003bd4:    e1811322    "...    ORR      r1,r1,r2,LSR #6
        0x00003bd8:    e1a02d02    .-..    MOV      r2,r2,LSL #26
        0x00003bdc:    e1822320     #..    ORR      r2,r2,r0,LSR #6
        0x00003be0:    e1a00d00    ....    MOV      r0,r0,LSL #26
        0x00003be4:    e084418c    .A..    ADD      r4,r4,r12,LSL #3
        0x00003be8:    e59d700c    .p..    LDR      r7,[r13,#0xc]
        0x00003bec:    e1a077a1    .w..    MOV      r7,r1,LSR #15
        0x00003bf0:    e00c0796    ....    MUL      r12,r6,r7
        0x00003bf4:    e1a0c82c    ,...    MOV      r12,r12,LSR #16
        0x00003bf8:    e0070b9c    ....    MUL      r7,r12,r11
        0x00003bfc:    e0522007    . R.    SUBS     r2,r2,r7
        0x00003c00:    e0070c93    ....    MUL      r7,r3,r12
        0x00003c04:    e0c11007    ....    SBC      r1,r1,r7
        0x00003c08:    e0070e9c    ....    MUL      r7,r12,r14
        0x00003c0c:    e0500807    ..P.    SUBS     r0,r0,r7,LSL #16
        0x00003c10:    e0d22827    '(..    SBCS     r2,r2,r7,LSR #16
        0x00003c14:    e007089c    ....    MUL      r7,r12,r8
        0x00003c18:    30422807    .(B0    SUBCC    r2,r2,r7,LSL #16
        0x00003c1c:    20522807    .(R     SUBCSS   r2,r2,r7,LSL #16
        0x00003c20:    e0c11827    '...    SBC      r1,r1,r7,LSR #16
        0x00003c24:    e1a05b0c    .[..    MOV      r5,r12,LSL #22
        0x00003c28:    e084452c    ,E..    ADD      r4,r4,r12,LSR #10
        0x00003c2c:    e1a07121    !q..    MOV      r7,r1,LSR #2
        0x00003c30:    e00c0796    ....    MUL      r12,r6,r7
        0x00003c34:    e1a0c82c    ,...    MOV      r12,r12,LSR #16
        0x00003c38:    e0070b9c    ....    MUL      r7,r12,r11
        0x00003c3c:    e0500987    ..P.    SUBS     r0,r0,r7,LSL #19
        0x00003c40:    e0d226a7    .&..    SBCS     r2,r2,r7,LSR #13
        0x00003c44:    e0070c93    ....    MUL      r7,r3,r12
        0x00003c48:    30422987    .)B0    SUBCC    r2,r2,r7,LSL #19
        0x00003c4c:    20522987    .)R     SUBCSS   r2,r2,r7,LSL #19
        0x00003c50:    e0c116a7    ....    SBC      r1,r1,r7,LSR #13
        0x00003c54:    e0070e9c    ....    MUL      r7,r12,r14
        0x00003c58:    e0500187    ..P.    SUBS     r0,r0,r7,LSL #3
        0x00003c5c:    e0d22ea7    ....    SBCS     r2,r2,r7,LSR #29
        0x00003c60:    e007089c    ....    MUL      r7,r12,r8
        0x00003c64:    30422187    .!B0    SUBCC    r2,r2,r7,LSL #3
        0x00003c68:    20522187    .!R     SUBCSS   r2,r2,r7,LSL #3
        0x00003c6c:    e0c11ea7    ....    SBC      r1,r1,r7,LSR #29
        0x00003c70:    e1a01d01    ....    MOV      r1,r1,LSL #26
        0x00003c74:    e1811322    "...    ORR      r1,r1,r2,LSR #6
        0x00003c78:    e1a02d02    .-..    MOV      r2,r2,LSL #26
        0x00003c7c:    e1822320     #..    ORR      r2,r2,r0,LSR #6
        0x00003c80:    e1a00d00    ....    MOV      r0,r0,LSL #26
        0x00003c84:    e095548c    .T..    ADDS     r5,r5,r12,LSL #9
        0x00003c88:    e2a44000    .@..    ADC      r4,r4,#0
        0x00003c8c:    e1a077a1    .w..    MOV      r7,r1,LSR #15
        0x00003c90:    e00c0796    ....    MUL      r12,r6,r7
        0x00003c94:    e1a0c82c    ,...    MOV      r12,r12,LSR #16
        0x00003c98:    e0070b9c    ....    MUL      r7,r12,r11
        0x00003c9c:    e0522007    . R.    SUBS     r2,r2,r7
        0x00003ca0:    e0070c93    ....    MUL      r7,r3,r12
        0x00003ca4:    e0c11007    ....    SBC      r1,r1,r7
        0x00003ca8:    e0070e9c    ....    MUL      r7,r12,r14
        0x00003cac:    e0500807    ..P.    SUBS     r0,r0,r7,LSL #16
        0x00003cb0:    e0d22827    '(..    SBCS     r2,r2,r7,LSR #16
        0x00003cb4:    e007089c    ....    MUL      r7,r12,r8
        0x00003cb8:    30422807    .(B0    SUBCC    r2,r2,r7,LSL #16
        0x00003cbc:    20522807    .(R     SUBCSS   r2,r2,r7,LSL #16
        0x00003cc0:    e0c11827    '...    SBC      r1,r1,r7,LSR #16
        0x00003cc4:    e1a01701    ....    MOV      r1,r1,LSL #14
        0x00003cc8:    e1811922    "...    ORR      r1,r1,r2,LSR #18
        0x00003ccc:    e1a02702    .'..    MOV      r2,r2,LSL #14
        0x00003cd0:    e1822920     )..    ORR      r2,r2,r0,LSR #18
        0x00003cd4:    e1a00700    ....    MOV      r0,r0,LSL #14
        0x00003cd8:    e1a06e0c    .n..    MOV      r6,r12,LSL #28
        0x00003cdc:    e095522c    ,R..    ADDS     r5,r5,r12,LSR #4
        0x00003ce0:    e2a44000    .@..    ADC      r4,r4,#0
        0x00003ce4:    e1883803    .8..    ORR      r3,r8,r3,LSL #16
        0x00003ce8:    e18e880b    ....    ORR      r8,r14,r11,LSL #16
        0x00003cec:    e3a0e000    ....    MOV      r14,#0
        0x00003cf0:    e052c008    ..R.    SUBS     r12,r2,r8
        0x00003cf4:    e0d17003    .p..    SBCS     r7,r1,r3
        0x00003cf8:    21a0200c    . .!    MOVCS    r2,r12
        0x00003cfc:    21a01007    ...!    MOVCS    r1,r7
        0x00003d00:    e0aee00e    ....    ADC      r14,r14,r14
        0x00003d04:    e3a0b000    ....    MOV      r11,#0
        0x00003d08:    e0900000    ....    ADDS     r0,r0,r0
        0x00003d0c:    e0b22002    . ..    ADCS     r2,r2,r2
        0x00003d10:    e0b11001    ....    ADCS     r1,r1,r1
        0x00003d14:    e0abb00b    ....    ADC      r11,r11,r11
        0x00003d18:    e052c008    ..R.    SUBS     r12,r2,r8
        0x00003d1c:    e0d17003    .p..    SBCS     r7,r1,r3
        0x00003d20:    e2dbb000    ....    SBCS     r11,r11,#0
        0x00003d24:    21a0200c    . .!    MOVCS    r2,r12
        0x00003d28:    21a01007    ...!    MOVCS    r1,r7
        0x00003d2c:    e0aee00e    ....    ADC      r14,r14,r14
        0x00003d30:    e3a0b000    ....    MOV      r11,#0
        0x00003d34:    e0900000    ....    ADDS     r0,r0,r0
        0x00003d38:    e0b22002    . ..    ADCS     r2,r2,r2
        0x00003d3c:    e0b11001    ....    ADCS     r1,r1,r1
        0x00003d40:    e0abb00b    ....    ADC      r11,r11,r11
        0x00003d44:    e052c008    ..R.    SUBS     r12,r2,r8
        0x00003d48:    e0d17003    .p..    SBCS     r7,r1,r3
        0x00003d4c:    e2dbb000    ....    SBCS     r11,r11,#0
        0x00003d50:    21a0200c    . .!    MOVCS    r2,r12
        0x00003d54:    21a01007    ...!    MOVCS    r1,r7
        0x00003d58:    e0aee00e    ....    ADC      r14,r14,r14
        0x00003d5c:    e1917002    .p..    ORRS     r7,r1,r2
        0x00003d60:    13866001    .`..    ORRNE    r6,r6,#1
        0x00003d64:    e0966e0e    .n..    ADDS     r6,r6,r14,LSL #28
        0x00003d68:    e2b52000    . ..    ADCS     r2,r5,#0
        0x00003d6c:    e2b41000    ....    ADCS     r1,r4,#0
        0x00003d70:    48bd0149    I..H    LDMMIFD  r13!,{r0,r3,r6,r8}
        0x00003d74:    48bd8800    ...H    LDMMIFD  r13!,{r11,pc}
        0x00003d78:    e8bd0149    I...    LDMFD    r13!,{r0,r3,r6,r8}
        0x00003d7c:    e8bd4800    .H..    LDMFD    r13!,{r11,r14}
        0x00003d80:    e0966006    .`..    ADDS     r6,r6,r6
        0x00003d84:    e0b22002    . ..    ADCS     r2,r2,r2
        0x00003d88:    e0a11001    ....    ADC      r1,r1,r1
        0x00003d8c:    e2433001    .0C.    SUB      r3,r3,#1
        0x00003d90:    e1a0f00e    ....    MOV      pc,r14
    _Recip_Table
    $d
        0x00003d94:    7e7f8080    ...~    DCD    2122285184
        0x00003d98:    7a7b7c7d    }|{z    DCD    2054913149
        0x00003d9c:    76777879    yxwv    DCD    1987541113
        0x00003da0:    73747576    vuts    DCD    1937012086
        0x00003da4:    70717172    rqqp    DCD    1886482802
        0x00003da8:    6d6e6e6f    onnm    DCD    1835953775
        0x00003dac:    6a6b6c6c    llkj    DCD    1785425004
        0x00003db0:    6868696a    jihh    DCD    1751673194
        0x00003db4:    65666667    gffe    DCD    1701209703
        0x00003db8:    63636464    ddcc    DCD    1667458148
        0x00003dbc:    60616162    baa`    DCD    1616994658
        0x00003dc0:    5e5f5f60    `__^    DCD    1583308640
        0x00003dc4:    5c5d5d5e    ^]]\    DCD    1549622622
        0x00003dc8:    5a5b5b5c    \[[Z    DCD    1515936604
        0x00003dcc:    5859595a    ZYYX    DCD    1482250586
        0x00003dd0:    56575758    XWWV    DCD    1448564568
        0x00003dd4:    55555556    VUUU    DCD    1431655766
        0x00003dd8:    53535454    TTSS    DCD    1397970004
        0x00003ddc:    51525252    RRRQ    DCD    1364349522
        0x00003de0:    50505051    QPPP    DCD    1347440721
        0x00003de4:    4e4f4f4f    OOON    DCD    1313820495
        0x00003de8:    4d4d4d4e    NMMM    DCD    1296911694
        0x00003dec:    4b4c4c4c    LLLK    DCD    1263291468
        0x00003df0:    4a4a4b4b    KKJJ    DCD    1246382923
        0x00003df4:    4949494a    JIII    DCD    1229539658
        0x00003df8:    47484848    HHHG    DCD    1195919432
        0x00003dfc:    46474747    GGGF    DCD    1179076423
        0x00003e00:    45454646    FFEE    DCD    1162167878
        0x00003e04:    44444445    EDDD    DCD    1145324613
        0x00003e08:    43434344    DCCC    DCD    1128481604
        0x00003e0c:    42424243    CBBB    DCD    1111638595
        0x00003e10:    41414142    BAAA    DCD    1094795586
        0x00003e14:    7ff00000    ....    DCD    2146435072
    __fpl_dcheck_NaN2
    $a
    x$fpl$dcheck
        0x00003e18:    e92d0030    0.-.    STMFD    r13!,{r4,r5}
        0x00003e1c:    e3a05940    @Y..    MOV      r5,#0x100000
        0x00003e20:    e3500001    ..P.    CMP      r0,#1
        0x00003e24:    e0a54081    .@..    ADC      r4,r5,r1,LSL #1
        0x00003e28:    e3520001    ..R.    CMP      r2,#1
        0x00003e2c:    e0a55083    .P..    ADC      r5,r5,r3,LSL #1
        0x00003e30:    e3740940    @.t.    CMN      r4,#0x100000
        0x00003e34:    93750940    @.u.    CMNLS    r5,#0x100000
        0x00003e38:    8a000004    ....    BHI      dcheck_except  ; 0x3e50
        0x00003e3c:    e3540940    @.T.    CMP      r4,#0x100000
        0x00003e40:    e8bd0030    0...    LDMFD    r13!,{r4,r5}
        0x00003e44:    21a01003    ...!    MOVCS    r1,r3
        0x00003e48:    21a00002    ...!    MOVCS    r0,r2
        0x00003e4c:    ea0001a3    ....    B        __fpl_return_NaN  ; 0x44e0
    dcheck_except
        0x00003e50:    e8bd0030    0...    LDMFD    r13!,{r4,r5}
        0x00003e54:    ea000138    8...    B        __fpl_exception  ; 0x433c
    _dmul
    x$fpl$dmul
        0x00003e58:    e92d4070    p@-.    STMFD    r13!,{r4-r6,r14}
        0x00003e5c:    e59fc29c    ....    LDR      r12,0x4100
        0x00003e60:    e1dce221    !...    BICS     r14,r12,r1,LSR #4
        0x00003e64:    11dce223    #...    BICNES   r14,r12,r3,LSR #4
        0x00003e68:    0a00008f    ....    BEQ      dmul_naninf  ; 0x40ac
        0x00003e6c:    e00ce221    !...    AND      r14,r12,r1,LSR #4
        0x00003e70:    e0215003    .P!.    EOR      r5,r1,r3
        0x00003e74:    e18eefa5    ....    ORR      r14,r14,r5,LSR #31
        0x00003e78:    e01c5223    #R..    ANDS     r5,r12,r3,LSR #4
        0x00003e7c:    1111020c    ....    TSTNE    r1,r12,LSL #4
        0x00003e80:    0a000040    @...    BEQ      dmul_zerodenorm  ; 0x3f88
    dmul_normalised
        0x00003e84:    e08ee005    ....    ADD      r14,r14,r5
        0x00003e88:    e24ee7ff    ..N.    SUB      r14,r14,#0x3fc0000
        0x00003e8c:    e1c1128c    ....    BIC      r1,r1,r12,LSL #5
        0x00003e90:    e1c3328c    .2..    BIC      r3,r3,r12,LSL #5
        0x00003e94:    e3811940    @...    ORR      r1,r1,#0x100000
        0x00003e98:    e3833940    @9..    ORR      r3,r3,#0x100000
        0x00003e9c:    e08c4291    .B..    UMULL    r4,r12,r1,r2
        0x00003ea0:    e0856390    .c..    UMULL    r6,r5,r0,r3
        0x00003ea4:    e0966004    .`..    ADDS     r6,r6,r4
        0x00003ea8:    e0b5500c    .P..    ADCS     r5,r5,r12
        0x00003eac:    e08c4391    .C..    UMULL    r4,r12,r1,r3
        0x00003eb0:    e2ac3000    .0..    ADC      r3,r12,#0
        0x00003eb4:    e08c1290    ....    UMULL    r1,r12,r0,r2
        0x00003eb8:    e096600c    .`..    ADDS     r6,r6,r12
        0x00003ebc:    e0b55004    .P..    ADCS     r5,r5,r4
        0x00003ec0:    e2b33000    .0..    ADCS     r3,r3,#0
        0x00003ec4:    e1110001    ....    TST      r1,r1
        0x00003ec8:    13866001    .`..    ORRNE    r6,r6,#1
        0x00003ecc:    e3e02003    . ..    MVN      r2,#3
        0x00003ed0:    e3a0c014    ....    MOV      r12,#0x14
        0x00003ed4:    e3530f80    ..S.    CMP      r3,#0x200
        0x00003ed8:    e2acc000    ....    ADC      r12,r12,#0
        0x00003edc:    e0a2284e    N(..    ADC      r2,r2,r14,ASR #16
        0x00003ee0:    e26c4020     @l.    RSB      r4,r12,#0x20
        0x00003ee4:    e1a01413    ....    MOV      r1,r3,LSL r4
        0x00003ee8:    e1a00415    ....    MOV      r0,r5,LSL r4
        0x00003eec:    e1811c35    5...    ORR      r1,r1,r5,LSR r12
        0x00003ef0:    e1800c36    6...    ORR      r0,r0,r6,LSR r12
        0x00003ef4:    e0811a02    ....    ADD      r1,r1,r2,LSL #20
        0x00003ef8:    e0211f8e    ..!.    EOR      r1,r1,r14,LSL #31
        0x00003efc:    e1b04416    .D..    MOVS     r4,r6,LSL r4
        0x00003f00:    0a000009    ....    BEQ      dmul_exact  ; 0x3f2c
        0x00003f04:    e1b0c084    ....    MOVS     r12,r4,LSL #1
        0x00003f08:    33a044c0    .D.3    MOVCC    r4,#0xc0000000
        0x00003f0c:    3a000006    ...:    BCC      dmul_exact  ; 0x3f2c
        0x00003f10:    03833480    .4..    ORREQ    r3,r3,#0x80000000
        0x00003f14:    e2b00000    ....    ADCS     r0,r0,#0
        0x00003f18:    e2a11000    ....    ADC      r1,r1,#0
        0x00003f1c:    e3a04440    @D..    MOV      r4,#0x40000000
        0x00003f20:    e1100fa3    ....    TST      r0,r3,LSR #31
        0x00003f24:    e1c00fa3    ....    BIC      r0,r0,r3,LSR #31
        0x00003f28:    13a044c0    .D..    MOVNE    r4,#0xc0000000
    dmul_exact
    dmul_rounded
        0x00003f2c:    e1310f8e    ..1.    TEQ      r1,r14,LSL #31
        0x00003f30:    e59fc1cc    ....    LDR      r12,0x4104
        0x00003f34:    4a00000b    ...J    BMI      dmul_outflow  ; 0x3f68
        0x00003f38:    e111000c    ....    TST      r1,r12
        0x00003f3c:    11dcc001    ....    BICNES   r12,r12,r1
        0x00003f40:    0a000008    ....    BEQ      dmul_outflow  ; 0x3f68
        0x00003f44:    e8bd8070    p...    LDMFD    r13!,{r4-r6,pc}
        0x00003f48:    e1b04f8e    .O..    MOVS     r4,r14,LSL #31
        0x00003f4c:    531c0880    ...S    TSTPL    r12,#0x800000
        0x00003f50:    431c0840    @..C    TSTMI    r12,#0x400000
        0x00003f54:    03a04440    @D..    MOVEQ    r4,#0x40000000
        0x00003f58:    13a044c0    .D..    MOVNE    r4,#0xc0000000
        0x00003f5c:    02900001    ....    ADDEQS   r0,r0,#1
        0x00003f60:    e2a11000    ....    ADC      r1,r1,#0
        0x00003f64:    eafffff0    ....    B        dmul_exact  ; 0x3f2c
    dmul_outflow
        0x00003f68:    e35e0640    @.^.    CMP      r14,#0x4000000
        0x00003f6c:    d2811460    `...    ADDLE    r1,r1,#0x60000000
        0x00003f70:    a2411460    `.A.    SUBGE    r1,r1,#0x60000000
        0x00003f74:    e384c013    ....    ORR      r12,r4,#0x13
        0x00003f78:    a38cc540    @...    ORRGE    r12,r12,#0x10000000
        0x00003f7c:    e8bd4070    p@..    LDMFD    r13!,{r4-r6,r14}
        0x00003f80:    da000061    a...    BLE      __dunder  ; 0x410c
        0x00003f84:    ea0000ec    ....    B        __fpl_exception  ; 0x433c
    dmul_zerodenorm
        0x00003f88:    e1904081    .@..    ORRS     r4,r0,r1,LSL #1
        0x00003f8c:    11924083    .@..    ORRNES   r4,r2,r3,LSL #1
        0x00003f90:    0a000004    ....    BEQ      dmul_zero  ; 0x3fa8
        0x00003f94:    e1150005    ....    TST      r5,r5
        0x00003f98:    0a000024    $...    BEQ      dmul_renorm_op2  ; 0x4030
    dmul_done_op2
        0x00003f9c:    e3de4001    .@..    BICS     r4,r14,#1
        0x00003fa0:    0a000003    ....    BEQ      dmul_renorm_op1  ; 0x3fb4
        0x00003fa4:    eaffffb6    ....    B        dmul_normalised  ; 0x3e84
    dmul_zero
        0x00003fa8:    e3a00000    ....    MOV      r0,#0
        0x00003fac:    e1a01f8e    ....    MOV      r1,r14,LSL #31
        0x00003fb0:    e8bd8070    p...    LDMFD    r13!,{r4-r6,pc}
    dmul_renorm_op1
        0x00003fb4:    e28eeb40    @...    ADD      r14,r14,#0x10000
        0x00003fb8:    e3c11480    ....    BIC      r1,r1,#0x80000000
        0x00003fbc:    e1916620     f..    ORRS     r6,r1,r0,LSR #12
        0x00003fc0:    01a00a00    ....    MOVEQ    r0,r0,LSL #20
        0x00003fc4:    024ee950    P.N.    SUBEQ    r14,r14,#0x140000
        0x00003fc8:    e1110001    ....    TST      r1,r1
        0x00003fcc:    01a01620     ...    MOVEQ    r1,r0,LSR #12
        0x00003fd0:    01a00a00    ....    MOVEQ    r0,r0,LSL #20
        0x00003fd4:    024ee950    P.N.    SUBEQ    r14,r14,#0x140000
        0x00003fd8:    e3a04000    .@..    MOV      r4,#0
        0x00003fdc:    e1b062a1    .b..    MOVS     r6,r1,LSR #5
        0x00003fe0:    01a01801    ....    MOVEQ    r1,r1,LSL #16
        0x00003fe4:    02844010    .@..    ADDEQ    r4,r4,#0x10
        0x00003fe8:    e1b066a1    .f..    MOVS     r6,r1,LSR #13
        0x00003fec:    01a01401    ....    MOVEQ    r1,r1,LSL #8
        0x00003ff0:    02844008    .@..    ADDEQ    r4,r4,#8
        0x00003ff4:    e1b068a1    .h..    MOVS     r6,r1,LSR #17
        0x00003ff8:    01a01201    ....    MOVEQ    r1,r1,LSL #4
        0x00003ffc:    02844004    .@..    ADDEQ    r4,r4,#4
        0x00004000:    e1b069a1    .i..    MOVS     r6,r1,LSR #19
        0x00004004:    01a01101    ....    MOVEQ    r1,r1,LSL #2
        0x00004008:    02844002    .@..    ADDEQ    r4,r4,#2
        0x0000400c:    e1b06a21    !j..    MOVS     r6,r1,LSR #20
        0x00004010:    01a01081    ....    MOVEQ    r1,r1,LSL #1
        0x00004014:    02844001    .@..    ADDEQ    r4,r4,#1
        0x00004018:    e04ee804    ..N.    SUB      r14,r14,r4,LSL #16
        0x0000401c:    e1a06410    .d..    MOV      r6,r0,LSL r4
        0x00004020:    e2644020     @d.    RSB      r4,r4,#0x20
        0x00004024:    e1811430    0...    ORR      r1,r1,r0,LSR r4
        0x00004028:    e1a00006    ....    MOV      r0,r6
        0x0000402c:    eaffff94    ....    B        dmul_normalised  ; 0x3e84
    dmul_renorm_op2
        0x00004030:    e2855b40    @[..    ADD      r5,r5,#0x10000
        0x00004034:    e3c33480    .4..    BIC      r3,r3,#0x80000000
        0x00004038:    e1936622    "f..    ORRS     r6,r3,r2,LSR #12
        0x0000403c:    01a02a02    .*..    MOVEQ    r2,r2,LSL #20
        0x00004040:    02455950    PYE.    SUBEQ    r5,r5,#0x140000
        0x00004044:    e1130003    ....    TST      r3,r3
        0x00004048:    01a03622    "6..    MOVEQ    r3,r2,LSR #12
        0x0000404c:    01a02a02    .*..    MOVEQ    r2,r2,LSL #20
        0x00004050:    02455950    PYE.    SUBEQ    r5,r5,#0x140000
        0x00004054:    e3a04000    .@..    MOV      r4,#0
        0x00004058:    e1b062a3    .b..    MOVS     r6,r3,LSR #5
        0x0000405c:    01a03803    .8..    MOVEQ    r3,r3,LSL #16
        0x00004060:    02844010    .@..    ADDEQ    r4,r4,#0x10
        0x00004064:    e1b066a3    .f..    MOVS     r6,r3,LSR #13
        0x00004068:    01a03403    .4..    MOVEQ    r3,r3,LSL #8
        0x0000406c:    02844008    .@..    ADDEQ    r4,r4,#8
        0x00004070:    e1b068a3    .h..    MOVS     r6,r3,LSR #17
        0x00004074:    01a03203    .2..    MOVEQ    r3,r3,LSL #4
        0x00004078:    02844004    .@..    ADDEQ    r4,r4,#4
        0x0000407c:    e1b069a3    .i..    MOVS     r6,r3,LSR #19
        0x00004080:    01a03103    .1..    MOVEQ    r3,r3,LSL #2
        0x00004084:    02844002    .@..    ADDEQ    r4,r4,#2
        0x00004088:    e1b06a23    #j..    MOVS     r6,r3,LSR #20
        0x0000408c:    01a03083    .0..    MOVEQ    r3,r3,LSL #1
        0x00004090:    02844001    .@..    ADDEQ    r4,r4,#1
        0x00004094:    e0455804    .XE.    SUB      r5,r5,r4,LSL #16
        0x00004098:    e1a06412    .d..    MOV      r6,r2,LSL r4
        0x0000409c:    e2644020     @d.    RSB      r4,r4,#0x20
        0x000040a0:    e1833432    24..    ORR      r3,r3,r2,LSR r4
        0x000040a4:    e1a02006    . ..    MOV      r2,r6
        0x000040a8:    eaffffbb    ....    B        dmul_done_op2  ; 0x3f9c
    dmul_naninf
        0x000040ac:    e1a05081    .P..    MOV      r5,r1,LSL #1
        0x000040b0:    e1a06083    .`..    MOV      r6,r3,LSL #1
        0x000040b4:    e155028c    ..U.    CMP      r5,r12,LSL #5
        0x000040b8:    03500000    ..P.    CMPEQ    r0,#0
        0x000040bc:    9156028c    ..V.    CMPLS    r6,r12,LSL #5
        0x000040c0:    03520000    ..R.    CMPEQ    r2,#0
        0x000040c4:    e8bd4070    p@..    LDMFD    r13!,{r4-r6,r14}
        0x000040c8:    e59fc038    8...    LDR      r12,0x4108
        0x000040cc:    8affff51    Q...    BHI      __fpl_dcheck_NaN2  ; 0x3e18
        0x000040d0:    eaffffff    ....    B        __fpl_inf_dmul  ; 0x40d4
    __fpl_inf_dmul
        0x000040d4:    e190c081    ....    ORRS     r12,r0,r1,LSL #1
        0x000040d8:    1192c083    ....    ORRNES   r12,r2,r3,LSL #1
        0x000040dc:    0a000005    ....    BEQ      dmul_ivo  ; 0x40f8
        0x000040e0:    e0211003    ..!.    EOR      r1,r1,r3
        0x000040e4:    e3a00000    ....    MOV      r0,#0
        0x000040e8:    e2011480    ....    AND      r1,r1,#0x80000000
        0x000040ec:    e381147f    ....    ORR      r1,r1,#0x7f000000
        0x000040f0:    e38118f0    ....    ORR      r1,r1,#0xf00000
        0x000040f4:    e1a0f00e    ....    MOV      pc,r14
    dmul_ivo
        0x000040f8:    e59fc008    ....    LDR      r12,0x4108
        0x000040fc:    ea00008e    ....    B        __fpl_exception  ; 0x433c
    $d
        0x00004100:    07ff0000    ....    DCD    134152192
        0x00004104:    7ff00000    ....    DCD    2146435072
        0x00004108:    04000013    ....    DCD    67108883
    __dunder
    $a
    x$fpl$dunder
        0x0000410c:    e92d0003    ..-.    STMFD    r13!,{r0,r1}
        0x00004110:    e92d500c    .P-.    STMFD    r13!,{r2,r3,r12,r14}
        0x00004114:    ebfffca7    ....    BL       __rt_fp_status_addr  ; 0x33b8
        0x00004118:    e8bd500c    .P..    LDMFD    r13!,{r2,r3,r12,r14}
        0x0000411c:    e1a03000    .0..    MOV      r3,r0
        0x00004120:    e8bd0003    ....    LDMFD    r13!,{r0,r1}
        0x00004124:    e5933000    .0..    LDR      r3,[r3,#0]
        0x00004128:    e3130740    @...    TST      r3,#0x1000000
        0x0000412c:    12011480    ....    ANDNE    r1,r1,#0x80000000
        0x00004130:    13a00000    ....    MOVNE    r0,#0
        0x00004134:    11a0f00e    ....    MOVNE    pc,r14
        0x00004138:    e3130e80    ....    TST      r3,#0x800
        0x0000413c:    1a00007c    |...    BNE      dunder_trap  ; 0x4334
        0x00004140:    e1110001    ....    TST      r1,r1
        0x00004144:    438ccb40    @..C    ORRMI    r12,r12,#0x10000
        0x00004148:    e3a03e60    `>..    MOV      r3,#0x600
        0x0000414c:    e1a02a21    !*..    MOV      r2,r1,LSR #20
        0x00004150:    e2833001    .0..    ADD      r3,r3,#1
        0x00004154:    e1c11a02    ....    BIC      r1,r1,r2,LSL #20
        0x00004158:    e3c22e80    ....    BIC      r2,r2,#0x800
        0x0000415c:    e0432002    . C.    SUB      r2,r3,r2
        0x00004160:    e3811940    @...    ORR      r1,r1,#0x100000
        0x00004164:    e3520035    5.R.    CMP      r2,#0x35
        0x00004168:    8a000022    "...    BHI      dunder_stickyonly  ; 0x41f8
        0x0000416c:    0a00001b    ....    BEQ      dunder_roundbit  ; 0x41e0
        0x00004170:    e3520015    ..R.    CMP      r2,#0x15
        0x00004174:    3a000010    ...:    BCC      dunder_hiword  ; 0x41bc
        0x00004178:    e2522020      R.    SUBS     r2,r2,#0x20
        0x0000417c:    9a000006    ....    BLS      dunder_hiloword  ; 0x419c
        0x00004180:    e2623020     0b.    RSB      r3,r2,#0x20
        0x00004184:    e3500000    ..P.    CMP      r0,#0
        0x00004188:    e1a00231    1...    MOV      r0,r1,LSR r2
        0x0000418c:    e1a02311    .#..    MOV      r2,r1,LSL r3
        0x00004190:    13822001    . ..    ORRNE    r2,r2,#1
        0x00004194:    e3a01000    ....    MOV      r1,#0
        0x00004198:    ea000019    ....    B        dunder_round  ; 0x4204
    dunder_hiloword
        0x0000419c:    e2623000    .0b.    RSB      r3,r2,#0
        0x000041a0:    e2822020      ..    ADD      r2,r2,#0x20
        0x000041a4:    e1a01311    ....    MOV      r1,r1,LSL r3
        0x000041a8:    e1811230    0...    ORR      r1,r1,r0,LSR r2
        0x000041ac:    e1a02310    .#..    MOV      r2,r0,LSL r3
        0x000041b0:    e1a00001    ....    MOV      r0,r1
        0x000041b4:    e3a01000    ....    MOV      r1,#0
        0x000041b8:    ea000011    ....    B        dunder_round  ; 0x4204
    dunder_hiword
        0x000041bc:    e92d0010    ..-.    STMFD    r13!,{r4}
        0x000041c0:    e2623020     0b.    RSB      r3,r2,#0x20
        0x000041c4:    e1a04310    .C..    MOV      r4,r0,LSL r3
        0x000041c8:    e1a03311    .3..    MOV      r3,r1,LSL r3
        0x000041cc:    e1830230    0...    ORR      r0,r3,r0,LSR r2
        0x000041d0:    e1a01231    1...    MOV      r1,r1,LSR r2
        0x000041d4:    e1a02004    . ..    MOV      r2,r4
        0x000041d8:    e8bd0010    ....    LDMFD    r13!,{r4}
        0x000041dc:    ea000008    ....    B        dunder_round  ; 0x4204
    dunder_roundbit
        0x000041e0:    e1902601    .&..    ORRS     r2,r0,r1,LSL #12
        0x000041e4:    e3a00000    ....    MOV      r0,#0
        0x000041e8:    e3a01000    ....    MOV      r1,#0
        0x000041ec:    e3a02480    .$..    MOV      r2,#0x80000000
        0x000041f0:    12822001    . ..    ADDNE    r2,r2,#1
        0x000041f4:    ea000002    ....    B        dunder_round  ; 0x4204
    dunder_stickyonly
        0x000041f8:    e3a02001    . ..    MOV      r2,#1
        0x000041fc:    e3a01000    ....    MOV      r1,#0
        0x00004200:    e3a00000    ....    MOV      r0,#0
    dunder_round
        0x00004204:    e31c0b40    @...    TST      r12,#0x10000
        0x00004208:    e3cccb40    @...    BIC      r12,r12,#0x10000
        0x0000420c:    13811480    ....    ORRNE    r1,r1,#0x80000000
        0x00004210:    e1120002    ....    TST      r2,r2
        0x00004214:    01a0f00e    ....    MOVEQ    pc,r14
        0x00004218:    e1b02082    . ..    MOVS     r2,r2,LSL #1
        0x0000421c:    3a000002    ...:    BCC      dunder_rerounded  ; 0x422c
        0x00004220:    0a00000b    ....    BEQ      dunder_roundeven  ; 0x4254
    dunder_roundup
        0x00004224:    e2900001    ....    ADDS     r0,r0,#1
        0x00004228:    e2a11000    ....    ADC      r1,r1,#0
    dunder_rerounded
        0x0000422c:    e92d0003    ..-.    STMFD    r13!,{r0,r1}
        0x00004230:    e92d500c    .P-.    STMFD    r13!,{r2,r3,r12,r14}
        0x00004234:    ebfffc5f    _...    BL       __rt_fp_status_addr  ; 0x33b8
        0x00004238:    e8bd500c    .P..    LDMFD    r13!,{r2,r3,r12,r14}
        0x0000423c:    e1a02000    . ..    MOV      r2,r0
        0x00004240:    e8bd0003    ....    LDMFD    r13!,{r0,r1}
        0x00004244:    e5923000    .0..    LDR      r3,[r2,#0]
        0x00004248:    e3833008    .0..    ORR      r3,r3,#8
        0x0000424c:    e5823000    .0..    STR      r3,[r2,#0]
        0x00004250:    e1a0f00e    ....    MOV      pc,r14
    dunder_roundeven
        0x00004254:    e1b02f4c    L/..    MOVS     r2,r12,ASR #30
        0x00004258:    4afffff1    ...J    BMI      dunder_roundup  ; 0x4224
        0x0000425c:    1afffff2    ....    BNE      dunder_rerounded  ; 0x422c
        0x00004260:    e2900001    ....    ADDS     r0,r0,#1
        0x00004264:    e2a11000    ....    ADC      r1,r1,#0
        0x00004268:    e3c00001    ....    BIC      r0,r0,#1
        0x0000426c:    eaffffee    ....    B        dunder_rerounded  ; 0x422c
    __dunder_d
        0x00004270:    e92d0003    ..-.    STMFD    r13!,{r0,r1}
        0x00004274:    e92d500c    .P-.    STMFD    r13!,{r2,r3,r12,r14}
        0x00004278:    ebfffc4e    N...    BL       __rt_fp_status_addr  ; 0x33b8
        0x0000427c:    e8bd500c    .P..    LDMFD    r13!,{r2,r3,r12,r14}
        0x00004280:    e1a03000    .0..    MOV      r3,r0
        0x00004284:    e8bd0003    ....    LDMFD    r13!,{r0,r1}
        0x00004288:    e5933000    .0..    LDR      r3,[r3,#0]
        0x0000428c:    e3130740    @...    TST      r3,#0x1000000
        0x00004290:    12011480    ....    ANDNE    r1,r1,#0x80000000
        0x00004294:    13a00000    ....    MOVNE    r0,#0
        0x00004298:    11a0f00e    ....    MOVNE    pc,r14
        0x0000429c:    e3130e80    ....    TST      r3,#0x800
        0x000042a0:    01a0f00e    ....    MOVEQ    pc,r14
        0x000042a4:    e92d4000    .@-.    STMFD    r13!,{r14}
        0x000042a8:    e3a0e660    `...    MOV      r14,#0x6000000
        0x000042ac:    e18eefa1    ....    ORR      r14,r14,r1,LSR #31
        0x000042b0:    e3c11480    ....    BIC      r1,r1,#0x80000000
        0x000042b4:    e1913620     6..    ORRS     r3,r1,r0,LSR #12
        0x000042b8:    01a00a00    ....    MOVEQ    r0,r0,LSL #20
        0x000042bc:    024ee950    P.N.    SUBEQ    r14,r14,#0x140000
        0x000042c0:    e1110001    ....    TST      r1,r1
        0x000042c4:    01a01620     ...    MOVEQ    r1,r0,LSR #12
        0x000042c8:    01a00a00    ....    MOVEQ    r0,r0,LSL #20
        0x000042cc:    024ee950    P.N.    SUBEQ    r14,r14,#0x140000
        0x000042d0:    e3a02000    . ..    MOV      r2,#0
        0x000042d4:    e1b032a1    .2..    MOVS     r3,r1,LSR #5
        0x000042d8:    01a01801    ....    MOVEQ    r1,r1,LSL #16
        0x000042dc:    02822010    . ..    ADDEQ    r2,r2,#0x10
        0x000042e0:    e1b036a1    .6..    MOVS     r3,r1,LSR #13
        0x000042e4:    01a01401    ....    MOVEQ    r1,r1,LSL #8
        0x000042e8:    02822008    . ..    ADDEQ    r2,r2,#8
        0x000042ec:    e1b038a1    .8..    MOVS     r3,r1,LSR #17
        0x000042f0:    01a01201    ....    MOVEQ    r1,r1,LSL #4
        0x000042f4:    02822004    . ..    ADDEQ    r2,r2,#4
        0x000042f8:    e1b039a1    .9..    MOVS     r3,r1,LSR #19
        0x000042fc:    01a01101    ....    MOVEQ    r1,r1,LSL #2
        0x00004300:    02822002    . ..    ADDEQ    r2,r2,#2
        0x00004304:    e1b03a21    !:..    MOVS     r3,r1,LSR #20
        0x00004308:    01a01081    ....    MOVEQ    r1,r1,LSL #1
        0x0000430c:    02822001    . ..    ADDEQ    r2,r2,#1
        0x00004310:    e04ee802    ..N.    SUB      r14,r14,r2,LSL #16
        0x00004314:    e1a03210    .2..    MOV      r3,r0,LSL r2
        0x00004318:    e2622020      b.    RSB      r2,r2,#0x20
        0x0000431c:    e1811230    0...    ORR      r1,r1,r0,LSR r2
        0x00004320:    e1a00003    ....    MOV      r0,r3
        0x00004324:    e0211f8e    ..!.    EOR      r1,r1,r14,LSL #31
        0x00004328:    e3cee001    ....    BIC      r14,r14,#1
        0x0000432c:    e081120e    ....    ADD      r1,r1,r14,LSL #4
        0x00004330:    e8bd4000    .@..    LDMFD    r13!,{r14}
    dunder_trap
        0x00004334:    e38cc580    ....    ORR      r12,r12,#0x20000000
        0x00004338:    ea00008e    ....    B        _fp_trapveneer  ; 0x4578
    __fpl_exception
    x$fpl$exception
        0x0000433c:    e31c0010    ....    TST      r12,#0x10
        0x00004340:    01a02001    . ..    MOVEQ    r2,r1
        0x00004344:    e92d000f    ..-.    STMFD    r13!,{r0-r3}
        0x00004348:    e92d0003    ..-.    STMFD    r13!,{r0,r1}
        0x0000434c:    e92d500c    .P-.    STMFD    r13!,{r2,r3,r12,r14}
        0x00004350:    ebfffc18    ....    BL       __rt_fp_status_addr  ; 0x33b8
        0x00004354:    e8bd500c    .P..    LDMFD    r13!,{r2,r3,r12,r14}
        0x00004358:    e1a02000    . ..    MOV      r2,r0
        0x0000435c:    e8bd0003    ....    LDMFD    r13!,{r0,r1}
        0x00004360:    e5921000    ....    LDR      r1,[r2,#0]
        0x00004364:    e1cc3901    .9..    BIC      r3,r12,r1,LSL #18
        0x00004368:    e21335c0    .5..    ANDS     r3,r3,#0x30000000
        0x0000436c:    138cc440    @...    ORRNE    r12,r12,#0x40000000
        0x00004370:    e1a0308c    .0..    MOV      r3,r12,LSL #1
        0x00004374:    e1a03da3    .=..    MOV      r3,r3,LSR #27
        0x00004378:    e1811003    ....    ORR      r1,r1,r3
        0x0000437c:    e2013770    p7..    AND      r3,r1,#0x1c00000
        0x00004380:    e18cc003    ....    ORR      r12,r12,r3
        0x00004384:    e5821000    ....    STR      r1,[r2,#0]
        0x00004388:    e20c300f    .0..    AND      r3,r12,#0xf
        0x0000438c:    e3330008    ..3.    TEQ      r3,#8
        0x00004390:    120c3070    p0..    ANDNE    r3,r12,#0x70
        0x00004394:    118cc183    ....    ORRNE    r12,r12,r3,LSL #3
        0x00004398:    03a03b80    .;..    MOVEQ    r3,#0x20000
        0x0000439c:    01d3300c    .0..    BICEQS   r3,r3,r12
        0x000043a0:    038cc8c0    ....    ORREQ    r12,r12,#0xc00000
        0x000043a4:    e31c0580    ....    TST      r12,#0x20000000
        0x000043a8:    1a00000d    ....    BNE      underflow  ; 0x43e4
        0x000043ac:    e31c0540    @...    TST      r12,#0x10000000
        0x000043b0:    1a000007    ....    BNE      overflow  ; 0x43d4
        0x000043b4:    e31c0440    @...    TST      r12,#0x40000000
        0x000043b8:    1a000014    ....    BNE      inexact  ; 0x4410
        0x000043bc:    e31c0680    ....    TST      r12,#0x8000000
        0x000043c0:    1a00000b    ....    BNE      divide_by_zero  ; 0x43f4
        0x000043c4:    e3110f40    @...    TST      r1,#0x100
        0x000043c8:    e8bd000f    ....    LDMFD    r13!,{r0-r3}
        0x000043cc:    0a000020     ...    BEQ      return_NaN  ; 0x4454
        0x000043d0:    ea000068    h...    B        _fp_trapveneer  ; 0x4578
    overflow
        0x000043d4:    e3110e40    @...    TST      r1,#0x400
        0x000043d8:    e8bd000f    ....    LDMFD    r13!,{r0-r3}
        0x000043dc:    0a000011    ....    BEQ      ovf_return  ; 0x4428
        0x000043e0:    ea000064    d...    B        _fp_trapveneer  ; 0x4578
    underflow
        0x000043e4:    e3110e80    ....    TST      r1,#0x800
        0x000043e8:    e8bd000f    ....    LDMFD    r13!,{r0-r3}
        0x000043ec:    0a00000b    ....    BEQ      return_result  ; 0x4420
        0x000043f0:    ea000060    `...    B        _fp_trapveneer  ; 0x4578
    divide_by_zero
        0x000043f4:    e3110f80    ....    TST      r1,#0x200
        0x000043f8:    e8bd000f    ....    LDMFD    r13!,{r0-r3}
        0x000043fc:    1a00005d    ]...    BNE      _fp_trapveneer  ; 0x4578
        0x00004400:    e31c0010    ....    TST      r12,#0x10
        0x00004404:    10212003    . !.    EORNE    r2,r1,r3
        0x00004408:    00202002    .  .    EOREQ    r2,r0,r2
        0x0000440c:    ea000008    ....    B        return_Inf  ; 0x4434
    inexact
        0x00004410:    e3110d40    @...    TST      r1,#0x1000
        0x00004414:    e8bd000f    ....    LDMFD    r13!,{r0-r3}
        0x00004418:    0a000000    ....    BEQ      return_result  ; 0x4420
        0x0000441c:    ea000055    U...    B        _fp_trapveneer  ; 0x4578
    return_result
        0x00004420:    e31c0010    ....    TST      r12,#0x10
        0x00004424:    e1a0f00e    ....    MOV      pc,r14
    ovf_return
        0x00004428:    e31c0080    ....    TST      r12,#0x80
        0x0000442c:    12012480    .$..    ANDNE    r2,r1,#0x80000000
        0x00004430:    02002480    .$..    ANDEQ    r2,r0,#0x80000000
    return_Inf
        0x00004434:    e2022480    .$..    AND      r2,r2,#0x80000000
        0x00004438:    e31c0010    ....    TST      r12,#0x10
        0x0000443c:    128f0038    8...    ADDNE    r0,pc,#0x38 ; #0x447c
        0x00004440:    18900003    ....    LDMNEIA  r0,{r0,r1}
        0x00004444:    11811002    ....    ORRNE    r1,r1,r2
        0x00004448:    059f003c    <...    LDREQ    r0,0x448c
        0x0000444c:    01800002    ....    ORREQ    r0,r0,r2
        0x00004450:    e1a0f00e    ....    MOV      pc,r14
    return_NaN
        0x00004454:    e31c0080    ....    TST      r12,#0x80
        0x00004458:    12012480    .$..    ANDNE    r2,r1,#0x80000000
        0x0000445c:    02002480    .$..    ANDEQ    r2,r0,#0x80000000
        0x00004460:    e31c0010    ....    TST      r12,#0x10
        0x00004464:    128f0028    (...    ADDNE    r0,pc,#0x28 ; #0x4494
        0x00004468:    18900003    ....    LDMNEIA  r0,{r0,r1}
        0x0000446c:    11811002    ....    ORRNE    r1,r1,r2
        0x00004470:    059f0024    $...    LDREQ    r0,0x449c
        0x00004474:    01800002    ....    ORREQ    r0,r0,r2
        0x00004478:    ea000018    ....    B        __fpl_return_NaN  ; 0x44e0
    prototype_double_Inf
    $d
        0x0000447c:    00000000    ....    DCD    0
        0x00004480:    7ff00000    ....    DCD    2146435072
        0x00004484:    ffffffff    ....    DCD    4294967295
        0x00004488:    7fefffff    ....    DCD    2146435071
    prototype_single_Inf
        0x0000448c:    7f800000    ....    DCD    2139095040
        0x00004490:    7f7fffff    ....    DCD    2139095039
    prototype_double_NaN
        0x00004494:    00000000    ....    DCD    0
        0x00004498:    7ff80000    ....    DCD    2146959360
    prototype_single_NaN
        0x0000449c:    7fc00000    ....    DCD    2143289344
    __32__ieee_status
    __ieee_status
    $a
    x$fpl$ieeestatus
        0x000044a0:    e59f2030    0 ..    LDR      r2,0x44d8
        0x000044a4:    e1c11002    ....    BIC      r1,r1,r2
        0x000044a8:    e1c02002    . ..    BIC      r2,r0,r2
        0x000044ac:    e92d0003    ..-.    STMFD    r13!,{r0,r1}
        0x000044b0:    e92d500c    .P-.    STMFD    r13!,{r2,r3,r12,r14}
        0x000044b4:    ebfffbbf    ....    BL       __rt_fp_status_addr  ; 0x33b8
        0x000044b8:    e8bd500c    .P..    LDMFD    r13!,{r2,r3,r12,r14}
        0x000044bc:    e1a03000    .0..    MOV      r3,r0
        0x000044c0:    e8bd0003    ....    LDMFD    r13!,{r0,r1}
        0x000044c4:    e5930000    ....    LDR      r0,[r3,#0]
        0x000044c8:    e1c02002    . ..    BIC      r2,r0,r2
        0x000044cc:    e0222001    . ".    EOR      r2,r2,r1
        0x000044d0:    e5832000    . ..    STR      r2,[r3,#0]
        0x000044d4:    e1a0f00e    ....    MOV      pc,r14
    $d
        0x000044d8:    fe3fe0e0    ..?.    DCD    4265599200
    __lib_sel_fp_printf
    _fp_display_gate
    $a
    x$fpl$printf1
        0x000044dc:    eafff56d    m...    B        _fp_display  ; 0x1a98
    __fpl_return_NaN
    x$fpl$retnan
        0x000044e0:    e20c300f    .0..    AND      r3,r12,#0xf
        0x000044e4:    e3530009    ..S.    CMP      r3,#9
        0x000044e8:    03a00008    ....    MOVEQ    r0,#8
        0x000044ec:    0a00002a    *...    BEQ      __fpl_cmpreturn  ; 0x459c
        0x000044f0:    e3530008    ..S.    CMP      r3,#8
        0x000044f4:    11a0f00e    ....    MOVNE    pc,r14
        0x000044f8:    031c0040    @...    TSTEQ    r12,#0x40
        0x000044fc:    0a000016    ....    BEQ      return_fpnan  ; 0x455c
        0x00004500:    e31c0b40    @...    TST      r12,#0x10000
        0x00004504:    1a00000b    ....    BNE      return_zero  ; 0x4538
        0x00004508:    e31c0020     ...    TST      r12,#0x20
        0x0000450c:    1a00000c    ....    BNE      return_umaxint  ; 0x4544
        0x00004510:    e31c0010    ....    TST      r12,#0x10
        0x00004514:    01a02000    . ..    MOVEQ    r2,r0
        0x00004518:    11a02001    . ..    MOVNE    r2,r1
        0x0000451c:    03e00480    ....    MVNEQ    r0,#0x80000000
        0x00004520:    13e01480    ....    MVNNE    r1,#0x80000000
        0x00004524:    13e00000    ....    MVNNE    r0,#0
        0x00004528:    e3120480    ....    TST      r2,#0x80000000
        0x0000452c:    11e00000    ....    MVNNE    r0,r0
        0x00004530:    11e01001    ....    MVNNE    r1,r1
        0x00004534:    e1a0f00e    ....    MOV      pc,r14
    return_zero
        0x00004538:    e3a00000    ....    MOV      r0,#0
        0x0000453c:    e3a01000    ....    MOV      r1,#0
        0x00004540:    e1a0f00e    ....    MOV      pc,r14
    return_umaxint
        0x00004544:    e3e00000    ....    MVN      r0,#0
        0x00004548:    e3e01000    ....    MVN      r1,#0
        0x0000454c:    e3120480    ....    TST      r2,#0x80000000
        0x00004550:    11e00000    ....    MVNNE    r0,r0
        0x00004554:    11e01001    ....    MVNNE    r1,r1
        0x00004558:    e1a0f00e    ....    MOV      pc,r14
    return_fpnan
        0x0000455c:    e31c0010    ....    TST      r12,#0x10
        0x00004560:    059f0008    ....    LDREQ    r0,0x4570
        0x00004564:    159f1008    ....    LDRNE    r1,0x4574
        0x00004568:    13a00000    ....    MOVNE    r0,#0
        0x0000456c:    e1a0f00e    ....    MOV      pc,r14
    $d
        0x00004570:    7fc00000    ....    DCD    2143289344
        0x00004574:    7ff80000    ....    DCD    2146959360
    _fp_trapveneer
    $a
    x$fpl$trapveneer
        0x00004578:    e92d5000    .P-.    STMFD    r13!,{r12,r14}
        0x0000457c:    e92d5000    .P-.    STMFD    r13!,{r12,r14}
        0x00004580:    ebfffbe6    ....    BL       _fp_trap  ; 0x3520
        0x00004584:    e8bd5000    .P..    LDMFD    r13!,{r12,r14}
        0x00004588:    e8bd5000    .P..    LDMFD    r13!,{r12,r14}
        0x0000458c:    e20c300f    .0..    AND      r3,r12,#0xf
        0x00004590:    e3330009    ..3.    TEQ      r3,#9
        0x00004594:    11a0f00e    ....    MOVNE    pc,r14
        0x00004598:    eaffffff    ....    B        __fpl_cmpreturn  ; 0x459c
    __fpl_cmpreturn
        0x0000459c:    e31c0940    @...    TST      r12,#0x100000
        0x000045a0:    0a00001a    ....    BEQ      cmp_boolean  ; 0x4610
        0x000045a4:    e31c0af0    ....    TST      r12,#0xf0000
        0x000045a8:    0a000006    ....    BEQ      cmp_generic  ; 0x45c8
        0x000045ac:    e3100008    ....    TST      r0,#8
        0x000045b0:    1a000001    ....    BNE      cmp_specflags_unordered  ; 0x45bc
        0x000045b4:    e2700002    ..p.    RSBS     r0,r0,#2
        0x000045b8:    e1a0f00e    ....    MOV      pc,r14
    cmp_specflags_unordered
        0x000045bc:    e20c1af0    ....    AND      r1,r12,#0xf0000
        0x000045c0:    e3510a40    @.Q.    CMP      r1,#0x40000
        0x000045c4:    e1a0f00e    ....    MOV      pc,r14
    cmp_generic
        0x000045c8:    e3a014e0    ....    MOV      r1,#0xe0000000
        0x000045cc:    e0111e80    ....    ANDS     r1,r1,r0,LSL #29
        0x000045d0:    238115c0    ...#    ORRCS    r1,r1,#0x30000000
        0x000045d4:    e92d0003    ..-.    STMFD    r13!,{r0,r1}
        0x000045d8:    e92d500c    .P-.    STMFD    r13!,{r2,r3,r12,r14}
        0x000045dc:    ebfffb75    u...    BL       __rt_fp_status_addr  ; 0x33b8
        0x000045e0:    e8bd500c    .P..    LDMFD    r13!,{r2,r3,r12,r14}
        0x000045e4:    e1a0c000    ....    MOV      r12,r0
        0x000045e8:    e8bd0003    ....    LDMFD    r13!,{r0,r1}
        0x000045ec:    e59c3000    .0..    LDR      r3,[r12,#0]
        0x000045f0:    e3c334f0    .4..    BIC      r3,r3,#0xf0000000
        0x000045f4:    e1833001    .0..    ORR      r3,r3,r1
        0x000045f8:    e58c3000    .0..    STR      r3,[r12,#0]
        0x000045fc:    e10f2000    . ..    MRS      r2,CPSR
        0x00004600:    e3c224f0    .$..    BIC      r2,r2,#0xf0000000
        0x00004604:    e1822001    . ..    ORR      r2,r2,r1
        0x00004608:    e128f002    ..(.    MSR      CPSR_f,r2
        0x0000460c:    e1a0f00e    ....    MOV      pc,r14
    cmp_boolean
        0x00004610:    e01c0800    ....    ANDS     r0,r12,r0,LSL #16
        0x00004614:    13a00001    ....    MOVNE    r0,#1
        0x00004618:    e1a0f00e    ....    MOV      pc,r14
    __stdin_name
    .constdata$16
    $d
    .constdata
        0x0000461c:    0074743a    :tt.    DCD    7631930
    __stdout_name
    .constdata$21
    .constdata
        0x00004620:    0074743a    :tt.    DCD    7631930
    __stderr_name
    .constdata$26
    .constdata
        0x00004624:    0074743a    :tt.    DCD    7631930
    .constdata$1
    tenpwrs_x@_btod_etento_0
    .constdata
        0x00004628:    00004002    .@..    DCD    16386
        0x0000462c:    a0000000    ....    DCD    2684354560
        0x00004630:    00000000    ....    DCD    0
        0x00004634:    00004005    .@..    DCD    16389
        0x00004638:    c8000000    ....    DCD    3355443200
        0x0000463c:    00000000    ....    DCD    0
        0x00004640:    0000400c    .@..    DCD    16396
        0x00004644:    9c400000    ..@.    DCD    2621440000
        0x00004648:    00000000    ....    DCD    0
        0x0000464c:    00004019    .@..    DCD    16409
        0x00004650:    bebc2000    . ..    DCD    3200000000
        0x00004654:    00000000    ....    DCD    0
        0x00004658:    00004034    4@..    DCD    16436
        0x0000465c:    8e1bc9bf    ....    DCD    2384185791
        0x00004660:    04000000    ....    DCD    67108864
    tenpwrs_i@_btod_etento_1
        0x00004664:    000040b5    .@..    DCD    16565
        0x00004668:    d0cf4b50    PK..    DCD    3503246160
        0x0000466c:    cfe20766    f...    DCD    3487696742
        0x00004670:    00000001    ....    DCD    1
        0x00004674:    0000416c    lA..    DCD    16748
        0x00004678:    aa51823e    >.Q.    DCD    2857468478
        0x0000467c:    34a7eedf    ...4    DCD    883420895
        0x00004680:    00000001    ....    DCD    1
        0x00004684:    000042d9    .B..    DCD    17113
        0x00004688:    e2a0b5dc    ....    DCD    3802183132
        0x0000468c:    971f303a    :0..    DCD    2535403578
        0x00004690:    ffffffff    ....    DCD    4294967295
        0x00004694:    000045b4    .E..    DCD    17844
        0x00004698:    c8a025fd    .%..    DCD    3365938685
        0x0000469c:    4fc1a3e9    ...O    DCD    1338090473
        0x000046a0:    ffffffff    ....    DCD    4294967295
        0x000046a4:    00003fff    .?..    DCD    16383
        0x000046a8:    80000000    ....    DCD    2147483648
        0x000046ac:    00000000    ....    DCD    0
        0x000046b0:    00003fff    .?..    DCD    16383
        0x000046b4:    80000000    ....    DCD    2147483648
        0x000046b8:    00000000    ....    DCD    0
    __select_optimised_fwrite
    .constdata$16
    .constdata
        0x000046bc:    00000000    ....    DCD    0
    .constdata$1
    __lcnum_c_index
    .constdata
        0x000046c0:    0000001c    ....    DCD    28
    __lcnum_c_lname
        0x000046c4:    00000043    C...    DCD    67
    __lcnum_c_pname
        0x000046c8:    fffffff8    ....    DCD    4294967288
    __lcnum_c_start
        0x000046cc:    0000000c    ....    DCD    12
    __lcnum_c_tsoff
        0x000046d0:    0000000e    ....    DCD    14
    __lcnum_c_groff
        0x000046d4:    0000000f    ....    DCD    15
    __lcnum_c_dptxt
        0x000046d8:    002e        ..      DCW    46
    __lcnum_c_tstxt
        0x000046da:    00          .       DCB    0
    __lcnum_c_grtxt
        0x000046db:    00          .       DCB    0
    .constdata$1
    messages@__default_signal_handler_0
    .constdata
        0x000046dc:    6f6e6241    Abno    DCD    1869505089
        0x000046e0:    6c616d72    rmal    DCD    1818324338
        0x000046e4:    72657420     ter    DCD    1919251488
        0x000046e8:    616e696d    mina    DCD    1634625901
        0x000046ec:    6e6f6974    tion    DCD    1852795252
        0x000046f0:    41000000    ...A    DCD    1090519040
        0x000046f4:    68746972    rith    DCD    1752459634
        0x000046f8:    6974656d    meti    DCD    1769235821
        0x000046fc:    78652063    c ex    DCD    2019893347
        0x00004700:    74706563    cept    DCD    1953523043
        0x00004704:    3a6e6f69    ion:    DCD    980316009
        0x00004708:    6c490020     .Il    DCD    1816723488
        0x0000470c:    6167656c    lega    DCD    1634166124
        0x00004710:    6e69206c    l in    DCD    1852383340
        0x00004714:    75727473    stru    DCD    1970435187
        0x00004718:    6f697463    ctio    DCD    1869182051
        0x0000471c:    0000006e    n...    DCD    110
        0x00004720:    746e4900    .Int    DCD    1953384704
        0x00004724:    75727265    erru    DCD    1970434661
        0x00004728:    72207470    pt r    DCD    1914729584
        0x0000472c:    69656365    ecei    DCD    1768252261
        0x00004730:    00646576    ved.    DCD    6579574
        0x00004734:    00000000    ....    DCD    0
        0x00004738:    656c6c49    Ille    DCD    1701604425
        0x0000473c:    206c6167    gal     DCD    543973735
        0x00004740:    72646461    addr    DCD    1919181921
        0x00004744:    00737365    ess.    DCD    7566181
        0x00004748:    00000000    ....    DCD    0
        0x0000474c:    54000000    ...T    DCD    1409286144
        0x00004750:    696d7265    ermi    DCD    1768780389
        0x00004754:    6974616e    nati    DCD    1769234798
        0x00004758:    72206e6f    on r    DCD    1914728047
        0x0000475c:    65757165    eque    DCD    1702195557
        0x00004760:    00007473    st..    DCD    29811
        0x00004764:    74530000    ..St    DCD    1951596544
        0x00004768:    206b6361    ack     DCD    543908705
        0x0000476c:    7265766f    over    DCD    1919252079
        0x00004770:    776f6c66    flow    DCD    2003790950
        0x00004774:    00000000    ....    DCD    0
        0x00004778:    00000000    ....    DCD    0
        0x0000477c:    64655200    .Red    DCD    1684361728
        0x00004780:    63657269    irec    DCD    1667592809
        0x00004784:    63203a74    t: c    DCD    1663056500
        0x00004788:    74276e61    an't    DCD    1948741217
        0x0000478c:    65706f20     ope    DCD    1701867296
        0x00004790:    00203a6e    n: .    DCD    2112110
        0x00004794:    2074754f    Out     DCD    544503119
        0x00004798:    6820666f    of h    DCD    1746953839
        0x0000479c:    20706165    eap     DCD    544235877
        0x000047a0:    6f6d656d    memo    DCD    1869440365
        0x000047a4:    00007972    ry..    DCD    31090
        0x000047a8:    55000000    ...U    DCD    1426063360
        0x000047ac:    2d726573    ser-    DCD    762471795
        0x000047b0:    69666564    defi    DCD    1768318308
        0x000047b4:    2064656e    ned     DCD    543450478
        0x000047b8:    6e676973    sign    DCD    1852270963
        0x000047bc:    31206c61    al 1    DCD    824208481
        0x000047c0:    73550000    ..Us    DCD    1934950400
        0x000047c4:    642d7265    er-d    DCD    1680700005
        0x000047c8:    6e696665    efin    DCD    1852401253
        0x000047cc:    73206465    ed s    DCD    1931502693
        0x000047d0:    616e6769    igna    DCD    1634625385
        0x000047d4:    0032206c    l 2.    DCD    3285100
        0x000047d8:    72755000    .Pur    DCD    1920290816
        0x000047dc:    69762065    e vi    DCD    1769349221
        0x000047e0:    61757472    rtua    DCD    1635087474
        0x000047e4:    6e66206c    l fn    DCD    1852186732
        0x000047e8:    6c616320     cal    DCD    1818321696
        0x000047ec:    0064656c    led.    DCD    6579564
        0x000047f0:    202b2b43    C++     DCD    539700035
        0x000047f4:    7262696c    libr    DCD    1919052140
        0x000047f8:    20797261    ary     DCD    544830049
        0x000047fc:    65637865    exce    DCD    1701017701
        0x00004800:    6f697470    ptio    DCD    1869182064
        0x00004804:    0000006e    n...    DCD    110

** Section #2 'ER_ZI' (SHT_NOBITS) [SHF_ALLOC + SHF_WRITE]
    Size   : 300 bytes (alignment 4)
    Address: 0x00004808


** Section #3 '.debug_frame' (SHT_PROGBITS)
    Size   : 6820 bytes


** Section #4 '.symtab' (SHT_SYMTAB)
    Size   : 6624 bytes (alignment 4)
    String table '.strtab'
    Last local symbol no. 289


** Section #5 '.strtab' (SHT_STRTAB)
    Size   : 3528 bytes


** Section #6 '.note' (SHT_NOTE)
    Size   : 24 bytes (alignment 4)


** Section #7 '.comment' (SHT_PROGBITS)
    Size   : 6756 bytes


** Section #8 '.shstrtab' (SHT_STRTAB)
    Size   : 84 bytes


