
b-superboot-demo.elf:     file format elf32-littlearm


Disassembly of section .text:

d0020010 <_start>:
d0020010:	e59fd008 	ldr	sp, [pc, #8]	; d0020020 <_start+0x10>
d0020014:	eb000101 	bl	d0020420 <clock_init>
d0020018:	eb000001 	bl	d0020024 <mem_ctrl_asm_init>
d002001c:	ea0001bb 	b	d0020710 <mymain>
d0020020:	d0030000 	.word	0xd0030000

d0020024 <mem_ctrl_asm_init>:
d0020024:	e59f0388 	ldr	r0, [pc, #904]	; d00203b4 <find_lock_val1+0x150>
d0020028:	e3a01000 	mov	r1, #0
d002002c:	e5801000 	str	r1, [r0]
d0020030:	e3a01000 	mov	r1, #0
d0020034:	e580100c 	str	r1, [r0, #12]
d0020038:	e59f0378 	ldr	r0, [pc, #888]	; d00203b8 <find_lock_val1+0x154>
d002003c:	e59f1378 	ldr	r1, [pc, #888]	; d00203bc <find_lock_val1+0x158>
d0020040:	e58013cc 	str	r1, [r0, #972]	; 0x3cc
d0020044:	e58013cc 	str	r1, [r0, #972]	; 0x3cc
d0020048:	e59f136c 	ldr	r1, [pc, #876]	; d00203bc <find_lock_val1+0x158>
d002004c:	e58013ec 	str	r1, [r0, #1004]	; 0x3ec
d0020050:	e59f1364 	ldr	r1, [pc, #868]	; d00203bc <find_lock_val1+0x158>
d0020054:	e580140c 	str	r1, [r0, #1036]	; 0x40c
d0020058:	e59f135c 	ldr	r1, [pc, #860]	; d00203bc <find_lock_val1+0x158>
d002005c:	e580142c 	str	r1, [r0, #1068]	; 0x42c
d0020060:	e59f1354 	ldr	r1, [pc, #852]	; d00203bc <find_lock_val1+0x158>
d0020064:	e580144c 	str	r1, [r0, #1100]	; 0x44c
d0020068:	e59f134c 	ldr	r1, [pc, #844]	; d00203bc <find_lock_val1+0x158>
d002006c:	e580146c 	str	r1, [r0, #1132]	; 0x46c
d0020070:	e59f1344 	ldr	r1, [pc, #836]	; d00203bc <find_lock_val1+0x158>
d0020074:	e580148c 	str	r1, [r0, #1164]	; 0x48c
d0020078:	e59f133c 	ldr	r1, [pc, #828]	; d00203bc <find_lock_val1+0x158>
d002007c:	e58014ac 	str	r1, [r0, #1196]	; 0x4ac
d0020080:	e59f1338 	ldr	r1, [pc, #824]	; d00203c0 <find_lock_val1+0x15c>
d0020084:	e58014cc 	str	r1, [r0, #1228]	; 0x4cc
d0020088:	e59f0328 	ldr	r0, [pc, #808]	; d00203b8 <find_lock_val1+0x154>
d002008c:	e59f1328 	ldr	r1, [pc, #808]	; d00203bc <find_lock_val1+0x158>
d0020090:	e58014ec 	str	r1, [r0, #1260]	; 0x4ec
d0020094:	e59f1320 	ldr	r1, [pc, #800]	; d00203bc <find_lock_val1+0x158>
d0020098:	e580150c 	str	r1, [r0, #1292]	; 0x50c
d002009c:	e59f1318 	ldr	r1, [pc, #792]	; d00203bc <find_lock_val1+0x158>
d00200a0:	e580152c 	str	r1, [r0, #1324]	; 0x52c
d00200a4:	e59f1310 	ldr	r1, [pc, #784]	; d00203bc <find_lock_val1+0x158>
d00200a8:	e580154c 	str	r1, [r0, #1356]	; 0x54c
d00200ac:	e59f1308 	ldr	r1, [pc, #776]	; d00203bc <find_lock_val1+0x158>
d00200b0:	e580156c 	str	r1, [r0, #1388]	; 0x56c
d00200b4:	e59f1300 	ldr	r1, [pc, #768]	; d00203bc <find_lock_val1+0x158>
d00200b8:	e580158c 	str	r1, [r0, #1420]	; 0x58c
d00200bc:	e59f12f8 	ldr	r1, [pc, #760]	; d00203bc <find_lock_val1+0x158>
d00200c0:	e58015ac 	str	r1, [r0, #1452]	; 0x5ac
d00200c4:	e59f12f0 	ldr	r1, [pc, #752]	; d00203bc <find_lock_val1+0x158>
d00200c8:	e58015cc 	str	r1, [r0, #1484]	; 0x5cc
d00200cc:	e59f12ec 	ldr	r1, [pc, #748]	; d00203c0 <find_lock_val1+0x15c>
d00200d0:	e58015ec 	str	r1, [r0, #1516]	; 0x5ec
d00200d4:	e3a0020f 	mov	r0, #-268435456	; 0xf0000000
d00200d8:	e59f12e4 	ldr	r1, [pc, #740]	; d00203c4 <find_lock_val1+0x160>
d00200dc:	e5801018 	str	r1, [r0, #24]
d00200e0:	e3a01086 	mov	r1, #134	; 0x86
d00200e4:	e580101c 	str	r1, [r0, #28]
d00200e8:	e59f12d8 	ldr	r1, [pc, #728]	; d00203c8 <find_lock_val1+0x164>
d00200ec:	e5801018 	str	r1, [r0, #24]
d00200f0:	e59f12d4 	ldr	r1, [pc, #724]	; d00203cc <find_lock_val1+0x168>
d00200f4:	e5801018 	str	r1, [r0, #24]

d00200f8 <find_lock_val>:
d00200f8:	e5901040 	ldr	r1, [r0, #64]	; 0x40
d00200fc:	e2012007 	and	r2, r1, #7
d0020100:	e3520007 	cmp	r2, #7
d0020104:	1afffffb 	bne	d00200f8 <find_lock_val>
d0020108:	e2011dff 	and	r1, r1, #16320	; 0x3fc0
d002010c:	e1a02901 	lsl	r2, r1, #18
d0020110:	e3822601 	orr	r2, r2, #1048576	; 0x100000
d0020114:	e3822a01 	orr	r2, r2, #4096	; 0x1000
d0020118:	e3821003 	orr	r1, r2, #3
d002011c:	e5801018 	str	r1, [r0, #24]
d0020120:	e59f12a8 	ldr	r1, [pc, #680]	; d00203d0 <find_lock_val1+0x16c>
d0020124:	e5801000 	str	r1, [r0]
d0020128:	e59f12a4 	ldr	r1, [pc, #676]	; d00203d4 <find_lock_val1+0x170>
d002012c:	e5801004 	str	r1, [r0, #4]
d0020130:	e59f12a0 	ldr	r1, [pc, #672]	; d00203d8 <find_lock_val1+0x174>
d0020134:	e5801008 	str	r1, [r0, #8]
d0020138:	e59f129c 	ldr	r1, [pc, #668]	; d00203dc <find_lock_val1+0x178>
d002013c:	e580100c 	str	r1, [r0, #12]
d0020140:	e3a014ff 	mov	r1, #-16777216	; 0xff000000
d0020144:	e5801014 	str	r1, [r0, #20]
d0020148:	e59f1290 	ldr	r1, [pc, #656]	; d00203e0 <find_lock_val1+0x17c>
d002014c:	e5801030 	str	r1, [r0, #48]	; 0x30
d0020150:	e59f128c 	ldr	r1, [pc, #652]	; d00203e4 <find_lock_val1+0x180>
d0020154:	e5801034 	str	r1, [r0, #52]	; 0x34
d0020158:	e59f1288 	ldr	r1, [pc, #648]	; d00203e8 <find_lock_val1+0x184>
d002015c:	e5801038 	str	r1, [r0, #56]	; 0x38
d0020160:	e59f1284 	ldr	r1, [pc, #644]	; d00203ec <find_lock_val1+0x188>
d0020164:	e580103c 	str	r1, [r0, #60]	; 0x3c
d0020168:	e3a01407 	mov	r1, #117440512	; 0x7000000
d002016c:	e5801010 	str	r1, [r0, #16]
d0020170:	e3a01401 	mov	r1, #16777216	; 0x1000000
d0020174:	e5801010 	str	r1, [r0, #16]
d0020178:	e3a01802 	mov	r1, #131072	; 0x20000
d002017c:	e5801010 	str	r1, [r0, #16]
d0020180:	e3a01803 	mov	r1, #196608	; 0x30000
d0020184:	e5801010 	str	r1, [r0, #16]
d0020188:	e3a01b41 	mov	r1, #66560	; 0x10400
d002018c:	e5801010 	str	r1, [r0, #16]
d0020190:	e59f1258 	ldr	r1, [pc, #600]	; d00203f0 <find_lock_val1+0x18c>
d0020194:	e5801010 	str	r1, [r0, #16]
d0020198:	e3a01401 	mov	r1, #16777216	; 0x1000000
d002019c:	e5801010 	str	r1, [r0, #16]
d00201a0:	e3a01405 	mov	r1, #83886080	; 0x5000000
d00201a4:	e5801010 	str	r1, [r0, #16]
d00201a8:	e3a01405 	mov	r1, #83886080	; 0x5000000
d00201ac:	e5801010 	str	r1, [r0, #16]
d00201b0:	e59f123c 	ldr	r1, [pc, #572]	; d00203f4 <find_lock_val1+0x190>
d00201b4:	e5801010 	str	r1, [r0, #16]
d00201b8:	e59f1238 	ldr	r1, [pc, #568]	; d00203f8 <find_lock_val1+0x194>
d00201bc:	e5801010 	str	r1, [r0, #16]
d00201c0:	e3a01b41 	mov	r1, #66560	; 0x10400
d00201c4:	e5801010 	str	r1, [r0, #16]
d00201c8:	e3a01671 	mov	r1, #118489088	; 0x7100000
d00201cc:	e5801010 	str	r1, [r0, #16]
d00201d0:	e3a01611 	mov	r1, #17825792	; 0x1100000
d00201d4:	e5801010 	str	r1, [r0, #16]
d00201d8:	e3a01812 	mov	r1, #1179648	; 0x120000
d00201dc:	e5801010 	str	r1, [r0, #16]
d00201e0:	e3a01813 	mov	r1, #1245184	; 0x130000
d00201e4:	e5801010 	str	r1, [r0, #16]
d00201e8:	e59f120c 	ldr	r1, [pc, #524]	; d00203fc <find_lock_val1+0x198>
d00201ec:	e5801010 	str	r1, [r0, #16]
d00201f0:	e59f1208 	ldr	r1, [pc, #520]	; d0020400 <find_lock_val1+0x19c>
d00201f4:	e5801010 	str	r1, [r0, #16]
d00201f8:	e3a01611 	mov	r1, #17825792	; 0x1100000
d00201fc:	e5801010 	str	r1, [r0, #16]
d0020200:	e3a01651 	mov	r1, #84934656	; 0x5100000
d0020204:	e5801010 	str	r1, [r0, #16]
d0020208:	e3a01651 	mov	r1, #84934656	; 0x5100000
d002020c:	e5801010 	str	r1, [r0, #16]
d0020210:	e59f11ec 	ldr	r1, [pc, #492]	; d0020404 <find_lock_val1+0x1a0>
d0020214:	e5801010 	str	r1, [r0, #16]
d0020218:	e59f11e8 	ldr	r1, [pc, #488]	; d0020408 <find_lock_val1+0x1a4>
d002021c:	e5801010 	str	r1, [r0, #16]
d0020220:	e59f11d4 	ldr	r1, [pc, #468]	; d00203fc <find_lock_val1+0x198>
d0020224:	e5801010 	str	r1, [r0, #16]
d0020228:	e59f11dc 	ldr	r1, [pc, #476]	; d002040c <find_lock_val1+0x1a8>
d002022c:	e5801000 	str	r1, [r0]
d0020230:	e3e01cff 	mvn	r1, #65280	; 0xff00
d0020234:	e5801028 	str	r1, [r0, #40]	; 0x28
d0020238:	e59f1194 	ldr	r1, [pc, #404]	; d00203d4 <find_lock_val1+0x170>
d002023c:	e5801004 	str	r1, [r0, #4]
d0020240:	e59f01c8 	ldr	r0, [pc, #456]	; d0020410 <find_lock_val1+0x1ac>
d0020244:	e59f1178 	ldr	r1, [pc, #376]	; d00203c4 <find_lock_val1+0x160>
d0020248:	e5801018 	str	r1, [r0, #24]
d002024c:	e3a01086 	mov	r1, #134	; 0x86
d0020250:	e580101c 	str	r1, [r0, #28]
d0020254:	e59f116c 	ldr	r1, [pc, #364]	; d00203c8 <find_lock_val1+0x164>
d0020258:	e5801018 	str	r1, [r0, #24]
d002025c:	e59f1168 	ldr	r1, [pc, #360]	; d00203cc <find_lock_val1+0x168>
d0020260:	e5801018 	str	r1, [r0, #24]

d0020264 <find_lock_val1>:
d0020264:	e5901040 	ldr	r1, [r0, #64]	; 0x40
d0020268:	e2012007 	and	r2, r1, #7
d002026c:	e3520007 	cmp	r2, #7
d0020270:	1afffffb 	bne	d0020264 <find_lock_val1>
d0020274:	e2011dff 	and	r1, r1, #16320	; 0x3fc0
d0020278:	e1a02901 	lsl	r2, r1, #18
d002027c:	e3822601 	orr	r2, r2, #1048576	; 0x100000
d0020280:	e3822a01 	orr	r2, r2, #4096	; 0x1000
d0020284:	e3821003 	orr	r1, r2, #3
d0020288:	e5801018 	str	r1, [r0, #24]
d002028c:	e59f017c 	ldr	r0, [pc, #380]	; d0020410 <find_lock_val1+0x1ac>
d0020290:	e59f1138 	ldr	r1, [pc, #312]	; d00203d0 <find_lock_val1+0x16c>
d0020294:	e5801000 	str	r1, [r0]
d0020298:	e59f1134 	ldr	r1, [pc, #308]	; d00203d4 <find_lock_val1+0x170>
d002029c:	e5801004 	str	r1, [r0, #4]
d00202a0:	e59f116c 	ldr	r1, [pc, #364]	; d0020414 <find_lock_val1+0x1b0>
d00202a4:	e5801008 	str	r1, [r0, #8]
d00202a8:	e59f1168 	ldr	r1, [pc, #360]	; d0020418 <find_lock_val1+0x1b4>
d00202ac:	e580100c 	str	r1, [r0, #12]
d00202b0:	e3a014ff 	mov	r1, #-16777216	; 0xff000000
d00202b4:	e5801014 	str	r1, [r0, #20]
d00202b8:	e59f1120 	ldr	r1, [pc, #288]	; d00203e0 <find_lock_val1+0x17c>
d00202bc:	e5801030 	str	r1, [r0, #48]	; 0x30
d00202c0:	e59f111c 	ldr	r1, [pc, #284]	; d00203e4 <find_lock_val1+0x180>
d00202c4:	e5801034 	str	r1, [r0, #52]	; 0x34
d00202c8:	e59f1118 	ldr	r1, [pc, #280]	; d00203e8 <find_lock_val1+0x184>
d00202cc:	e5801038 	str	r1, [r0, #56]	; 0x38
d00202d0:	e59f1114 	ldr	r1, [pc, #276]	; d00203ec <find_lock_val1+0x188>
d00202d4:	e580103c 	str	r1, [r0, #60]	; 0x3c
d00202d8:	e3a01407 	mov	r1, #117440512	; 0x7000000
d00202dc:	e5801010 	str	r1, [r0, #16]
d00202e0:	e3a01401 	mov	r1, #16777216	; 0x1000000
d00202e4:	e5801010 	str	r1, [r0, #16]
d00202e8:	e3a01802 	mov	r1, #131072	; 0x20000
d00202ec:	e5801010 	str	r1, [r0, #16]
d00202f0:	e3a01803 	mov	r1, #196608	; 0x30000
d00202f4:	e5801010 	str	r1, [r0, #16]
d00202f8:	e3a01b41 	mov	r1, #66560	; 0x10400
d00202fc:	e5801010 	str	r1, [r0, #16]
d0020300:	e59f10e8 	ldr	r1, [pc, #232]	; d00203f0 <find_lock_val1+0x18c>
d0020304:	e5801010 	str	r1, [r0, #16]
d0020308:	e3a01401 	mov	r1, #16777216	; 0x1000000
d002030c:	e5801010 	str	r1, [r0, #16]
d0020310:	e3a01405 	mov	r1, #83886080	; 0x5000000
d0020314:	e5801010 	str	r1, [r0, #16]
d0020318:	e3a01405 	mov	r1, #83886080	; 0x5000000
d002031c:	e5801010 	str	r1, [r0, #16]
d0020320:	e59f10cc 	ldr	r1, [pc, #204]	; d00203f4 <find_lock_val1+0x190>
d0020324:	e5801010 	str	r1, [r0, #16]
d0020328:	e59f10c8 	ldr	r1, [pc, #200]	; d00203f8 <find_lock_val1+0x194>
d002032c:	e5801010 	str	r1, [r0, #16]
d0020330:	e3a01b41 	mov	r1, #66560	; 0x10400
d0020334:	e5801010 	str	r1, [r0, #16]
d0020338:	e3a01671 	mov	r1, #118489088	; 0x7100000
d002033c:	e5801010 	str	r1, [r0, #16]
d0020340:	e3a01611 	mov	r1, #17825792	; 0x1100000
d0020344:	e5801010 	str	r1, [r0, #16]
d0020348:	e3a01812 	mov	r1, #1179648	; 0x120000
d002034c:	e5801010 	str	r1, [r0, #16]
d0020350:	e3a01813 	mov	r1, #1245184	; 0x130000
d0020354:	e5801010 	str	r1, [r0, #16]
d0020358:	e59f10bc 	ldr	r1, [pc, #188]	; d002041c <find_lock_val1+0x1b8>
d002035c:	e5801010 	str	r1, [r0, #16]
d0020360:	e59f1098 	ldr	r1, [pc, #152]	; d0020400 <find_lock_val1+0x19c>
d0020364:	e5801010 	str	r1, [r0, #16]
d0020368:	e3a01611 	mov	r1, #17825792	; 0x1100000
d002036c:	e5801010 	str	r1, [r0, #16]
d0020370:	e3a01651 	mov	r1, #84934656	; 0x5100000
d0020374:	e5801010 	str	r1, [r0, #16]
d0020378:	e3a01651 	mov	r1, #84934656	; 0x5100000
d002037c:	e5801010 	str	r1, [r0, #16]
d0020380:	e59f107c 	ldr	r1, [pc, #124]	; d0020404 <find_lock_val1+0x1a0>
d0020384:	e5801010 	str	r1, [r0, #16]
d0020388:	e59f1078 	ldr	r1, [pc, #120]	; d0020408 <find_lock_val1+0x1a4>
d002038c:	e5801010 	str	r1, [r0, #16]
d0020390:	e59f1064 	ldr	r1, [pc, #100]	; d00203fc <find_lock_val1+0x198>
d0020394:	e5801010 	str	r1, [r0, #16]
d0020398:	e59f106c 	ldr	r1, [pc, #108]	; d002040c <find_lock_val1+0x1a8>
d002039c:	e5801000 	str	r1, [r0]
d00203a0:	e3e01cff 	mvn	r1, #65280	; 0xff00
d00203a4:	e5801028 	str	r1, [r0, #40]	; 0x28
d00203a8:	e59f1024 	ldr	r1, [pc, #36]	; d00203d4 <find_lock_val1+0x170>
d00203ac:	e5801004 	str	r1, [r0, #4]
d00203b0:	e1a0f00e 	mov	pc, lr
d00203b4:	f1e00000 	.word	0xf1e00000
d00203b8:	e0200000 	.word	0xe0200000
d00203bc:	0000aaaa 	.word	0x0000aaaa
d00203c0:	00002aaa 	.word	0x00002aaa
d00203c4:	00101000 	.word	0x00101000
d00203c8:	00101002 	.word	0x00101002
d00203cc:	00101003 	.word	0x00101003
d00203d0:	0fff2010 	.word	0x0fff2010
d00203d4:	00202400 	.word	0x00202400
d00203d8:	20e00323 	.word	0x20e00323
d00203dc:	00e00323 	.word	0x00e00323
d00203e0:	00000618 	.word	0x00000618
d00203e4:	2b34438a 	.word	0x2b34438a
d00203e8:	24240000 	.word	0x24240000
d00203ec:	0bdc0343 	.word	0x0bdc0343
d00203f0:	00000542 	.word	0x00000542
d00203f4:	00000442 	.word	0x00000442
d00203f8:	00010780 	.word	0x00010780
d00203fc:	00110400 	.word	0x00110400
d0020400:	00100542 	.word	0x00100542
d0020404:	00100442 	.word	0x00100442
d0020408:	00110780 	.word	0x00110780
d002040c:	0ff02030 	.word	0x0ff02030
d0020410:	f1400000 	.word	0xf1400000
d0020414:	40f00313 	.word	0x40f00313
d0020418:	00f00313 	.word	0x00f00313
d002041c:	00110440 	.word	0x00110440

d0020420 <clock_init>:
d0020420:	e59f3020 	ldr	r3, [pc, #32]	; d0020448 <clock_init+0x28>
d0020424:	e59f2020 	ldr	r2, [pc, #32]	; d002044c <clock_init+0x2c>
d0020428:	e5832100 	str	r2, [r3, #256]	; 0x100
d002042c:	e59f201c 	ldr	r2, [pc, #28]	; d0020450 <clock_init+0x30>
d0020430:	e5832200 	str	r2, [r3, #512]	; 0x200
d0020434:	e59f2018 	ldr	r2, [pc, #24]	; d0020454 <clock_init+0x34>
d0020438:	e5832300 	str	r2, [r3, #768]	; 0x300
d002043c:	e59f2014 	ldr	r2, [pc, #20]	; d0020458 <clock_init+0x38>
d0020440:	e5832108 	str	r2, [r3, #264]	; 0x108
d0020444:	e12fff1e 	bx	lr
d0020448:	e0100000 	.word	0xe0100000
d002044c:	a07d0301 	.word	0xa07d0301
d0020450:	10001111 	.word	0x10001111
d0020454:	14131440 	.word	0x14131440
d0020458:	a29b0c01 	.word	0xa29b0c01

d002045c <led_init>:
d002045c:	e59f3020 	ldr	r3, [pc, #32]	; d0020484 <led_init+0x28>
d0020460:	e5932280 	ldr	r2, [r3, #640]	; 0x280
d0020464:	e1a02822 	lsr	r2, r2, #16
d0020468:	e1a02802 	lsl	r2, r2, #16
d002046c:	e5832280 	str	r2, [r3, #640]	; 0x280
d0020470:	e5932280 	ldr	r2, [r3, #640]	; 0x280
d0020474:	e3822c11 	orr	r2, r2, #4352	; 0x1100
d0020478:	e3822011 	orr	r2, r2, #17
d002047c:	e5832280 	str	r2, [r3, #640]	; 0x280
d0020480:	e12fff1e 	bx	lr
d0020484:	e0200000 	.word	0xe0200000

d0020488 <led_on>:
d0020488:	e59f300c 	ldr	r3, [pc, #12]	; d002049c <led_on+0x14>
d002048c:	e5932284 	ldr	r2, [r3, #644]	; 0x284
d0020490:	e3c2200f 	bic	r2, r2, #15
d0020494:	e5832284 	str	r2, [r3, #644]	; 0x284
d0020498:	e12fff1e 	bx	lr
d002049c:	e0200000 	.word	0xe0200000

d00204a0 <led_off>:
d00204a0:	e59f300c 	ldr	r3, [pc, #12]	; d00204b4 <led_off+0x14>
d00204a4:	e5932284 	ldr	r2, [r3, #644]	; 0x284
d00204a8:	e382200f 	orr	r2, r2, #15
d00204ac:	e5832284 	str	r2, [r3, #644]	; 0x284
d00204b0:	e12fff1e 	bx	lr
d00204b4:	e0200000 	.word	0xe0200000

d00204b8 <putchar_hex>:
d00204b8:	e92d4038 	push	{r3, r4, r5, lr}
d00204bc:	e1a05000 	mov	r5, r0
d00204c0:	e59f4014 	ldr	r4, [pc, #20]	; d00204dc <putchar_hex+0x24>
d00204c4:	e7d40220 	ldrb	r0, [r4, r0, lsr #4]
d00204c8:	eb0005bf 	bl	d0021bcc <putchar>
d00204cc:	e205500f 	and	r5, r5, #15
d00204d0:	e7d40005 	ldrb	r0, [r4, r5]
d00204d4:	eb0005bc 	bl	d0021bcc <putchar>
d00204d8:	e8bd8038 	pop	{r3, r4, r5, pc}
d00204dc:	d0021d4c 	.word	0xd0021d4c

d00204e0 <putint_hex>:
d00204e0:	e92d4010 	push	{r4, lr}
d00204e4:	e1a04000 	mov	r4, r0
d00204e8:	e1a00c20 	lsr	r0, r0, #24
d00204ec:	ebfffff1 	bl	d00204b8 <putchar_hex>
d00204f0:	e1a00844 	asr	r0, r4, #16
d00204f4:	e6ef0070 	uxtb	r0, r0
d00204f8:	ebffffee 	bl	d00204b8 <putchar_hex>
d00204fc:	e1a00444 	asr	r0, r4, #8
d0020500:	e6ef0070 	uxtb	r0, r0
d0020504:	ebffffeb 	bl	d00204b8 <putchar_hex>
d0020508:	e6ef0074 	uxtb	r0, r4
d002050c:	ebffffe9 	bl	d00204b8 <putchar_hex>
d0020510:	e8bd8010 	pop	{r4, pc}

d0020514 <delay>:
d0020514:	e3a03601 	mov	r3, #1048576	; 0x100000
d0020518:	e2533001 	subs	r3, r3, #1
d002051c:	1afffffd 	bne	d0020518 <delay+0x4>
d0020520:	e12fff1e 	bx	lr

d0020524 <atoi>:
d0020524:	e5d03000 	ldrb	r3, [r0]
d0020528:	e3530030 	cmp	r3, #48	; 0x30
d002052c:	13a03000 	movne	r3, #0
d0020530:	13a0c00a 	movne	ip, #10
d0020534:	1a000004 	bne	d002054c <atoi+0x28>
d0020538:	e5d03001 	ldrb	r3, [r0, #1]
d002053c:	e3530078 	cmp	r3, #120	; 0x78
d0020540:	03a03002 	moveq	r3, #2
d0020544:	03a0c010 	moveq	ip, #16
d0020548:	1a000010 	bne	d0020590 <atoi+0x6c>
d002054c:	e7f03003 	ldrb	r3, [r0, r3]!
d0020550:	e3530000 	cmp	r3, #0
d0020554:	0a00000b 	beq	d0020588 <atoi+0x64>
d0020558:	e1a02000 	mov	r2, r0
d002055c:	e3a00000 	mov	r0, #0
d0020560:	e2431030 	sub	r1, r3, #48	; 0x30
d0020564:	e6ef1071 	uxtb	r1, r1
d0020568:	e3510009 	cmp	r1, #9
d002056c:	92433030 	subls	r3, r3, #48	; 0x30
d0020570:	82433057 	subhi	r3, r3, #87	; 0x57
d0020574:	e020309c 	mla	r0, ip, r0, r3
d0020578:	e5f23001 	ldrb	r3, [r2, #1]!
d002057c:	e3530000 	cmp	r3, #0
d0020580:	1afffff6 	bne	d0020560 <atoi+0x3c>
d0020584:	e12fff1e 	bx	lr
d0020588:	e3a00000 	mov	r0, #0
d002058c:	e12fff1e 	bx	lr
d0020590:	e5d03000 	ldrb	r3, [r0]
d0020594:	e3a0c00a 	mov	ip, #10
d0020598:	eaffffee 	b	d0020558 <atoi+0x34>

d002059c <strcmp>:
d002059c:	e5d03000 	ldrb	r3, [r0]
d00205a0:	e5d12000 	ldrb	r2, [r1]
d00205a4:	e1530002 	cmp	r3, r2
d00205a8:	1a000009 	bne	d00205d4 <strcmp+0x38>
d00205ac:	e3530000 	cmp	r3, #0
d00205b0:	03a00000 	moveq	r0, #0
d00205b4:	1a000002 	bne	d00205c4 <strcmp+0x28>
d00205b8:	e12fff1e 	bx	lr
d00205bc:	e3530000 	cmp	r3, #0
d00205c0:	0a000005 	beq	d00205dc <strcmp+0x40>
d00205c4:	e5f03001 	ldrb	r3, [r0, #1]!
d00205c8:	e5f12001 	ldrb	r2, [r1, #1]!
d00205cc:	e1530002 	cmp	r3, r2
d00205d0:	0afffff9 	beq	d00205bc <strcmp+0x20>
d00205d4:	e0620003 	rsb	r0, r2, r3
d00205d8:	e12fff1e 	bx	lr
d00205dc:	e3a00000 	mov	r0, #0
d00205e0:	e12fff1e 	bx	lr

d00205e4 <strncmp>:
d00205e4:	e92d0030 	push	{r4, r5}
d00205e8:	e3520000 	cmp	r2, #0
d00205ec:	03a00000 	moveq	r0, #0
d00205f0:	0a000016 	beq	d0020650 <strncmp+0x6c>
d00205f4:	e2523001 	subs	r3, r2, #1
d00205f8:	0a000011 	beq	d0020644 <strncmp+0x60>
d00205fc:	e5d02000 	ldrb	r2, [r0]
d0020600:	e3520000 	cmp	r2, #0
d0020604:	0a00000e 	beq	d0020644 <strncmp+0x60>
d0020608:	e5d1c000 	ldrb	ip, [r1]
d002060c:	e15c0002 	cmp	ip, r2
d0020610:	1a00000b 	bne	d0020644 <strncmp+0x60>
d0020614:	e281c001 	add	ip, r1, #1
d0020618:	e2802001 	add	r2, r0, #1
d002061c:	e1a00002 	mov	r0, r2
d0020620:	e1a0100c 	mov	r1, ip
d0020624:	e2533001 	subs	r3, r3, #1
d0020628:	0a000005 	beq	d0020644 <strncmp+0x60>
d002062c:	e4d24001 	ldrb	r4, [r2], #1
d0020630:	e3540000 	cmp	r4, #0
d0020634:	0a000002 	beq	d0020644 <strncmp+0x60>
d0020638:	e4dc5001 	ldrb	r5, [ip], #1
d002063c:	e1540005 	cmp	r4, r5
d0020640:	0afffff5 	beq	d002061c <strncmp+0x38>
d0020644:	e5d00000 	ldrb	r0, [r0]
d0020648:	e5d13000 	ldrb	r3, [r1]
d002064c:	e0630000 	rsb	r0, r3, r0
d0020650:	e8bd0030 	pop	{r4, r5}
d0020654:	e12fff1e 	bx	lr

d0020658 <strcpy>:
d0020658:	e3a03000 	mov	r3, #0
d002065c:	e7d12003 	ldrb	r2, [r1, r3]
d0020660:	e7c02003 	strb	r2, [r0, r3]
d0020664:	e2833001 	add	r3, r3, #1
d0020668:	e3520000 	cmp	r2, #0
d002066c:	1afffffa 	bne	d002065c <strcpy+0x4>
d0020670:	e12fff1e 	bx	lr

d0020674 <strncpy>:
d0020674:	e52d4004 	push	{r4}		; (str r4, [sp, #-4]!)
d0020678:	e3520000 	cmp	r2, #0
d002067c:	0a000012 	beq	d00206cc <strncpy+0x58>
d0020680:	e5d13000 	ldrb	r3, [r1]
d0020684:	e1a04000 	mov	r4, r0
d0020688:	e4c43001 	strb	r3, [r4], #1
d002068c:	e3530000 	cmp	r3, #0
d0020690:	0a00000f 	beq	d00206d4 <strncpy+0x60>
d0020694:	e2803002 	add	r3, r0, #2
d0020698:	e2522001 	subs	r2, r2, #1
d002069c:	0a00000a 	beq	d00206cc <strncpy+0x58>
d00206a0:	e5f1c001 	ldrb	ip, [r1, #1]!
d00206a4:	e543c001 	strb	ip, [r3, #-1]
d00206a8:	e1a04003 	mov	r4, r3
d00206ac:	e2833001 	add	r3, r3, #1
d00206b0:	e35c0000 	cmp	ip, #0
d00206b4:	1afffff7 	bne	d0020698 <strncpy+0x24>
d00206b8:	ea000005 	b	d00206d4 <strncpy+0x60>
d00206bc:	e7c41003 	strb	r1, [r4, r3]
d00206c0:	e2833001 	add	r3, r3, #1
d00206c4:	e1520003 	cmp	r2, r3
d00206c8:	1afffffb 	bne	d00206bc <strncpy+0x48>
d00206cc:	e8bd0010 	pop	{r4}
d00206d0:	e12fff1e 	bx	lr
d00206d4:	e3520001 	cmp	r2, #1
d00206d8:	13a03000 	movne	r3, #0
d00206dc:	11a01003 	movne	r1, r3
d00206e0:	12422001 	subne	r2, r2, #1
d00206e4:	1afffff4 	bne	d00206bc <strncpy+0x48>
d00206e8:	eafffff7 	b	d00206cc <strncpy+0x58>

d00206ec <memcpy>:
d00206ec:	e3520000 	cmp	r2, #0
d00206f0:	012fff1e 	bxeq	lr
d00206f4:	e3a03000 	mov	r3, #0
d00206f8:	e7d1c003 	ldrb	ip, [r1, r3]
d00206fc:	e7c0c003 	strb	ip, [r0, r3]
d0020700:	e2833001 	add	r3, r3, #1
d0020704:	e1520003 	cmp	r2, r3
d0020708:	1afffffa 	bne	d00206f8 <memcpy+0xc>
d002070c:	e12fff1e 	bx	lr

d0020710 <mymain>:
d0020710:	e92d4010 	push	{r4, lr}
d0020714:	eb000568 	bl	d0021cbc <uart_init>
d0020718:	e3a00061 	mov	r0, #97	; 0x61
d002071c:	eb000582 	bl	d0021d2c <uart_putchar>
d0020720:	e3a0000a 	mov	r0, #10
d0020724:	eb000528 	bl	d0021bcc <putchar>
d0020728:	e59f005c 	ldr	r0, [pc, #92]	; d002078c <mymain+0x7c>
d002072c:	eb00053c 	bl	d0021c24 <puts>
d0020730:	eb000228 	bl	d0020fd8 <SDHC_Init>
d0020734:	e59f0054 	ldr	r0, [pc, #84]	; d0020790 <mymain+0x80>
d0020738:	eb000539 	bl	d0021c24 <puts>
d002073c:	e59f4050 	ldr	r4, [pc, #80]	; d0020794 <mymain+0x84>
d0020740:	e3a00977 	mov	r0, #1949696	; 0x1dc000
d0020744:	e3a01040 	mov	r1, #64	; 0x40
d0020748:	e1a02004 	mov	r2, r4
d002074c:	eb000424 	bl	d00217e4 <SDHC_ReadBlocks>
d0020750:	e59f0040 	ldr	r0, [pc, #64]	; d0020798 <mymain+0x88>
d0020754:	eb000532 	bl	d0021c24 <puts>
d0020758:	e5940000 	ldr	r0, [r4]
d002075c:	ebffff5f 	bl	d00204e0 <putint_hex>
d0020760:	e5940004 	ldr	r0, [r4, #4]
d0020764:	ebffff5d 	bl	d00204e0 <putint_hex>
d0020768:	e5940008 	ldr	r0, [r4, #8]
d002076c:	ebffff5b 	bl	d00204e0 <putint_hex>
d0020770:	e594000c 	ldr	r0, [r4, #12]
d0020774:	ebffff59 	bl	d00204e0 <putint_hex>
d0020778:	e59f001c 	ldr	r0, [pc, #28]	; d002079c <mymain+0x8c>
d002077c:	eb000528 	bl	d0021c24 <puts>
d0020780:	e12fff34 	blx	r4
d0020784:	e3a00000 	mov	r0, #0
d0020788:	e8bd8010 	pop	{r4, pc}
d002078c:	d0021d60 	.word	0xd0021d60
d0020790:	d0021d68 	.word	0xd0021d68
d0020794:	20808000 	.word	0x20808000
d0020798:	d0021d70 	.word	0xd0021d70
d002079c:	d0021d78 	.word	0xd0021d78

d00207a0 <SDHC_SetSdhcCardIntEnable>:
d00207a0:	e5913000 	ldr	r3, [r1]
d00207a4:	e1d323b4 	ldrh	r2, [r3, #52]	; 0x34
d00207a8:	e3c22c01 	bic	r2, r2, #256	; 0x100
d00207ac:	e1822400 	orr	r2, r2, r0, lsl #8
d00207b0:	e1c323b4 	strh	r2, [r3, #52]	; 0x34
d00207b4:	e12fff1e 	bx	lr

d00207b8 <SDHC_ClearErrInterruptStatus>:
d00207b8:	e5903000 	ldr	r3, [r0]
d00207bc:	e1d333b0 	ldrh	r3, [r3, #48]	; 0x30
d00207c0:	e3130902 	tst	r3, #32768	; 0x8000
d00207c4:	012fff1e 	bxeq	lr
d00207c8:	e5903000 	ldr	r3, [r0]
d00207cc:	e1d323b2 	ldrh	r2, [r3, #50]	; 0x32
d00207d0:	e1c323b2 	strh	r2, [r3, #50]	; 0x32
d00207d4:	e5903000 	ldr	r3, [r0]
d00207d8:	e1d333b0 	ldrh	r3, [r3, #48]	; 0x30
d00207dc:	e3130902 	tst	r3, #32768	; 0x8000
d00207e0:	1afffff8 	bne	d00207c8 <SDHC_ClearErrInterruptStatus+0x10>
d00207e4:	e12fff1e 	bx	lr

d00207e8 <SDHC_IssueCommand>:
d00207e8:	e92d0070 	push	{r4, r5, r6}
d00207ec:	e59d400c 	ldr	r4, [sp, #12]
d00207f0:	e5906000 	ldr	r6, [r0]
d00207f4:	e2865024 	add	r5, r6, #36	; 0x24
d00207f8:	e595c000 	ldr	ip, [r5]
d00207fc:	e31c0001 	tst	ip, #1
d0020800:	1afffffc 	bne	d00207f8 <SDHC_IssueCommand+0x10>
d0020804:	e59fc0bc 	ldr	ip, [pc, #188]	; d00208c8 <SDHC_IssueCommand+0xe0>
d0020808:	e7dcc004 	ldrb	ip, [ip, r4]
d002080c:	e18cc401 	orr	ip, ip, r1, lsl #8
d0020810:	e6ffc07c 	uxth	ip, ip
d0020814:	e3530003 	cmp	r3, #3
d0020818:	038cc020 	orreq	ip, ip, #32
d002081c:	e351000c 	cmp	r1, #12
d0020820:	038cc0c0 	orreq	ip, ip, #192	; 0xc0
d0020824:	e5862008 	str	r2, [r6, #8]
d0020828:	e5903000 	ldr	r3, [r0]
d002082c:	e1c3c0be 	strh	ip, [r3, #14]
d0020830:	e590c000 	ldr	ip, [r0]
d0020834:	e28cc030 	add	ip, ip, #48	; 0x30
d0020838:	e3a0347f 	mov	r3, #2130706432	; 0x7f000000
d002083c:	ea000001 	b	d0020848 <SDHC_IssueCommand+0x60>
d0020840:	e2533001 	subs	r3, r3, #1
d0020844:	0a000002 	beq	d0020854 <SDHC_IssueCommand+0x6c>
d0020848:	e1dc20b0 	ldrh	r2, [ip]
d002084c:	e3120001 	tst	r2, #1
d0020850:	0afffffa 	beq	d0020840 <SDHC_IssueCommand+0x58>
d0020854:	e3a05001 	mov	r5, #1
d0020858:	e5903000 	ldr	r3, [r0]
d002085c:	e1c353b0 	strh	r5, [r3, #48]	; 0x30
d0020860:	e5903000 	ldr	r3, [r0]
d0020864:	e1a06003 	mov	r6, r3
d0020868:	e283c030 	add	ip, r3, #48	; 0x30
d002086c:	e1d323b0 	ldrh	r2, [r3, #48]	; 0x30
d0020870:	e3120001 	tst	r2, #1
d0020874:	1afffff7 	bne	d0020858 <SDHC_IssueCommand+0x70>
d0020878:	e1dc20b0 	ldrh	r2, [ip]
d002087c:	e3120902 	tst	r2, #32768	; 0x8000
d0020880:	0a000007 	beq	d00208a4 <SDHC_IssueCommand+0xbc>
d0020884:	e3510001 	cmp	r1, #1
d0020888:	13510037 	cmpne	r1, #55	; 0x37
d002088c:	0a000004 	beq	d00208a4 <SDHC_IssueCommand+0xbc>
d0020890:	e3510029 	cmp	r1, #41	; 0x29
d0020894:	11d333b2 	ldrhne	r3, [r3, #50]	; 0x32
d0020898:	11c633b2 	strhne	r3, [r6, #50]	; 0x32
d002089c:	13a00000 	movne	r0, #0
d00208a0:	1a000006 	bne	d00208c0 <SDHC_IssueCommand+0xd8>
d00208a4:	e3540002 	cmp	r4, #2
d00208a8:	13a00001 	movne	r0, #1
d00208ac:	1a000003 	bne	d00208c0 <SDHC_IssueCommand+0xd8>
d00208b0:	e5932024 	ldr	r2, [r3, #36]	; 0x24
d00208b4:	e3120002 	tst	r2, #2
d00208b8:	1afffffc 	bne	d00208b0 <SDHC_IssueCommand+0xc8>
d00208bc:	e3a00001 	mov	r0, #1
d00208c0:	e8bd0070 	pop	{r4, r5, r6}
d00208c4:	e12fff1e 	bx	lr
d00208c8:	d0021d84 	.word	0xd0021d84

d00208cc <SDHC_WriteOneBlock>:
d00208cc:	e92d0030 	push	{r4, r5}
d00208d0:	e59f3098 	ldr	r3, [pc, #152]	; d0020970 <SDHC_WriteOneBlock+0xa4>
d00208d4:	e5931000 	ldr	r1, [r3]
d00208d8:	e1d150b4 	ldrh	r5, [r1, #4]
d00208dc:	e1a05a05 	lsl	r5, r5, #20
d00208e0:	e1a05a25 	lsr	r5, r5, #20
d00208e4:	e3a0347f 	mov	r3, #2130706432	; 0x7f000000
d00208e8:	ea000001 	b	d00208f4 <SDHC_WriteOneBlock+0x28>
d00208ec:	e2533001 	subs	r3, r3, #1
d00208f0:	0a000002 	beq	d0020900 <SDHC_WriteOneBlock+0x34>
d00208f4:	e1d123b0 	ldrh	r2, [r1, #48]	; 0x30
d00208f8:	e3120010 	tst	r2, #16
d00208fc:	0afffffa 	beq	d00208ec <SDHC_WriteOneBlock+0x20>
d0020900:	e59f3068 	ldr	r3, [pc, #104]	; d0020970 <SDHC_WriteOneBlock+0xa4>
d0020904:	e3a01010 	mov	r1, #16
d0020908:	e5932000 	ldr	r2, [r3]
d002090c:	e1c213b0 	strh	r1, [r2, #48]	; 0x30
d0020910:	e5932000 	ldr	r2, [r3]
d0020914:	e1d223b0 	ldrh	r2, [r2, #48]	; 0x30
d0020918:	e3120010 	tst	r2, #16
d002091c:	1afffff9 	bne	d0020908 <SDHC_WriteOneBlock+0x3c>
d0020920:	e2855003 	add	r5, r5, #3
d0020924:	e1a05145 	asr	r5, r5, #2
d0020928:	e3550000 	cmp	r5, #0
d002092c:	da000008 	ble	d0020954 <SDHC_WriteOneBlock+0x88>
d0020930:	e1a03005 	mov	r3, r5
d0020934:	e1a02000 	mov	r2, r0
d0020938:	e59f4030 	ldr	r4, [pc, #48]	; d0020970 <SDHC_WriteOneBlock+0xa4>
d002093c:	e5941000 	ldr	r1, [r4]
d0020940:	e492c004 	ldr	ip, [r2], #4
d0020944:	e581c020 	str	ip, [r1, #32]
d0020948:	e2533001 	subs	r3, r3, #1
d002094c:	1afffffa 	bne	d002093c <SDHC_WriteOneBlock+0x70>
d0020950:	e0800105 	add	r0, r0, r5, lsl #2
d0020954:	e59f3014 	ldr	r3, [pc, #20]	; d0020970 <SDHC_WriteOneBlock+0xa4>
d0020958:	e1d322b2 	ldrh	r2, [r3, #34]	; 0x22
d002095c:	e2422001 	sub	r2, r2, #1
d0020960:	e1c322b2 	strh	r2, [r3, #34]	; 0x22
d0020964:	e5830028 	str	r0, [r3, #40]	; 0x28
d0020968:	e8bd0030 	pop	{r4, r5}
d002096c:	e12fff1e 	bx	lr
d0020970:	d0029df4 	.word	0xd0029df4

d0020974 <SDHC_SetHostCtrlSpeedMode>:
d0020974:	e5913000 	ldr	r3, [r1]
d0020978:	e5d32028 	ldrb	r2, [r3, #40]	; 0x28
d002097c:	e20220fb 	and	r2, r2, #251	; 0xfb
d0020980:	e5c32028 	strb	r2, [r3, #40]	; 0x28
d0020984:	e12fff1e 	bx	lr

d0020988 <SDHC_SetTransferModeReg>:
d0020988:	e59dc004 	ldr	ip, [sp, #4]
d002098c:	e1a00280 	lsl	r0, r0, #5
d0020990:	e1800201 	orr	r0, r0, r1, lsl #4
d0020994:	e1800102 	orr	r0, r0, r2, lsl #2
d0020998:	e1800083 	orr	r0, r0, r3, lsl #1
d002099c:	e59d2000 	ldr	r2, [sp]
d00209a0:	e1800002 	orr	r0, r0, r2
d00209a4:	e6ff0070 	uxth	r0, r0
d00209a8:	e1cc01be 	strh	r0, [ip, #30]
d00209ac:	e59c3000 	ldr	r3, [ip]
d00209b0:	e1c300bc 	strh	r0, [r3, #12]
d00209b4:	e12fff1e 	bx	lr

d00209b8 <SDHC_SetSdClockOnOff>:
d00209b8:	e3500000 	cmp	r0, #0
d00209bc:	1a000005 	bne	d00209d8 <SDHC_SetSdClockOnOff+0x20>
d00209c0:	e5912000 	ldr	r2, [r1]
d00209c4:	e1d212bc 	ldrh	r1, [r2, #44]	; 0x2c
d00209c8:	e59f3030 	ldr	r3, [pc, #48]	; d0020a00 <SDHC_SetSdClockOnOff+0x48>
d00209cc:	e0013003 	and	r3, r1, r3
d00209d0:	e1c232bc 	strh	r3, [r2, #44]	; 0x2c
d00209d4:	e12fff1e 	bx	lr
d00209d8:	e5913000 	ldr	r3, [r1]
d00209dc:	e1d322bc 	ldrh	r2, [r3, #44]	; 0x2c
d00209e0:	e3822004 	orr	r2, r2, #4
d00209e4:	e1c322bc 	strh	r2, [r3, #44]	; 0x2c
d00209e8:	e5912000 	ldr	r2, [r1]
d00209ec:	e282202c 	add	r2, r2, #44	; 0x2c
d00209f0:	e1d230b0 	ldrh	r3, [r2]
d00209f4:	e3130008 	tst	r3, #8
d00209f8:	0afffffc 	beq	d00209f0 <SDHC_SetSdClockOnOff+0x38>
d00209fc:	e12fff1e 	bx	lr
d0020a00:	0000fffb 	.word	0x0000fffb

d0020a04 <SDHC_WaitForCard2TransferState>:
d0020a04:	e92d4070 	push	{r4, r5, r6, lr}
d0020a08:	e24dd008 	sub	sp, sp, #8
d0020a0c:	e1a04000 	mov	r4, r0
d0020a10:	e3a05002 	mov	r5, #2
d0020a14:	e3a0600d 	mov	r6, #13
d0020a18:	e1d421bc 	ldrh	r2, [r4, #28]
d0020a1c:	e58d5000 	str	r5, [sp]
d0020a20:	e1a00004 	mov	r0, r4
d0020a24:	e1a01006 	mov	r1, r6
d0020a28:	e1a02802 	lsl	r2, r2, #16
d0020a2c:	e1a03005 	mov	r3, r5
d0020a30:	ebffff6c 	bl	d00207e8 <SDHC_IssueCommand>
d0020a34:	e3500000 	cmp	r0, #0
d0020a38:	0a00000a 	beq	d0020a68 <SDHC_WaitForCard2TransferState+0x64>
d0020a3c:	e5943000 	ldr	r3, [r4]
d0020a40:	e5930010 	ldr	r0, [r3, #16]
d0020a44:	e1a004a0 	lsr	r0, r0, #9
d0020a48:	e200000f 	and	r0, r0, #15
d0020a4c:	e2403006 	sub	r3, r0, #6
d0020a50:	e3530001 	cmp	r3, #1
d0020a54:	9affffef 	bls	d0020a18 <SDHC_WaitForCard2TransferState+0x14>
d0020a58:	e3500004 	cmp	r0, #4
d0020a5c:	13a00000 	movne	r0, #0
d0020a60:	03a00001 	moveq	r0, #1
d0020a64:	ea000000 	b	d0020a6c <SDHC_WaitForCard2TransferState+0x68>
d0020a68:	e3a00000 	mov	r0, #0
d0020a6c:	e28dd008 	add	sp, sp, #8
d0020a70:	e8bd8070 	pop	{r4, r5, r6, pc}

d0020a74 <SDHC_ReadOneBlock>:
d0020a74:	e52d4004 	push	{r4}		; (str r4, [sp, #-4]!)
d0020a78:	e59f3098 	ldr	r3, [pc, #152]	; d0020b18 <SDHC_ReadOneBlock+0xa4>
d0020a7c:	e5931000 	ldr	r1, [r3]
d0020a80:	e1d140b4 	ldrh	r4, [r1, #4]
d0020a84:	e1a04a04 	lsl	r4, r4, #20
d0020a88:	e1a04a24 	lsr	r4, r4, #20
d0020a8c:	e3a0347f 	mov	r3, #2130706432	; 0x7f000000
d0020a90:	ea000001 	b	d0020a9c <SDHC_ReadOneBlock+0x28>
d0020a94:	e2533001 	subs	r3, r3, #1
d0020a98:	0a000002 	beq	d0020aa8 <SDHC_ReadOneBlock+0x34>
d0020a9c:	e1d123b0 	ldrh	r2, [r1, #48]	; 0x30
d0020aa0:	e3120020 	tst	r2, #32
d0020aa4:	0afffffa 	beq	d0020a94 <SDHC_ReadOneBlock+0x20>
d0020aa8:	e59f3068 	ldr	r3, [pc, #104]	; d0020b18 <SDHC_ReadOneBlock+0xa4>
d0020aac:	e3a01020 	mov	r1, #32
d0020ab0:	e5932000 	ldr	r2, [r3]
d0020ab4:	e1c213b0 	strh	r1, [r2, #48]	; 0x30
d0020ab8:	e5932000 	ldr	r2, [r3]
d0020abc:	e1d223b0 	ldrh	r2, [r2, #48]	; 0x30
d0020ac0:	e3120020 	tst	r2, #32
d0020ac4:	1afffff9 	bne	d0020ab0 <SDHC_ReadOneBlock+0x3c>
d0020ac8:	e2844003 	add	r4, r4, #3
d0020acc:	e1a04144 	asr	r4, r4, #2
d0020ad0:	e3540000 	cmp	r4, #0
d0020ad4:	da000008 	ble	d0020afc <SDHC_ReadOneBlock+0x88>
d0020ad8:	e1a03004 	mov	r3, r4
d0020adc:	e1a02000 	mov	r2, r0
d0020ae0:	e59fc030 	ldr	ip, [pc, #48]	; d0020b18 <SDHC_ReadOneBlock+0xa4>
d0020ae4:	e59c1000 	ldr	r1, [ip]
d0020ae8:	e5911020 	ldr	r1, [r1, #32]
d0020aec:	e4821004 	str	r1, [r2], #4
d0020af0:	e2533001 	subs	r3, r3, #1
d0020af4:	1afffffa 	bne	d0020ae4 <SDHC_ReadOneBlock+0x70>
d0020af8:	e0800104 	add	r0, r0, r4, lsl #2
d0020afc:	e59f3014 	ldr	r3, [pc, #20]	; d0020b18 <SDHC_ReadOneBlock+0xa4>
d0020b00:	e1d322b2 	ldrh	r2, [r3, #34]	; 0x22
d0020b04:	e2422001 	sub	r2, r2, #1
d0020b08:	e1c322b2 	strh	r2, [r3, #34]	; 0x22
d0020b0c:	e5830028 	str	r0, [r3, #40]	; 0x28
d0020b10:	e8bd0010 	pop	{r4}
d0020b14:	e12fff1e 	bx	lr
d0020b18:	d0029df4 	.word	0xd0029df4

d0020b1c <SDHC_ISR0>:
d0020b1c:	e92d4070 	push	{r4, r5, r6, lr}
d0020b20:	e59f346c 	ldr	r3, [pc, #1132]	; d0020f94 <SDHC_ISR0+0x478>
d0020b24:	e5934000 	ldr	r4, [r3]
d0020b28:	e5943000 	ldr	r3, [r4]
d0020b2c:	e1d363b0 	ldrh	r6, [r3, #48]	; 0x30
d0020b30:	e6ff5076 	uxth	r5, r6
d0020b34:	e1d433ba 	ldrh	r3, [r4, #58]	; 0x3a
d0020b38:	e1853003 	orr	r3, r5, r3
d0020b3c:	e1c433ba 	strh	r3, [r4, #58]	; 0x3a
d0020b40:	e59f0450 	ldr	r0, [pc, #1104]	; d0020f98 <SDHC_ISR0+0x47c>
d0020b44:	eb000436 	bl	d0021c24 <puts>
d0020b48:	e6bf6076 	sxth	r6, r6
d0020b4c:	e3560000 	cmp	r6, #0
d0020b50:	aa00006e 	bge	d0020d10 <SDHC_ISR0+0x1f4>
d0020b54:	e5941000 	ldr	r1, [r4]
d0020b58:	e1d123b2 	ldrh	r2, [r1, #50]	; 0x32
d0020b5c:	e6ff3072 	uxth	r3, r2
d0020b60:	e1c423bc 	strh	r2, [r4, #60]	; 0x3c
d0020b64:	e3130c02 	tst	r3, #512	; 0x200
d0020b68:	0a000006 	beq	d0020b88 <SDHC_ISR0+0x6c>
d0020b6c:	e3a02c02 	mov	r2, #512	; 0x200
d0020b70:	e1c123b2 	strh	r2, [r1, #50]	; 0x32
d0020b74:	e5941000 	ldr	r1, [r4]
d0020b78:	e2811032 	add	r1, r1, #50	; 0x32
d0020b7c:	e1d120b0 	ldrh	r2, [r1]
d0020b80:	e3120c02 	tst	r2, #512	; 0x200
d0020b84:	1afffffc 	bne	d0020b7c <SDHC_ISR0+0x60>
d0020b88:	e3130c01 	tst	r3, #256	; 0x100
d0020b8c:	0a000007 	beq	d0020bb0 <SDHC_ISR0+0x94>
d0020b90:	e5942000 	ldr	r2, [r4]
d0020b94:	e3a01c01 	mov	r1, #256	; 0x100
d0020b98:	e1c213b2 	strh	r1, [r2, #50]	; 0x32
d0020b9c:	e5941000 	ldr	r1, [r4]
d0020ba0:	e2811032 	add	r1, r1, #50	; 0x32
d0020ba4:	e1d120b0 	ldrh	r2, [r1]
d0020ba8:	e3120c01 	tst	r2, #256	; 0x100
d0020bac:	1afffffc 	bne	d0020ba4 <SDHC_ISR0+0x88>
d0020bb0:	e3130080 	tst	r3, #128	; 0x80
d0020bb4:	0a000007 	beq	d0020bd8 <SDHC_ISR0+0xbc>
d0020bb8:	e5942000 	ldr	r2, [r4]
d0020bbc:	e3a01080 	mov	r1, #128	; 0x80
d0020bc0:	e1c213b2 	strh	r1, [r2, #50]	; 0x32
d0020bc4:	e5941000 	ldr	r1, [r4]
d0020bc8:	e2811032 	add	r1, r1, #50	; 0x32
d0020bcc:	e1d120b0 	ldrh	r2, [r1]
d0020bd0:	e3120080 	tst	r2, #128	; 0x80
d0020bd4:	1afffffc 	bne	d0020bcc <SDHC_ISR0+0xb0>
d0020bd8:	e3130040 	tst	r3, #64	; 0x40
d0020bdc:	0a000007 	beq	d0020c00 <SDHC_ISR0+0xe4>
d0020be0:	e5942000 	ldr	r2, [r4]
d0020be4:	e3a01040 	mov	r1, #64	; 0x40
d0020be8:	e1c213b2 	strh	r1, [r2, #50]	; 0x32
d0020bec:	e5941000 	ldr	r1, [r4]
d0020bf0:	e2811032 	add	r1, r1, #50	; 0x32
d0020bf4:	e1d120b0 	ldrh	r2, [r1]
d0020bf8:	e3120040 	tst	r2, #64	; 0x40
d0020bfc:	1afffffc 	bne	d0020bf4 <SDHC_ISR0+0xd8>
d0020c00:	e3130020 	tst	r3, #32
d0020c04:	0a000007 	beq	d0020c28 <SDHC_ISR0+0x10c>
d0020c08:	e5942000 	ldr	r2, [r4]
d0020c0c:	e3a01020 	mov	r1, #32
d0020c10:	e1c213b2 	strh	r1, [r2, #50]	; 0x32
d0020c14:	e5941000 	ldr	r1, [r4]
d0020c18:	e2811032 	add	r1, r1, #50	; 0x32
d0020c1c:	e1d120b0 	ldrh	r2, [r1]
d0020c20:	e3120020 	tst	r2, #32
d0020c24:	1afffffc 	bne	d0020c1c <SDHC_ISR0+0x100>
d0020c28:	e3130010 	tst	r3, #16
d0020c2c:	0a000007 	beq	d0020c50 <SDHC_ISR0+0x134>
d0020c30:	e5942000 	ldr	r2, [r4]
d0020c34:	e3a01010 	mov	r1, #16
d0020c38:	e1c213b2 	strh	r1, [r2, #50]	; 0x32
d0020c3c:	e5941000 	ldr	r1, [r4]
d0020c40:	e2811032 	add	r1, r1, #50	; 0x32
d0020c44:	e1d120b0 	ldrh	r2, [r1]
d0020c48:	e3120010 	tst	r2, #16
d0020c4c:	1afffffc 	bne	d0020c44 <SDHC_ISR0+0x128>
d0020c50:	e3130008 	tst	r3, #8
d0020c54:	0a000007 	beq	d0020c78 <SDHC_ISR0+0x15c>
d0020c58:	e5942000 	ldr	r2, [r4]
d0020c5c:	e3a01008 	mov	r1, #8
d0020c60:	e1c213b2 	strh	r1, [r2, #50]	; 0x32
d0020c64:	e5941000 	ldr	r1, [r4]
d0020c68:	e2811032 	add	r1, r1, #50	; 0x32
d0020c6c:	e1d120b0 	ldrh	r2, [r1]
d0020c70:	e3120008 	tst	r2, #8
d0020c74:	1afffffc 	bne	d0020c6c <SDHC_ISR0+0x150>
d0020c78:	e3130004 	tst	r3, #4
d0020c7c:	0a000007 	beq	d0020ca0 <SDHC_ISR0+0x184>
d0020c80:	e5942000 	ldr	r2, [r4]
d0020c84:	e3a01004 	mov	r1, #4
d0020c88:	e1c213b2 	strh	r1, [r2, #50]	; 0x32
d0020c8c:	e5941000 	ldr	r1, [r4]
d0020c90:	e2811032 	add	r1, r1, #50	; 0x32
d0020c94:	e1d120b0 	ldrh	r2, [r1]
d0020c98:	e3120004 	tst	r2, #4
d0020c9c:	1afffffc 	bne	d0020c94 <SDHC_ISR0+0x178>
d0020ca0:	e3130002 	tst	r3, #2
d0020ca4:	0a000007 	beq	d0020cc8 <SDHC_ISR0+0x1ac>
d0020ca8:	e5942000 	ldr	r2, [r4]
d0020cac:	e3a01002 	mov	r1, #2
d0020cb0:	e1c213b2 	strh	r1, [r2, #50]	; 0x32
d0020cb4:	e5941000 	ldr	r1, [r4]
d0020cb8:	e2811032 	add	r1, r1, #50	; 0x32
d0020cbc:	e1d120b0 	ldrh	r2, [r1]
d0020cc0:	e3120002 	tst	r2, #2
d0020cc4:	1afffffc 	bne	d0020cbc <SDHC_ISR0+0x1a0>
d0020cc8:	e3130001 	tst	r3, #1
d0020ccc:	0a000007 	beq	d0020cf0 <SDHC_ISR0+0x1d4>
d0020cd0:	e5943000 	ldr	r3, [r4]
d0020cd4:	e3a02001 	mov	r2, #1
d0020cd8:	e1c323b2 	strh	r2, [r3, #50]	; 0x32
d0020cdc:	e5942000 	ldr	r2, [r4]
d0020ce0:	e2822032 	add	r2, r2, #50	; 0x32
d0020ce4:	e1d230b0 	ldrh	r3, [r2]
d0020ce8:	e3130001 	tst	r3, #1
d0020cec:	1afffffc 	bne	d0020ce4 <SDHC_ISR0+0x1c8>
d0020cf0:	e5943000 	ldr	r3, [r4]
d0020cf4:	e3a02902 	mov	r2, #32768	; 0x8000
d0020cf8:	e1c323b0 	strh	r2, [r3, #48]	; 0x30
d0020cfc:	e5942000 	ldr	r2, [r4]
d0020d00:	e2822030 	add	r2, r2, #48	; 0x30
d0020d04:	e1d230b0 	ldrh	r3, [r2]
d0020d08:	e3130902 	tst	r3, #32768	; 0x8000
d0020d0c:	1afffffc 	bne	d0020d04 <SDHC_ISR0+0x1e8>
d0020d10:	e3150901 	tst	r5, #16384	; 0x4000
d0020d14:	0a000007 	beq	d0020d38 <SDHC_ISR0+0x21c>
d0020d18:	e5943000 	ldr	r3, [r4]
d0020d1c:	e3a01901 	mov	r1, #16384	; 0x4000
d0020d20:	e1c313b0 	strh	r1, [r3, #48]	; 0x30
d0020d24:	e5942000 	ldr	r2, [r4]
d0020d28:	e2822030 	add	r2, r2, #48	; 0x30
d0020d2c:	e1d230b0 	ldrh	r3, [r2]
d0020d30:	e3130901 	tst	r3, #16384	; 0x4000
d0020d34:	1afffffc 	bne	d0020d2c <SDHC_ISR0+0x210>
d0020d38:	e3150a02 	tst	r5, #8192	; 0x2000
d0020d3c:	0a000007 	beq	d0020d60 <SDHC_ISR0+0x244>
d0020d40:	e5943000 	ldr	r3, [r4]
d0020d44:	e3a02a02 	mov	r2, #8192	; 0x2000
d0020d48:	e1c323b0 	strh	r2, [r3, #48]	; 0x30
d0020d4c:	e5942000 	ldr	r2, [r4]
d0020d50:	e2822030 	add	r2, r2, #48	; 0x30
d0020d54:	e1d230b0 	ldrh	r3, [r2]
d0020d58:	e3130a02 	tst	r3, #8192	; 0x2000
d0020d5c:	1afffffc 	bne	d0020d54 <SDHC_ISR0+0x238>
d0020d60:	e3150a01 	tst	r5, #4096	; 0x1000
d0020d64:	0a000007 	beq	d0020d88 <SDHC_ISR0+0x26c>
d0020d68:	e5943000 	ldr	r3, [r4]
d0020d6c:	e3a01a01 	mov	r1, #4096	; 0x1000
d0020d70:	e1c313b0 	strh	r1, [r3, #48]	; 0x30
d0020d74:	e5942000 	ldr	r2, [r4]
d0020d78:	e2822030 	add	r2, r2, #48	; 0x30
d0020d7c:	e1d230b0 	ldrh	r3, [r2]
d0020d80:	e3130a01 	tst	r3, #4096	; 0x1000
d0020d84:	1afffffc 	bne	d0020d7c <SDHC_ISR0+0x260>
d0020d88:	e3150b02 	tst	r5, #2048	; 0x800
d0020d8c:	0a000007 	beq	d0020db0 <SDHC_ISR0+0x294>
d0020d90:	e5943000 	ldr	r3, [r4]
d0020d94:	e3a02b02 	mov	r2, #2048	; 0x800
d0020d98:	e1c323b0 	strh	r2, [r3, #48]	; 0x30
d0020d9c:	e5942000 	ldr	r2, [r4]
d0020da0:	e2822030 	add	r2, r2, #48	; 0x30
d0020da4:	e1d230b0 	ldrh	r3, [r2]
d0020da8:	e3130b02 	tst	r3, #2048	; 0x800
d0020dac:	1afffffc 	bne	d0020da4 <SDHC_ISR0+0x288>
d0020db0:	e3150b01 	tst	r5, #1024	; 0x400
d0020db4:	0a000007 	beq	d0020dd8 <SDHC_ISR0+0x2bc>
d0020db8:	e5943000 	ldr	r3, [r4]
d0020dbc:	e3a01b01 	mov	r1, #1024	; 0x400
d0020dc0:	e1c313b0 	strh	r1, [r3, #48]	; 0x30
d0020dc4:	e5942000 	ldr	r2, [r4]
d0020dc8:	e2822030 	add	r2, r2, #48	; 0x30
d0020dcc:	e1d230b0 	ldrh	r3, [r2]
d0020dd0:	e3130b01 	tst	r3, #1024	; 0x400
d0020dd4:	1afffffc 	bne	d0020dcc <SDHC_ISR0+0x2b0>
d0020dd8:	e3150c02 	tst	r5, #512	; 0x200
d0020ddc:	0a000009 	beq	d0020e08 <SDHC_ISR0+0x2ec>
d0020de0:	e5943000 	ldr	r3, [r4]
d0020de4:	e3a02c02 	mov	r2, #512	; 0x200
d0020de8:	e1c323b0 	strh	r2, [r3, #48]	; 0x30
d0020dec:	e5942000 	ldr	r2, [r4]
d0020df0:	e2822030 	add	r2, r2, #48	; 0x30
d0020df4:	e1d230b0 	ldrh	r3, [r2]
d0020df8:	e3130c02 	tst	r3, #512	; 0x200
d0020dfc:	1afffffc 	bne	d0020df4 <SDHC_ISR0+0x2d8>
d0020e00:	e3a03000 	mov	r3, #0
d0020e04:	e5c43024 	strb	r3, [r4, #36]	; 0x24
d0020e08:	e3150c01 	tst	r5, #256	; 0x100
d0020e0c:	0a000007 	beq	d0020e30 <SDHC_ISR0+0x314>
d0020e10:	e5943000 	ldr	r3, [r4]
d0020e14:	e3a01c01 	mov	r1, #256	; 0x100
d0020e18:	e1c313b0 	strh	r1, [r3, #48]	; 0x30
d0020e1c:	e5942000 	ldr	r2, [r4]
d0020e20:	e2822030 	add	r2, r2, #48	; 0x30
d0020e24:	e1d230b0 	ldrh	r3, [r2]
d0020e28:	e3130c01 	tst	r3, #256	; 0x100
d0020e2c:	1afffffc 	bne	d0020e24 <SDHC_ISR0+0x308>
d0020e30:	e3150080 	tst	r5, #128	; 0x80
d0020e34:	0a000007 	beq	d0020e58 <SDHC_ISR0+0x33c>
d0020e38:	e5943000 	ldr	r3, [r4]
d0020e3c:	e3a02080 	mov	r2, #128	; 0x80
d0020e40:	e1c323b0 	strh	r2, [r3, #48]	; 0x30
d0020e44:	e5942000 	ldr	r2, [r4]
d0020e48:	e2822030 	add	r2, r2, #48	; 0x30
d0020e4c:	e1d230b0 	ldrh	r3, [r2]
d0020e50:	e3130080 	tst	r3, #128	; 0x80
d0020e54:	1afffffc 	bne	d0020e4c <SDHC_ISR0+0x330>
d0020e58:	e3150040 	tst	r5, #64	; 0x40
d0020e5c:	0a000007 	beq	d0020e80 <SDHC_ISR0+0x364>
d0020e60:	e5943000 	ldr	r3, [r4]
d0020e64:	e3a01040 	mov	r1, #64	; 0x40
d0020e68:	e1c313b0 	strh	r1, [r3, #48]	; 0x30
d0020e6c:	e5942000 	ldr	r2, [r4]
d0020e70:	e2822030 	add	r2, r2, #48	; 0x30
d0020e74:	e1d230b0 	ldrh	r3, [r2]
d0020e78:	e3130040 	tst	r3, #64	; 0x40
d0020e7c:	1afffffc 	bne	d0020e74 <SDHC_ISR0+0x358>
d0020e80:	e3150020 	tst	r5, #32
d0020e84:	0a000009 	beq	d0020eb0 <SDHC_ISR0+0x394>
d0020e88:	e5943000 	ldr	r3, [r4]
d0020e8c:	e3a02020 	mov	r2, #32
d0020e90:	e1c323b0 	strh	r2, [r3, #48]	; 0x30
d0020e94:	e5942000 	ldr	r2, [r4]
d0020e98:	e2822030 	add	r2, r2, #48	; 0x30
d0020e9c:	e1d230b0 	ldrh	r3, [r2]
d0020ea0:	e3130020 	tst	r3, #32
d0020ea4:	1afffffc 	bne	d0020e9c <SDHC_ISR0+0x380>
d0020ea8:	e5940028 	ldr	r0, [r4, #40]	; 0x28
d0020eac:	ebfffef0 	bl	d0020a74 <SDHC_ReadOneBlock>
d0020eb0:	e3150010 	tst	r5, #16
d0020eb4:	0a000009 	beq	d0020ee0 <SDHC_ISR0+0x3c4>
d0020eb8:	e5943000 	ldr	r3, [r4]
d0020ebc:	e3a01010 	mov	r1, #16
d0020ec0:	e1c313b0 	strh	r1, [r3, #48]	; 0x30
d0020ec4:	e5942000 	ldr	r2, [r4]
d0020ec8:	e2822030 	add	r2, r2, #48	; 0x30
d0020ecc:	e1d230b0 	ldrh	r3, [r2]
d0020ed0:	e3130010 	tst	r3, #16
d0020ed4:	1afffffc 	bne	d0020ecc <SDHC_ISR0+0x3b0>
d0020ed8:	e5940028 	ldr	r0, [r4, #40]	; 0x28
d0020edc:	ebfffe7a 	bl	d00208cc <SDHC_WriteOneBlock>
d0020ee0:	e3150008 	tst	r5, #8
d0020ee4:	0a000009 	beq	d0020f10 <SDHC_ISR0+0x3f4>
d0020ee8:	e5943000 	ldr	r3, [r4]
d0020eec:	e3a02008 	mov	r2, #8
d0020ef0:	e1c323b0 	strh	r2, [r3, #48]	; 0x30
d0020ef4:	e5941000 	ldr	r1, [r4]
d0020ef8:	e2812030 	add	r2, r1, #48	; 0x30
d0020efc:	e1d230b0 	ldrh	r3, [r2]
d0020f00:	e3130008 	tst	r3, #8
d0020f04:	1afffffc 	bne	d0020efc <SDHC_ISR0+0x3e0>
d0020f08:	e5913000 	ldr	r3, [r1]
d0020f0c:	e5813000 	str	r3, [r1]
d0020f10:	e3150004 	tst	r5, #4
d0020f14:	0a000007 	beq	d0020f38 <SDHC_ISR0+0x41c>
d0020f18:	e5943000 	ldr	r3, [r4]
d0020f1c:	e3a01004 	mov	r1, #4
d0020f20:	e1c313b0 	strh	r1, [r3, #48]	; 0x30
d0020f24:	e5942000 	ldr	r2, [r4]
d0020f28:	e2822030 	add	r2, r2, #48	; 0x30
d0020f2c:	e1d230b0 	ldrh	r3, [r2]
d0020f30:	e3130004 	tst	r3, #4
d0020f34:	1afffffc 	bne	d0020f2c <SDHC_ISR0+0x410>
d0020f38:	e3150002 	tst	r5, #2
d0020f3c:	0a000009 	beq	d0020f68 <SDHC_ISR0+0x44c>
d0020f40:	e3a02000 	mov	r2, #0
d0020f44:	e1c422b2 	strh	r2, [r4, #34]	; 0x22
d0020f48:	e5943000 	ldr	r3, [r4]
d0020f4c:	e3a01002 	mov	r1, #2
d0020f50:	e1c313b0 	strh	r1, [r3, #48]	; 0x30
d0020f54:	e5942000 	ldr	r2, [r4]
d0020f58:	e2822030 	add	r2, r2, #48	; 0x30
d0020f5c:	e1d230b0 	ldrh	r3, [r2]
d0020f60:	e3130002 	tst	r3, #2
d0020f64:	1afffffc 	bne	d0020f5c <SDHC_ISR0+0x440>
d0020f68:	e3150001 	tst	r5, #1
d0020f6c:	08bd8070 	popeq	{r4, r5, r6, pc}
d0020f70:	e5943000 	ldr	r3, [r4]
d0020f74:	e3a02001 	mov	r2, #1
d0020f78:	e1c323b0 	strh	r2, [r3, #48]	; 0x30
d0020f7c:	e5942000 	ldr	r2, [r4]
d0020f80:	e2822030 	add	r2, r2, #48	; 0x30
d0020f84:	e1d230b0 	ldrh	r3, [r2]
d0020f88:	e3130001 	tst	r3, #1
d0020f8c:	1afffffc 	bne	d0020f84 <SDHC_ISR0+0x468>
d0020f90:	e8bd8070 	pop	{r4, r5, r6, pc}
d0020f94:	d0029e38 	.word	0xd0029e38
d0020f98:	d0021d90 	.word	0xd0021d90

d0020f9c <SDHC_SetDriveStrength>:
d0020f9c:	e5903010 	ldr	r3, [r0, #16]
d0020fa0:	e3530001 	cmp	r3, #1
d0020fa4:	812fff1e 	bxhi	lr
d0020fa8:	e59f3024 	ldr	r3, [pc, #36]	; d0020fd4 <SDHC_SetDriveStrength+0x38>
d0020fac:	e59321a0 	ldr	r2, [r3, #416]	; 0x1a0
d0020fb0:	e3510003 	cmp	r1, #3
d0020fb4:	23a01003 	movcs	r1, #3
d0020fb8:	e3c22303 	bic	r2, r2, #201326592	; 0xc000000
d0020fbc:	e1821d01 	orr	r1, r2, r1, lsl #26
d0020fc0:	e58311a0 	str	r1, [r3, #416]	; 0x1a0
d0020fc4:	e5903000 	ldr	r3, [r0]
d0020fc8:	e3a02803 	mov	r2, #196608	; 0x30000
d0020fcc:	e583208c 	str	r2, [r3, #140]	; 0x8c
d0020fd0:	e12fff1e 	bx	lr
d0020fd4:	7f008000 	.word	0x7f008000

d0020fd8 <SDHC_Init>:
d0020fd8:	e92d4ff0 	push	{r4, r5, r6, r7, r8, r9, sl, fp, lr}
d0020fdc:	e24dd054 	sub	sp, sp, #84	; 0x54
d0020fe0:	e59f37c4 	ldr	r3, [pc, #1988]	; d00217ac <SDHC_Init+0x7d4>
d0020fe4:	e3a02000 	mov	r2, #0
d0020fe8:	e5832010 	str	r2, [r3, #16]
d0020fec:	e3a01001 	mov	r1, #1
d0020ff0:	e5831014 	str	r1, [r3, #20]
d0020ff4:	e5832004 	str	r2, [r3, #4]
d0020ff8:	e3a01ffa 	mov	r1, #1000	; 0x3e8
d0020ffc:	e583102c 	str	r1, [r3, #44]	; 0x2c
d0021000:	e3a01004 	mov	r1, #4
d0021004:	e5c31027 	strb	r1, [r3, #39]	; 0x27
d0021008:	e3a01002 	mov	r1, #2
d002100c:	e5831018 	str	r1, [r3, #24]
d0021010:	e3a01b02 	mov	r1, #2048	; 0x800
d0021014:	e1c313b0 	strh	r1, [r3, #48]	; 0x30
d0021018:	e5c32026 	strb	r2, [r3, #38]	; 0x26
d002101c:	e1c322b0 	strh	r2, [r3, #32]
d0021020:	e59f1788 	ldr	r1, [pc, #1928]	; d00217b0 <SDHC_Init+0x7d8>
d0021024:	e5813000 	str	r3, [r1]
d0021028:	e3a004eb 	mov	r0, #-352321536	; 0xeb000000
d002102c:	e5830000 	str	r0, [r3]
d0021030:	e59f177c 	ldr	r1, [pc, #1916]	; d00217b4 <SDHC_Init+0x7dc>
d0021034:	e5831040 	str	r1, [r3, #64]	; 0x40
d0021038:	e3a01038 	mov	r1, #56	; 0x38
d002103c:	e5c3103e 	strb	r1, [r3, #62]	; 0x3e
d0021040:	e59f3770 	ldr	r3, [pc, #1904]	; d00217b8 <SDHC_Init+0x7e0>
d0021044:	e59311a0 	ldr	r1, [r3, #416]	; 0x1a0
d0021048:	e201120f 	and	r1, r1, #-268435456	; 0xf0000000
d002104c:	e58311a0 	str	r1, [r3, #416]	; 0x1a0
d0021050:	e593c1a0 	ldr	ip, [r3, #416]	; 0x1a0
d0021054:	e59f1760 	ldr	r1, [pc, #1888]	; d00217bc <SDHC_Init+0x7e4>
d0021058:	e18c1001 	orr	r1, ip, r1
d002105c:	e58311a0 	str	r1, [r3, #416]	; 0x1a0
d0021060:	e59311a8 	ldr	r1, [r3, #424]	; 0x1a8
d0021064:	e3c11eff 	bic	r1, r1, #4080	; 0xff0
d0021068:	e3c1100f 	bic	r1, r1, #15
d002106c:	e58311a8 	str	r1, [r3, #424]	; 0x1a8
d0021070:	e3a03003 	mov	r3, #3
d0021074:	e5c0302f 	strb	r3, [r0, #47]	; 0x2f
d0021078:	e58d200c 	str	r2, [sp, #12]
d002107c:	e59f4728 	ldr	r4, [pc, #1832]	; d00217ac <SDHC_Init+0x7d4>
d0021080:	e1a07002 	mov	r7, r2
d0021084:	e59fb734 	ldr	fp, [pc, #1844]	; d00217c0 <SDHC_Init+0x7e8>
d0021088:	e5943000 	ldr	r3, [r4]
d002108c:	e3a02e11 	mov	r2, #272	; 0x110
d0021090:	e5832080 	str	r2, [r3, #128]	; 0x80
d0021094:	e5943000 	ldr	r3, [r4]
d0021098:	e5837084 	str	r7, [r3, #132]	; 0x84
d002109c:	e5943000 	ldr	r3, [r4]
d00210a0:	e1d322bc 	ldrh	r2, [r3, #44]	; 0x2c
d00210a4:	e6ef2072 	uxtb	r2, r2
d00210a8:	e382237f 	orr	r2, r2, #-67108863	; 0xfc000001
d00210ac:	e38227ff 	orr	r2, r2, #66846720	; 0x3fc0000
d00210b0:	e382290e 	orr	r2, r2, #229376	; 0x38000
d00210b4:	e6ff2072 	uxth	r2, r2
d00210b8:	e1c322bc 	strh	r2, [r3, #44]	; 0x2c
d00210bc:	e5942000 	ldr	r2, [r4]
d00210c0:	e282202c 	add	r2, r2, #44	; 0x2c
d00210c4:	e1d230b0 	ldrh	r3, [r2]
d00210c8:	e3130002 	tst	r3, #2
d00210cc:	0afffffc 	beq	d00210c4 <SDHC_Init+0xec>
d00210d0:	e3a00001 	mov	r0, #1
d00210d4:	e1a01004 	mov	r1, r4
d00210d8:	ebfffe36 	bl	d00209b8 <SDHC_SetSdClockOnOff>
d00210dc:	e5943000 	ldr	r3, [r4]
d00210e0:	e5d3202e 	ldrb	r2, [r3, #46]	; 0x2e
d00210e4:	e20220f0 	and	r2, r2, #240	; 0xf0
d00210e8:	e382200e 	orr	r2, r2, #14
d00210ec:	e5c3202e 	strb	r2, [r3, #46]	; 0x2e
d00210f0:	e5943000 	ldr	r3, [r4]
d00210f4:	e5c37028 	strb	r7, [r3, #40]	; 0x28
d00210f8:	e1a00007 	mov	r0, r7
d00210fc:	e1a01004 	mov	r1, r4
d0021100:	ebfffe1b 	bl	d0020974 <SDHC_SetHostCtrlSpeedMode>
d0021104:	e1a00004 	mov	r0, r4
d0021108:	ebfffdaa 	bl	d00207b8 <SDHC_ClearErrInterruptStatus>
d002110c:	e5943000 	ldr	r3, [r4]
d0021110:	e59f16ac 	ldr	r1, [pc, #1708]	; d00217c4 <SDHC_Init+0x7ec>
d0021114:	e1c313b4 	strh	r1, [r3, #52]	; 0x34
d0021118:	e5943000 	ldr	r3, [r4]
d002111c:	e3a020ff 	mov	r2, #255	; 0xff
d0021120:	e1c323b6 	strh	r2, [r3, #54]	; 0x36
d0021124:	e5943000 	ldr	r3, [r4]
d0021128:	e1c373b8 	strh	r7, [r3, #56]	; 0x38
d002112c:	e5943000 	ldr	r3, [r4]
d0021130:	e1c373ba 	strh	r7, [r3, #58]	; 0x3a
d0021134:	e58d7000 	str	r7, [sp]
d0021138:	e1a00004 	mov	r0, r4
d002113c:	e1a01007 	mov	r1, r7
d0021140:	e1a02007 	mov	r2, r7
d0021144:	e1a03007 	mov	r3, r7
d0021148:	ebfffda6 	bl	d00207e8 <SDHC_IssueCommand>
d002114c:	e3500000 	cmp	r0, #0
d0021150:	0a000045 	beq	d002126c <SDHC_Init+0x294>
d0021154:	e3a06f7d 	mov	r6, #500	; 0x1f4
d0021158:	e3a05001 	mov	r5, #1
d002115c:	e3a08037 	mov	r8, #55	; 0x37
d0021160:	e3a0a002 	mov	sl, #2
d0021164:	e3a09029 	mov	r9, #41	; 0x29
d0021168:	e58d5000 	str	r5, [sp]
d002116c:	e1a00004 	mov	r0, r4
d0021170:	e1a01008 	mov	r1, r8
d0021174:	e1a02007 	mov	r2, r7
d0021178:	e1a0300a 	mov	r3, sl
d002117c:	ebfffd99 	bl	d00207e8 <SDHC_IssueCommand>
d0021180:	e3a03004 	mov	r3, #4
d0021184:	e58d3000 	str	r3, [sp]
d0021188:	e1a00004 	mov	r0, r4
d002118c:	e1a01009 	mov	r1, r9
d0021190:	e1a0200b 	mov	r2, fp
d0021194:	e1a03005 	mov	r3, r5
d0021198:	ebfffd92 	bl	d00207e8 <SDHC_IssueCommand>
d002119c:	e5943000 	ldr	r3, [r4]
d00211a0:	e2832010 	add	r2, r3, #16
d00211a4:	e5933010 	ldr	r3, [r3, #16]
d00211a8:	e3530000 	cmp	r3, #0
d00211ac:	aa00002a 	bge	d002125c <SDHC_Init+0x284>
d00211b0:	e5923000 	ldr	r3, [r2]
d00211b4:	e3130101 	tst	r3, #1073741824	; 0x40000000
d00211b8:	13a02001 	movne	r2, #1
d00211bc:	159f35e8 	ldrne	r3, [pc, #1512]	; d00217ac <SDHC_Init+0x7d4>
d00211c0:	1583200c 	strne	r2, [r3, #12]
d00211c4:	03a02000 	moveq	r2, #0
d00211c8:	059f35dc 	ldreq	r3, [pc, #1500]	; d00217ac <SDHC_Init+0x7d4>
d00211cc:	0583200c 	streq	r2, [r3, #12]
d00211d0:	e59f45d4 	ldr	r4, [pc, #1492]	; d00217ac <SDHC_Init+0x7d4>
d00211d4:	e1a00004 	mov	r0, r4
d00211d8:	ebfffd76 	bl	d00207b8 <SDHC_ClearErrInterruptStatus>
d00211dc:	e3a02000 	mov	r2, #0
d00211e0:	e5842008 	str	r2, [r4, #8]
d00211e4:	e3a05003 	mov	r5, #3
d00211e8:	e58d5000 	str	r5, [sp]
d00211ec:	e1a00004 	mov	r0, r4
d00211f0:	e3a01002 	mov	r1, #2
d00211f4:	e3a03001 	mov	r3, #1
d00211f8:	ebfffd7a 	bl	d00207e8 <SDHC_IssueCommand>
d00211fc:	e5943000 	ldr	r3, [r4]
d0021200:	e5932018 	ldr	r2, [r3, #24]
d0021204:	e5932018 	ldr	r2, [r3, #24]
d0021208:	e5932018 	ldr	r2, [r3, #24]
d002120c:	e5932018 	ldr	r2, [r3, #24]
d0021210:	e5932014 	ldr	r2, [r3, #20]
d0021214:	e5933014 	ldr	r3, [r3, #20]
d0021218:	e5943008 	ldr	r3, [r4, #8]
d002121c:	e3530001 	cmp	r3, #1
d0021220:	13a03000 	movne	r3, #0
d0021224:	03a03001 	moveq	r3, #1
d0021228:	e6ff2073 	uxth	r2, r3
d002122c:	e1c431bc 	strh	r3, [r4, #28]
d0021230:	e3a03001 	mov	r3, #1
d0021234:	e58d3000 	str	r3, [sp]
d0021238:	e1a00004 	mov	r0, r4
d002123c:	e1a01005 	mov	r1, r5
d0021240:	e1a02802 	lsl	r2, r2, #16
d0021244:	e3a03002 	mov	r3, #2
d0021248:	ebfffd66 	bl	d00207e8 <SDHC_IssueCommand>
d002124c:	e5943008 	ldr	r3, [r4, #8]
d0021250:	e3530000 	cmp	r3, #0
d0021254:	0a00000a 	beq	d0021284 <SDHC_Init+0x2ac>
d0021258:	ea00000e 	b	d0021298 <SDHC_Init+0x2c0>
d002125c:	e2566001 	subs	r6, r6, #1
d0021260:	1affffc0 	bne	d0021168 <SDHC_Init+0x190>
d0021264:	e1a00004 	mov	r0, r4
d0021268:	ebfffd52 	bl	d00207b8 <SDHC_ClearErrInterruptStatus>
d002126c:	e59d100c 	ldr	r1, [sp, #12]
d0021270:	e2811001 	add	r1, r1, #1
d0021274:	e58d100c 	str	r1, [sp, #12]
d0021278:	e3510005 	cmp	r1, #5
d002127c:	1affff81 	bne	d0021088 <SDHC_Init+0xb0>
d0021280:	ea000144 	b	d0021798 <SDHC_Init+0x7c0>
d0021284:	e59f3520 	ldr	r3, [pc, #1312]	; d00217ac <SDHC_Init+0x7d4>
d0021288:	e5932000 	ldr	r2, [r3]
d002128c:	e5922010 	ldr	r2, [r2, #16]
d0021290:	e1a02822 	lsr	r2, r2, #16
d0021294:	e1c321bc 	strh	r2, [r3, #28]
d0021298:	e59f450c 	ldr	r4, [pc, #1292]	; d00217ac <SDHC_Init+0x7d4>
d002129c:	e1d421bc 	ldrh	r2, [r4, #28]
d00212a0:	e3a03003 	mov	r3, #3
d00212a4:	e58d3000 	str	r3, [sp]
d00212a8:	e1a00004 	mov	r0, r4
d00212ac:	e3a01009 	mov	r1, #9
d00212b0:	e1a02802 	lsl	r2, r2, #16
d00212b4:	e3a03002 	mov	r3, #2
d00212b8:	ebfffd4a 	bl	d00207e8 <SDHC_IssueCommand>
d00212bc:	e5943008 	ldr	r3, [r4, #8]
d00212c0:	e3530001 	cmp	r3, #1
d00212c4:	1a000004 	bne	d00212dc <SDHC_Init+0x304>
d00212c8:	e5942000 	ldr	r2, [r4]
d00212cc:	e592201c 	ldr	r2, [r2, #28]
d00212d0:	e1a02922 	lsr	r2, r2, #18
d00212d4:	e202200f 	and	r2, r2, #15
d00212d8:	e5c42025 	strb	r2, [r4, #37]	; 0x25
d00212dc:	e59f04c8 	ldr	r0, [pc, #1224]	; d00217ac <SDHC_Init+0x7d4>
d00212e0:	e5903000 	ldr	r3, [r0]
d00212e4:	e5931018 	ldr	r1, [r3, #24]
d00212e8:	e1a01421 	lsr	r1, r1, #8
d00212ec:	e201100f 	and	r1, r1, #15
d00212f0:	e1c013b2 	strh	r1, [r0, #50]	; 0x32
d00212f4:	e5932018 	ldr	r2, [r3, #24]
d00212f8:	e1a023a2 	lsr	r2, r2, #7
d00212fc:	e2022001 	and	r2, r2, #1
d0021300:	e1c023b4 	strh	r2, [r0, #52]	; 0x34
d0021304:	e5932018 	ldr	r2, [r3, #24]
d0021308:	e593c014 	ldr	ip, [r3, #20]
d002130c:	e2022003 	and	r2, r2, #3
d0021310:	e1a02502 	lsl	r2, r2, #10
d0021314:	e182cb2c 	orr	ip, r2, ip, lsr #22
d0021318:	e1c0c3b6 	strh	ip, [r0, #54]	; 0x36
d002131c:	e5932014 	ldr	r2, [r3, #20]
d0021320:	e1a023a2 	lsr	r2, r2, #7
d0021324:	e2022007 	and	r2, r2, #7
d0021328:	e1c023b8 	strh	r2, [r0, #56]	; 0x38
d002132c:	e28cc001 	add	ip, ip, #1
d0021330:	e1a0111c 	lsl	r1, ip, r1
d0021334:	e2822002 	add	r2, r2, #2
d0021338:	e1a01211 	lsl	r1, r1, r2
d002133c:	e1a014a1 	lsr	r1, r1, #9
d0021340:	e59f2480 	ldr	r2, [pc, #1152]	; d00217c8 <SDHC_Init+0x7f0>
d0021344:	e5821000 	str	r1, [r2]
d0021348:	e5932010 	ldr	r2, [r3, #16]
d002134c:	e5932014 	ldr	r2, [r3, #20]
d0021350:	e5932018 	ldr	r2, [r3, #24]
d0021354:	e593301c 	ldr	r3, [r3, #28]
d0021358:	e1d021bc 	ldrh	r2, [r0, #28]
d002135c:	e3a03002 	mov	r3, #2
d0021360:	e58d3000 	str	r3, [sp]
d0021364:	e3a01007 	mov	r1, #7
d0021368:	e1a02802 	lsl	r2, r2, #16
d002136c:	ebfffd1d 	bl	d00207e8 <SDHC_IssueCommand>
d0021370:	e3500000 	cmp	r0, #0
d0021374:	0a000109 	beq	d00217a0 <SDHC_Init+0x7c8>
d0021378:	e59f342c 	ldr	r3, [pc, #1068]	; d00217ac <SDHC_Init+0x7d4>
d002137c:	e5933008 	ldr	r3, [r3, #8]
d0021380:	e3530000 	cmp	r3, #0
d0021384:	1a000090 	bne	d00215cc <SDHC_Init+0x5f4>
d0021388:	e2833001 	add	r3, r3, #1
d002138c:	e58d3000 	str	r3, [sp]
d0021390:	e59f0414 	ldr	r0, [pc, #1044]	; d00217ac <SDHC_Init+0x7d4>
d0021394:	e3a01010 	mov	r1, #16
d0021398:	e3a02008 	mov	r2, #8
d002139c:	e2833001 	add	r3, r3, #1
d00213a0:	ebfffd10 	bl	d00207e8 <SDHC_IssueCommand>
d00213a4:	e3500000 	cmp	r0, #0
d00213a8:	0a000041 	beq	d00214b4 <SDHC_Init+0x4dc>
d00213ac:	e59f43f8 	ldr	r4, [pc, #1016]	; d00217ac <SDHC_Init+0x7d4>
d00213b0:	e5943000 	ldr	r3, [r4]
d00213b4:	e59f2410 	ldr	r2, [pc, #1040]	; d00217cc <SDHC_Init+0x7f4>
d00213b8:	e1c320b4 	strh	r2, [r3, #4]
d00213bc:	e5943000 	ldr	r3, [r4]
d00213c0:	e3a05001 	mov	r5, #1
d00213c4:	e1c350b6 	strh	r5, [r3, #6]
d00213c8:	e3a03000 	mov	r3, #0
d00213cc:	e88d0018 	stm	sp, {r3, r4}
d00213d0:	e1a00003 	mov	r0, r3
d00213d4:	e1a01005 	mov	r1, r5
d00213d8:	e1a02003 	mov	r2, r3
d00213dc:	ebfffd69 	bl	d0020988 <SDHC_SetTransferModeReg>
d00213e0:	e1c452b2 	strh	r5, [r4, #34]	; 0x22
d00213e4:	e28d3010 	add	r3, sp, #16
d00213e8:	e5843028 	str	r3, [r4, #40]	; 0x28
d00213ec:	e1d421bc 	ldrh	r2, [r4, #28]
d00213f0:	e58d5000 	str	r5, [sp]
d00213f4:	e1a00004 	mov	r0, r4
d00213f8:	e3a01037 	mov	r1, #55	; 0x37
d00213fc:	e1a02802 	lsl	r2, r2, #16
d0021400:	e3a03002 	mov	r3, #2
d0021404:	ebfffcf7 	bl	d00207e8 <SDHC_IssueCommand>
d0021408:	e3500000 	cmp	r0, #0
d002140c:	0a000028 	beq	d00214b4 <SDHC_Init+0x4dc>
d0021410:	e58d5000 	str	r5, [sp]
d0021414:	e1a00004 	mov	r0, r4
d0021418:	e3a01033 	mov	r1, #51	; 0x33
d002141c:	e3a02000 	mov	r2, #0
d0021420:	e2853002 	add	r3, r5, #2
d0021424:	ebfffcef 	bl	d00207e8 <SDHC_IssueCommand>
d0021428:	e3500000 	cmp	r0, #0
d002142c:	0a000020 	beq	d00214b4 <SDHC_Init+0x4dc>
d0021430:	e5940028 	ldr	r0, [r4, #40]	; 0x28
d0021434:	ebfffd8e 	bl	d0020a74 <SDHC_ReadOneBlock>
d0021438:	e5942000 	ldr	r2, [r4]
d002143c:	e2822030 	add	r2, r2, #48	; 0x30
d0021440:	e3a0347f 	mov	r3, #2130706432	; 0x7f000000
d0021444:	ea000001 	b	d0021450 <SDHC_Init+0x478>
d0021448:	e2533001 	subs	r3, r3, #1
d002144c:	0a000002 	beq	d002145c <SDHC_Init+0x484>
d0021450:	e1d210b0 	ldrh	r1, [r2]
d0021454:	e3110002 	tst	r1, #2
d0021458:	0afffffa 	beq	d0021448 <SDHC_Init+0x470>
d002145c:	e59f3348 	ldr	r3, [pc, #840]	; d00217ac <SDHC_Init+0x7d4>
d0021460:	e3a02002 	mov	r2, #2
d0021464:	e5931000 	ldr	r1, [r3]
d0021468:	e1c123b0 	strh	r2, [r1, #48]	; 0x30
d002146c:	e5931000 	ldr	r1, [r3]
d0021470:	e1d113b0 	ldrh	r1, [r1, #48]	; 0x30
d0021474:	e3110002 	tst	r1, #2
d0021478:	1afffff9 	bne	d0021464 <SDHC_Init+0x48c>
d002147c:	e59d3010 	ldr	r3, [sp, #16]
d0021480:	e213300f 	ands	r3, r3, #15
d0021484:	0a00004f 	beq	d00215c8 <SDHC_Init+0x5f0>
d0021488:	e3530001 	cmp	r3, #1
d002148c:	03a02001 	moveq	r2, #1
d0021490:	059f3314 	ldreq	r3, [pc, #788]	; d00217ac <SDHC_Init+0x7d4>
d0021494:	05c32025 	strbeq	r2, [r3, #37]	; 0x25
d0021498:	0a00000b 	beq	d00214cc <SDHC_Init+0x4f4>
d002149c:	e3530002 	cmp	r3, #2
d00214a0:	1a000048 	bne	d00215c8 <SDHC_Init+0x5f0>
d00214a4:	e3a02002 	mov	r2, #2
d00214a8:	e59f32fc 	ldr	r3, [pc, #764]	; d00217ac <SDHC_Init+0x7d4>
d00214ac:	e5c32025 	strb	r2, [r3, #37]	; 0x25
d00214b0:	ea000005 	b	d00214cc <SDHC_Init+0x4f4>
d00214b4:	e59f32f0 	ldr	r3, [pc, #752]	; d00217ac <SDHC_Init+0x7d4>
d00214b8:	e5d33025 	ldrb	r3, [r3, #37]	; 0x25
d00214bc:	e2433001 	sub	r3, r3, #1
d00214c0:	e6ef3073 	uxtb	r3, r3
d00214c4:	e3530001 	cmp	r3, #1
d00214c8:	8a00003e 	bhi	d00215c8 <SDHC_Init+0x5f0>
d00214cc:	e59f02fc 	ldr	r0, [pc, #764]	; d00217d0 <SDHC_Init+0x7f8>
d00214d0:	eb0001d3 	bl	d0021c24 <puts>
d00214d4:	e3a03001 	mov	r3, #1
d00214d8:	e58d3000 	str	r3, [sp]
d00214dc:	e59f02c8 	ldr	r0, [pc, #712]	; d00217ac <SDHC_Init+0x7d4>
d00214e0:	e3a01010 	mov	r1, #16
d00214e4:	e3a02040 	mov	r2, #64	; 0x40
d00214e8:	e2833001 	add	r3, r3, #1
d00214ec:	ebfffcbd 	bl	d00207e8 <SDHC_IssueCommand>
d00214f0:	e3500000 	cmp	r0, #0
d00214f4:	0a00002f 	beq	d00215b8 <SDHC_Init+0x5e0>
d00214f8:	e59f42ac 	ldr	r4, [pc, #684]	; d00217ac <SDHC_Init+0x7d4>
d00214fc:	e5943000 	ldr	r3, [r4]
d0021500:	e59f22cc 	ldr	r2, [pc, #716]	; d00217d4 <SDHC_Init+0x7fc>
d0021504:	e1c320b4 	strh	r2, [r3, #4]
d0021508:	e5943000 	ldr	r3, [r4]
d002150c:	e3a05001 	mov	r5, #1
d0021510:	e1c350b6 	strh	r5, [r3, #6]
d0021514:	e3a03000 	mov	r3, #0
d0021518:	e88d0018 	stm	sp, {r3, r4}
d002151c:	e1a00003 	mov	r0, r3
d0021520:	e1a01005 	mov	r1, r5
d0021524:	e1a02003 	mov	r2, r3
d0021528:	ebfffd16 	bl	d0020988 <SDHC_SetTransferModeReg>
d002152c:	e1c452b2 	strh	r5, [r4, #34]	; 0x22
d0021530:	e28d3010 	add	r3, sp, #16
d0021534:	e5843028 	str	r3, [r4, #40]	; 0x28
d0021538:	e58d5000 	str	r5, [sp]
d002153c:	e1a00004 	mov	r0, r4
d0021540:	e3a01006 	mov	r1, #6
d0021544:	e59f228c 	ldr	r2, [pc, #652]	; d00217d8 <SDHC_Init+0x800>
d0021548:	e3a03003 	mov	r3, #3
d002154c:	ebfffca5 	bl	d00207e8 <SDHC_IssueCommand>
d0021550:	e3500000 	cmp	r0, #0
d0021554:	1a000002 	bne	d0021564 <SDHC_Init+0x58c>
d0021558:	e59f027c 	ldr	r0, [pc, #636]	; d00217dc <SDHC_Init+0x804>
d002155c:	eb0001b0 	bl	d0021c24 <puts>
d0021560:	ea000014 	b	d00215b8 <SDHC_Init+0x5e0>
d0021564:	e59f4240 	ldr	r4, [pc, #576]	; d00217ac <SDHC_Init+0x7d4>
d0021568:	e5940028 	ldr	r0, [r4, #40]	; 0x28
d002156c:	ebfffd40 	bl	d0020a74 <SDHC_ReadOneBlock>
d0021570:	e5942000 	ldr	r2, [r4]
d0021574:	e2822030 	add	r2, r2, #48	; 0x30
d0021578:	e3a0347f 	mov	r3, #2130706432	; 0x7f000000
d002157c:	ea000001 	b	d0021588 <SDHC_Init+0x5b0>
d0021580:	e2533001 	subs	r3, r3, #1
d0021584:	0a000002 	beq	d0021594 <SDHC_Init+0x5bc>
d0021588:	e1d210b0 	ldrh	r1, [r2]
d002158c:	e3110002 	tst	r1, #2
d0021590:	0afffffa 	beq	d0021580 <SDHC_Init+0x5a8>
d0021594:	e59f3210 	ldr	r3, [pc, #528]	; d00217ac <SDHC_Init+0x7d4>
d0021598:	e3a02002 	mov	r2, #2
d002159c:	e5931000 	ldr	r1, [r3]
d00215a0:	e1c123b0 	strh	r2, [r1, #48]	; 0x30
d00215a4:	e5931000 	ldr	r1, [r3]
d00215a8:	e1d113b0 	ldrh	r1, [r1, #48]	; 0x30
d00215ac:	e3110002 	tst	r1, #2
d00215b0:	1afffff9 	bne	d002159c <SDHC_Init+0x5c4>
d00215b4:	ea000004 	b	d00215cc <SDHC_Init+0x5f4>
d00215b8:	e59f0220 	ldr	r0, [pc, #544]	; d00217e0 <SDHC_Init+0x808>
d00215bc:	eb000198 	bl	d0021c24 <puts>
d00215c0:	e3a00000 	mov	r0, #0
d00215c4:	ea000076 	b	d00217a4 <SDHC_Init+0x7cc>
d00215c8:	eafffffe 	b	d00215c8 <SDHC_Init+0x5f0>
d00215cc:	e59f41d8 	ldr	r4, [pc, #472]	; d00217ac <SDHC_Init+0x7d4>
d00215d0:	e3a00000 	mov	r0, #0
d00215d4:	e1a01004 	mov	r1, r4
d00215d8:	ebfffce5 	bl	d0020974 <SDHC_SetHostCtrlSpeedMode>
d00215dc:	e3a00000 	mov	r0, #0
d00215e0:	e1a01004 	mov	r1, r4
d00215e4:	ebfffcf3 	bl	d00209b8 <SDHC_SetSdClockOnOff>
d00215e8:	e5943000 	ldr	r3, [r4]
d00215ec:	e5942014 	ldr	r2, [r4, #20]
d00215f0:	e1a02202 	lsl	r2, r2, #4
d00215f4:	e3822101 	orr	r2, r2, #1073741824	; 0x40000000
d00215f8:	e3822c01 	orr	r2, r2, #256	; 0x100
d00215fc:	e5832080 	str	r2, [r3, #128]	; 0x80
d0021600:	e5943000 	ldr	r3, [r4]
d0021604:	e3a02000 	mov	r2, #0
d0021608:	e5832084 	str	r2, [r3, #132]	; 0x84
d002160c:	e5943000 	ldr	r3, [r4]
d0021610:	e1d322bc 	ldrh	r2, [r3, #44]	; 0x2c
d0021614:	e5941018 	ldr	r1, [r4, #24]
d0021618:	e1a01401 	lsl	r1, r1, #8
d002161c:	e3811001 	orr	r1, r1, #1
d0021620:	e6ef2072 	uxtb	r2, r2
d0021624:	e1812002 	orr	r2, r1, r2
d0021628:	e6ff2072 	uxth	r2, r2
d002162c:	e1c322bc 	strh	r2, [r3, #44]	; 0x2c
d0021630:	e5943000 	ldr	r3, [r4]
d0021634:	e283302c 	add	r3, r3, #44	; 0x2c
d0021638:	e1d320b0 	ldrh	r2, [r3]
d002163c:	e3120002 	tst	r2, #2
d0021640:	0afffffc 	beq	d0021638 <SDHC_Init+0x660>
d0021644:	e59f4160 	ldr	r4, [pc, #352]	; d00217ac <SDHC_Init+0x7d4>
d0021648:	e3a00001 	mov	r0, #1
d002164c:	e1a01004 	mov	r1, r4
d0021650:	ebfffcd8 	bl	d00209b8 <SDHC_SetSdClockOnOff>
d0021654:	e5943000 	ldr	r3, [r4]
d0021658:	e5932080 	ldr	r2, [r3, #128]	; 0x80
d002165c:	e1d332bc 	ldrh	r3, [r3, #44]	; 0x2c
d0021660:	e3a00000 	mov	r0, #0
d0021664:	e1a01004 	mov	r1, r4
d0021668:	ebfffc4c 	bl	d00207a0 <SDHC_SetSdhcCardIntEnable>
d002166c:	e5943008 	ldr	r3, [r4, #8]
d0021670:	e3530000 	cmp	r3, #0
d0021674:	1a000019 	bne	d00216e0 <SDHC_Init+0x708>
d0021678:	e1a00004 	mov	r0, r4
d002167c:	e2833004 	add	r3, r3, #4
d0021680:	e5c43027 	strb	r3, [r4, #39]	; 0x27
d0021684:	e1d421bc 	ldrh	r2, [r4, #28]
d0021688:	e3a03001 	mov	r3, #1
d002168c:	e58d3000 	str	r3, [sp]
d0021690:	e3a01037 	mov	r1, #55	; 0x37
d0021694:	e1a02802 	lsl	r2, r2, #16
d0021698:	e2833001 	add	r3, r3, #1
d002169c:	ebfffc51 	bl	d00207e8 <SDHC_IssueCommand>
d00216a0:	e3500000 	cmp	r0, #0
d00216a4:	03a00000 	moveq	r0, #0
d00216a8:	0a00003d 	beq	d00217a4 <SDHC_Init+0x7cc>
d00216ac:	e5d42027 	ldrb	r2, [r4, #39]	; 0x27
d00216b0:	e3a03001 	mov	r3, #1
d00216b4:	e58d3000 	str	r3, [sp]
d00216b8:	e1a00004 	mov	r0, r4
d00216bc:	e3a01006 	mov	r1, #6
d00216c0:	e1520003 	cmp	r2, r3
d00216c4:	13a02002 	movne	r2, #2
d00216c8:	03a02000 	moveq	r2, #0
d00216cc:	e2833001 	add	r3, r3, #1
d00216d0:	ebfffc44 	bl	d00207e8 <SDHC_IssueCommand>
d00216d4:	e3500000 	cmp	r0, #0
d00216d8:	03a00000 	moveq	r0, #0
d00216dc:	0a000030 	beq	d00217a4 <SDHC_Init+0x7cc>
d00216e0:	e59f30c4 	ldr	r3, [pc, #196]	; d00217ac <SDHC_Init+0x7d4>
d00216e4:	e5932000 	ldr	r2, [r3]
d00216e8:	e5d21028 	ldrb	r1, [r2, #40]	; 0x28
d00216ec:	e20110dd 	and	r1, r1, #221	; 0xdd
d00216f0:	e5c21028 	strb	r1, [r2, #40]	; 0x28
d00216f4:	e5d33027 	ldrb	r3, [r3, #39]	; 0x27
d00216f8:	e3530008 	cmp	r3, #8
d00216fc:	1a000005 	bne	d0021718 <SDHC_Init+0x740>
d0021700:	e59f30a4 	ldr	r3, [pc, #164]	; d00217ac <SDHC_Init+0x7d4>
d0021704:	e5933000 	ldr	r3, [r3]
d0021708:	e5d32028 	ldrb	r2, [r3, #40]	; 0x28
d002170c:	e3822020 	orr	r2, r2, #32
d0021710:	e5c32028 	strb	r2, [r3, #40]	; 0x28
d0021714:	ea000005 	b	d0021730 <SDHC_Init+0x758>
d0021718:	e3530004 	cmp	r3, #4
d002171c:	059f3088 	ldreq	r3, [pc, #136]	; d00217ac <SDHC_Init+0x7d4>
d0021720:	05933000 	ldreq	r3, [r3]
d0021724:	05d32028 	ldrbeq	r2, [r3, #40]	; 0x28
d0021728:	03822002 	orreq	r2, r2, #2
d002172c:	05c32028 	strbeq	r2, [r3, #40]	; 0x28
d0021730:	e59f4074 	ldr	r4, [pc, #116]	; d00217ac <SDHC_Init+0x7d4>
d0021734:	e3a00001 	mov	r0, #1
d0021738:	e1a01004 	mov	r1, r4
d002173c:	ebfffc17 	bl	d00207a0 <SDHC_SetSdhcCardIntEnable>
d0021740:	e1a00004 	mov	r0, r4
d0021744:	ebfffcae 	bl	d0020a04 <SDHC_WaitForCard2TransferState>
d0021748:	e3500000 	cmp	r0, #0
d002174c:	03a00000 	moveq	r0, #0
d0021750:	0a000013 	beq	d00217a4 <SDHC_Init+0x7cc>
d0021754:	e3a03001 	mov	r3, #1
d0021758:	e58d3000 	str	r3, [sp]
d002175c:	e1a00004 	mov	r0, r4
d0021760:	e3a01010 	mov	r1, #16
d0021764:	e3a02c02 	mov	r2, #512	; 0x200
d0021768:	e2833001 	add	r3, r3, #1
d002176c:	ebfffc1d 	bl	d00207e8 <SDHC_IssueCommand>
d0021770:	e3500000 	cmp	r0, #0
d0021774:	03a00000 	moveq	r0, #0
d0021778:	0a000009 	beq	d00217a4 <SDHC_Init+0x7cc>
d002177c:	e5943000 	ldr	r3, [r4]
d0021780:	e5932080 	ldr	r2, [r3, #128]	; 0x80
d0021784:	e3822201 	orr	r2, r2, #268435456	; 0x10000000
d0021788:	e3822c05 	orr	r2, r2, #1280	; 0x500
d002178c:	e5832080 	str	r2, [r3, #128]	; 0x80
d0021790:	e3a00001 	mov	r0, #1
d0021794:	ea000002 	b	d00217a4 <SDHC_Init+0x7cc>
d0021798:	e3a00000 	mov	r0, #0
d002179c:	ea000000 	b	d00217a4 <SDHC_Init+0x7cc>
d00217a0:	e3a00000 	mov	r0, #0
d00217a4:	e28dd054 	add	sp, sp, #84	; 0x54
d00217a8:	e8bd8ff0 	pop	{r4, r5, r6, r7, r8, r9, sl, fp, pc}
d00217ac:	d0029df4 	.word	0xd0029df4
d00217b0:	d0029e38 	.word	0xd0029e38
d00217b4:	d0020b1c 	.word	0xd0020b1c
d00217b8:	e0200000 	.word	0xe0200000
d00217bc:	02222222 	.word	0x02222222
d00217c0:	40ff8000 	.word	0x40ff8000
d00217c4:	000003f7 	.word	0x000003f7
d00217c8:	d0029e44 	.word	0xd0029e44
d00217cc:	00007008 	.word	0x00007008
d00217d0:	d0021da8 	.word	0xd0021da8
d00217d4:	00007040 	.word	0x00007040
d00217d8:	80ffff00 	.word	0x80ffff00
d00217dc:	d0021dc4 	.word	0xd0021dc4
d00217e0:	d0021dd0 	.word	0xd0021dd0

d00217e4 <SDHC_ReadBlocks>:
d00217e4:	e92d4070 	push	{r4, r5, r6, lr}
d00217e8:	e24dd008 	sub	sp, sp, #8
d00217ec:	e1a05000 	mov	r5, r0
d00217f0:	e1a04001 	mov	r4, r1
d00217f4:	e1a06002 	mov	r6, r2
d00217f8:	e59f31cc 	ldr	r3, [pc, #460]	; d00219cc <SDHC_ReadBlocks+0x1e8>
d00217fc:	e593300c 	ldr	r3, [r3, #12]
d0021800:	e3530000 	cmp	r3, #0
d0021804:	01a05480 	lsleq	r5, r0, #9
d0021808:	e59f01bc 	ldr	r0, [pc, #444]	; d00219cc <SDHC_ReadBlocks+0x1e8>
d002180c:	e1c012b2 	strh	r1, [r0, #34]	; 0x22
d0021810:	e5802028 	str	r2, [r0, #40]	; 0x28
d0021814:	ebfffc7a 	bl	d0020a04 <SDHC_WaitForCard2TransferState>
d0021818:	e3500000 	cmp	r0, #0
d002181c:	0a000062 	beq	d00219ac <SDHC_ReadBlocks+0x1c8>
d0021820:	e59f31a4 	ldr	r3, [pc, #420]	; d00219cc <SDHC_ReadBlocks+0x1e8>
d0021824:	e5932000 	ldr	r2, [r3]
d0021828:	e3a01c72 	mov	r1, #29184	; 0x7200
d002182c:	e1c210b4 	strh	r1, [r2, #4]
d0021830:	e5932000 	ldr	r2, [r3]
d0021834:	e1c240b6 	strh	r4, [r2, #6]
d0021838:	e5933004 	ldr	r3, [r3, #4]
d002183c:	e3530002 	cmp	r3, #2
d0021840:	1a00000b 	bne	d0021874 <SDHC_ReadBlocks+0x90>
d0021844:	e59f1180 	ldr	r1, [pc, #384]	; d00219cc <SDHC_ReadBlocks+0x1e8>
d0021848:	e5913000 	ldr	r3, [r1]
d002184c:	e5836000 	str	r6, [r3]
d0021850:	e2542001 	subs	r2, r4, #1
d0021854:	13a02001 	movne	r2, #1
d0021858:	e3a03001 	mov	r3, #1
d002185c:	e58d3000 	str	r3, [sp]
d0021860:	e58d1004 	str	r1, [sp, #4]
d0021864:	e1a00002 	mov	r0, r2
d0021868:	e1a01003 	mov	r1, r3
d002186c:	ebfffc45 	bl	d0020988 <SDHC_SetTransferModeReg>
d0021870:	ea000009 	b	d002189c <SDHC_ReadBlocks+0xb8>
d0021874:	e2542001 	subs	r2, r4, #1
d0021878:	13a02001 	movne	r2, #1
d002187c:	e3a03000 	mov	r3, #0
d0021880:	e58d3000 	str	r3, [sp]
d0021884:	e59f3140 	ldr	r3, [pc, #320]	; d00219cc <SDHC_ReadBlocks+0x1e8>
d0021888:	e58d3004 	str	r3, [sp, #4]
d002188c:	e1a00002 	mov	r0, r2
d0021890:	e3a01001 	mov	r1, #1
d0021894:	e1a03001 	mov	r3, r1
d0021898:	ebfffc3a 	bl	d0020988 <SDHC_SetTransferModeReg>
d002189c:	e3540001 	cmp	r4, #1
d00218a0:	1a000009 	bne	d00218cc <SDHC_ReadBlocks+0xe8>
d00218a4:	e3a03001 	mov	r3, #1
d00218a8:	e58d3000 	str	r3, [sp]
d00218ac:	e59f0118 	ldr	r0, [pc, #280]	; d00219cc <SDHC_ReadBlocks+0x1e8>
d00218b0:	e3a01011 	mov	r1, #17
d00218b4:	e1a02005 	mov	r2, r5
d00218b8:	e3a03003 	mov	r3, #3
d00218bc:	ebfffbc9 	bl	d00207e8 <SDHC_IssueCommand>
d00218c0:	e3500000 	cmp	r0, #0
d00218c4:	1a000009 	bne	d00218f0 <SDHC_ReadBlocks+0x10c>
d00218c8:	ea000039 	b	d00219b4 <SDHC_ReadBlocks+0x1d0>
d00218cc:	e3a03001 	mov	r3, #1
d00218d0:	e58d3000 	str	r3, [sp]
d00218d4:	e59f00f0 	ldr	r0, [pc, #240]	; d00219cc <SDHC_ReadBlocks+0x1e8>
d00218d8:	e3a01012 	mov	r1, #18
d00218dc:	e1a02005 	mov	r2, r5
d00218e0:	e3a03003 	mov	r3, #3
d00218e4:	ebfffbbf 	bl	d00207e8 <SDHC_IssueCommand>
d00218e8:	e3500000 	cmp	r0, #0
d00218ec:	0a000032 	beq	d00219bc <SDHC_ReadBlocks+0x1d8>
d00218f0:	e59f30d4 	ldr	r3, [pc, #212]	; d00219cc <SDHC_ReadBlocks+0x1e8>
d00218f4:	e5933004 	ldr	r3, [r3, #4]
d00218f8:	e2432002 	sub	r2, r3, #2
d00218fc:	e3520001 	cmp	r2, #1
d0021900:	9a000012 	bls	d0021950 <SDHC_ReadBlocks+0x16c>
d0021904:	e3530000 	cmp	r3, #0
d0021908:	1a00000a 	bne	d0021938 <SDHC_ReadBlocks+0x154>
d002190c:	e59f30b8 	ldr	r3, [pc, #184]	; d00219cc <SDHC_ReadBlocks+0x1e8>
d0021910:	e1d332b2 	ldrh	r3, [r3, #34]	; 0x22
d0021914:	e3530000 	cmp	r3, #0
d0021918:	0a00000c 	beq	d0021950 <SDHC_ReadBlocks+0x16c>
d002191c:	e59f40a8 	ldr	r4, [pc, #168]	; d00219cc <SDHC_ReadBlocks+0x1e8>
d0021920:	e5940028 	ldr	r0, [r4, #40]	; 0x28
d0021924:	ebfffc52 	bl	d0020a74 <SDHC_ReadOneBlock>
d0021928:	e1d432b2 	ldrh	r3, [r4, #34]	; 0x22
d002192c:	e3530000 	cmp	r3, #0
d0021930:	1afffffa 	bne	d0021920 <SDHC_ReadBlocks+0x13c>
d0021934:	ea000005 	b	d0021950 <SDHC_ReadBlocks+0x16c>
d0021938:	e3530001 	cmp	r3, #1
d002193c:	1a000003 	bne	d0021950 <SDHC_ReadBlocks+0x16c>
d0021940:	e59f3084 	ldr	r3, [pc, #132]	; d00219cc <SDHC_ReadBlocks+0x1e8>
d0021944:	e1d332b2 	ldrh	r3, [r3, #34]	; 0x22
d0021948:	e3530000 	cmp	r3, #0
d002194c:	1a00001d 	bne	d00219c8 <SDHC_ReadBlocks+0x1e4>
d0021950:	e59f3074 	ldr	r3, [pc, #116]	; d00219cc <SDHC_ReadBlocks+0x1e8>
d0021954:	e5931000 	ldr	r1, [r3]
d0021958:	e2811030 	add	r1, r1, #48	; 0x30
d002195c:	e3a0347f 	mov	r3, #2130706432	; 0x7f000000
d0021960:	ea000001 	b	d002196c <SDHC_ReadBlocks+0x188>
d0021964:	e2533001 	subs	r3, r3, #1
d0021968:	0a000002 	beq	d0021978 <SDHC_ReadBlocks+0x194>
d002196c:	e1d120b0 	ldrh	r2, [r1]
d0021970:	e3120002 	tst	r2, #2
d0021974:	0afffffa 	beq	d0021964 <SDHC_ReadBlocks+0x180>
d0021978:	e59f304c 	ldr	r3, [pc, #76]	; d00219cc <SDHC_ReadBlocks+0x1e8>
d002197c:	e3a01002 	mov	r1, #2
d0021980:	e5932000 	ldr	r2, [r3]
d0021984:	e1c213b0 	strh	r1, [r2, #48]	; 0x30
d0021988:	e5932000 	ldr	r2, [r3]
d002198c:	e1d223b0 	ldrh	r2, [r2, #48]	; 0x30
d0021990:	e3120002 	tst	r2, #2
d0021994:	1afffff9 	bne	d0021980 <SDHC_ReadBlocks+0x19c>
d0021998:	e59f302c 	ldr	r3, [pc, #44]	; d00219cc <SDHC_ReadBlocks+0x1e8>
d002199c:	e3a02000 	mov	r2, #0
d00219a0:	e1c322b2 	strh	r2, [r3, #34]	; 0x22
d00219a4:	e3a00001 	mov	r0, #1
d00219a8:	ea000004 	b	d00219c0 <SDHC_ReadBlocks+0x1dc>
d00219ac:	e3a00003 	mov	r0, #3
d00219b0:	ea000002 	b	d00219c0 <SDHC_ReadBlocks+0x1dc>
d00219b4:	e3a00004 	mov	r0, #4
d00219b8:	ea000000 	b	d00219c0 <SDHC_ReadBlocks+0x1dc>
d00219bc:	e3a00005 	mov	r0, #5
d00219c0:	e28dd008 	add	sp, sp, #8
d00219c4:	e8bd8070 	pop	{r4, r5, r6, pc}
d00219c8:	eafffffe 	b	d00219c8 <SDHC_ReadBlocks+0x1e4>
d00219cc:	d0029df4 	.word	0xd0029df4

d00219d0 <SDHC_WriteBlocks>:
d00219d0:	e92d4070 	push	{r4, r5, r6, lr}
d00219d4:	e24dd008 	sub	sp, sp, #8
d00219d8:	e1a05000 	mov	r5, r0
d00219dc:	e1a04001 	mov	r4, r1
d00219e0:	e1a06002 	mov	r6, r2
d00219e4:	e59f31c4 	ldr	r3, [pc, #452]	; d0021bb0 <SDHC_WriteBlocks+0x1e0>
d00219e8:	e593300c 	ldr	r3, [r3, #12]
d00219ec:	e3530000 	cmp	r3, #0
d00219f0:	01a05480 	lsleq	r5, r0, #9
d00219f4:	e59f01b4 	ldr	r0, [pc, #436]	; d0021bb0 <SDHC_WriteBlocks+0x1e0>
d00219f8:	e1c012b2 	strh	r1, [r0, #34]	; 0x22
d00219fc:	e5802028 	str	r2, [r0, #40]	; 0x28
d0021a00:	ebfffbff 	bl	d0020a04 <SDHC_WaitForCard2TransferState>
d0021a04:	e3500000 	cmp	r0, #0
d0021a08:	0a000060 	beq	d0021b90 <SDHC_WriteBlocks+0x1c0>
d0021a0c:	e59f319c 	ldr	r3, [pc, #412]	; d0021bb0 <SDHC_WriteBlocks+0x1e0>
d0021a10:	e5932000 	ldr	r2, [r3]
d0021a14:	e3a01c72 	mov	r1, #29184	; 0x7200
d0021a18:	e1c210b4 	strh	r1, [r2, #4]
d0021a1c:	e5932000 	ldr	r2, [r3]
d0021a20:	e1c240b6 	strh	r4, [r2, #6]
d0021a24:	e5933004 	ldr	r3, [r3, #4]
d0021a28:	e3530002 	cmp	r3, #2
d0021a2c:	1a00000b 	bne	d0021a60 <SDHC_WriteBlocks+0x90>
d0021a30:	e59f1178 	ldr	r1, [pc, #376]	; d0021bb0 <SDHC_WriteBlocks+0x1e0>
d0021a34:	e5913000 	ldr	r3, [r1]
d0021a38:	e5836000 	str	r6, [r3]
d0021a3c:	e2542001 	subs	r2, r4, #1
d0021a40:	13a02001 	movne	r2, #1
d0021a44:	e3a03001 	mov	r3, #1
d0021a48:	e58d3000 	str	r3, [sp]
d0021a4c:	e58d1004 	str	r1, [sp, #4]
d0021a50:	e1a00002 	mov	r0, r2
d0021a54:	e3a01000 	mov	r1, #0
d0021a58:	ebfffbca 	bl	d0020988 <SDHC_SetTransferModeReg>
d0021a5c:	ea000008 	b	d0021a84 <SDHC_WriteBlocks+0xb4>
d0021a60:	e2542001 	subs	r2, r4, #1
d0021a64:	13a02001 	movne	r2, #1
d0021a68:	e3a01000 	mov	r1, #0
d0021a6c:	e58d1000 	str	r1, [sp]
d0021a70:	e59f3138 	ldr	r3, [pc, #312]	; d0021bb0 <SDHC_WriteBlocks+0x1e0>
d0021a74:	e58d3004 	str	r3, [sp, #4]
d0021a78:	e1a00002 	mov	r0, r2
d0021a7c:	e3a03001 	mov	r3, #1
d0021a80:	ebfffbc0 	bl	d0020988 <SDHC_SetTransferModeReg>
d0021a84:	e3540001 	cmp	r4, #1
d0021a88:	1a000009 	bne	d0021ab4 <SDHC_WriteBlocks+0xe4>
d0021a8c:	e3a03001 	mov	r3, #1
d0021a90:	e58d3000 	str	r3, [sp]
d0021a94:	e59f0114 	ldr	r0, [pc, #276]	; d0021bb0 <SDHC_WriteBlocks+0x1e0>
d0021a98:	e3a01018 	mov	r1, #24
d0021a9c:	e1a02005 	mov	r2, r5
d0021aa0:	e3a03003 	mov	r3, #3
d0021aa4:	ebfffb4f 	bl	d00207e8 <SDHC_IssueCommand>
d0021aa8:	e3500000 	cmp	r0, #0
d0021aac:	1a000009 	bne	d0021ad8 <SDHC_WriteBlocks+0x108>
d0021ab0:	ea000038 	b	d0021b98 <SDHC_WriteBlocks+0x1c8>
d0021ab4:	e3a03001 	mov	r3, #1
d0021ab8:	e58d3000 	str	r3, [sp]
d0021abc:	e59f00ec 	ldr	r0, [pc, #236]	; d0021bb0 <SDHC_WriteBlocks+0x1e0>
d0021ac0:	e3a01019 	mov	r1, #25
d0021ac4:	e1a02005 	mov	r2, r5
d0021ac8:	e3a03003 	mov	r3, #3
d0021acc:	ebfffb45 	bl	d00207e8 <SDHC_IssueCommand>
d0021ad0:	e3500000 	cmp	r0, #0
d0021ad4:	0a000031 	beq	d0021ba0 <SDHC_WriteBlocks+0x1d0>
d0021ad8:	e59f30d0 	ldr	r3, [pc, #208]	; d0021bb0 <SDHC_WriteBlocks+0x1e0>
d0021adc:	e5933004 	ldr	r3, [r3, #4]
d0021ae0:	e2432002 	sub	r2, r3, #2
d0021ae4:	e3520001 	cmp	r2, #1
d0021ae8:	9a000012 	bls	d0021b38 <SDHC_WriteBlocks+0x168>
d0021aec:	e3530000 	cmp	r3, #0
d0021af0:	1a00000a 	bne	d0021b20 <SDHC_WriteBlocks+0x150>
d0021af4:	e59f30b4 	ldr	r3, [pc, #180]	; d0021bb0 <SDHC_WriteBlocks+0x1e0>
d0021af8:	e1d332b2 	ldrh	r3, [r3, #34]	; 0x22
d0021afc:	e3530000 	cmp	r3, #0
d0021b00:	0a00000c 	beq	d0021b38 <SDHC_WriteBlocks+0x168>
d0021b04:	e59f40a4 	ldr	r4, [pc, #164]	; d0021bb0 <SDHC_WriteBlocks+0x1e0>
d0021b08:	e5940028 	ldr	r0, [r4, #40]	; 0x28
d0021b0c:	ebfffb6e 	bl	d00208cc <SDHC_WriteOneBlock>
d0021b10:	e1d432b2 	ldrh	r3, [r4, #34]	; 0x22
d0021b14:	e3530000 	cmp	r3, #0
d0021b18:	1afffffa 	bne	d0021b08 <SDHC_WriteBlocks+0x138>
d0021b1c:	ea000005 	b	d0021b38 <SDHC_WriteBlocks+0x168>
d0021b20:	e3530001 	cmp	r3, #1
d0021b24:	1a000003 	bne	d0021b38 <SDHC_WriteBlocks+0x168>
d0021b28:	e59f3080 	ldr	r3, [pc, #128]	; d0021bb0 <SDHC_WriteBlocks+0x1e0>
d0021b2c:	e1d332b2 	ldrh	r3, [r3, #34]	; 0x22
d0021b30:	e3530000 	cmp	r3, #0
d0021b34:	1a00001c 	bne	d0021bac <SDHC_WriteBlocks+0x1dc>
d0021b38:	e59f3070 	ldr	r3, [pc, #112]	; d0021bb0 <SDHC_WriteBlocks+0x1e0>
d0021b3c:	e5931000 	ldr	r1, [r3]
d0021b40:	e2811030 	add	r1, r1, #48	; 0x30
d0021b44:	e3a0347f 	mov	r3, #2130706432	; 0x7f000000
d0021b48:	ea000001 	b	d0021b54 <SDHC_WriteBlocks+0x184>
d0021b4c:	e2533001 	subs	r3, r3, #1
d0021b50:	0a000002 	beq	d0021b60 <SDHC_WriteBlocks+0x190>
d0021b54:	e1d120b0 	ldrh	r2, [r1]
d0021b58:	e3120002 	tst	r2, #2
d0021b5c:	0afffffa 	beq	d0021b4c <SDHC_WriteBlocks+0x17c>
d0021b60:	e59f3048 	ldr	r3, [pc, #72]	; d0021bb0 <SDHC_WriteBlocks+0x1e0>
d0021b64:	e3a01002 	mov	r1, #2
d0021b68:	e5932000 	ldr	r2, [r3]
d0021b6c:	e1c213b0 	strh	r1, [r2, #48]	; 0x30
d0021b70:	e5932000 	ldr	r2, [r3]
d0021b74:	e1d223b0 	ldrh	r2, [r2, #48]	; 0x30
d0021b78:	e3120002 	tst	r2, #2
d0021b7c:	1afffff9 	bne	d0021b68 <SDHC_WriteBlocks+0x198>
d0021b80:	e3a00000 	mov	r0, #0
d0021b84:	e59f3024 	ldr	r3, [pc, #36]	; d0021bb0 <SDHC_WriteBlocks+0x1e0>
d0021b88:	e1c302b2 	strh	r0, [r3, #34]	; 0x22
d0021b8c:	ea000004 	b	d0021ba4 <SDHC_WriteBlocks+0x1d4>
d0021b90:	e3a00003 	mov	r0, #3
d0021b94:	ea000002 	b	d0021ba4 <SDHC_WriteBlocks+0x1d4>
d0021b98:	e3a00004 	mov	r0, #4
d0021b9c:	ea000000 	b	d0021ba4 <SDHC_WriteBlocks+0x1d4>
d0021ba0:	e3a00005 	mov	r0, #5
d0021ba4:	e28dd008 	add	sp, sp, #8
d0021ba8:	e8bd8070 	pop	{r4, r5, r6, pc}
d0021bac:	eafffffe 	b	d0021bac <SDHC_WriteBlocks+0x1dc>
d0021bb0:	d0029df4 	.word	0xd0029df4

d0021bb4 <SDHC_CloseMedia>:
d0021bb4:	e92d4008 	push	{r3, lr}
d0021bb8:	e3a00000 	mov	r0, #0
d0021bbc:	e59f1004 	ldr	r1, [pc, #4]	; d0021bc8 <SDHC_CloseMedia+0x14>
d0021bc0:	ebfffb7c 	bl	d00209b8 <SDHC_SetSdClockOnOff>
d0021bc4:	e8bd8008 	pop	{r3, pc}
d0021bc8:	d0029df4 	.word	0xd0029df4

d0021bcc <putchar>:
d0021bcc:	e92d4010 	push	{r4, lr}
d0021bd0:	e1a04000 	mov	r4, r0
d0021bd4:	e350000a 	cmp	r0, #10
d0021bd8:	1a000002 	bne	d0021be8 <putchar+0x1c>
d0021bdc:	e3a0000d 	mov	r0, #13
d0021be0:	eb000051 	bl	d0021d2c <uart_putchar>
d0021be4:	ea000005 	b	d0021c00 <putchar+0x34>
d0021be8:	e3500008 	cmp	r0, #8
d0021bec:	1a000003 	bne	d0021c00 <putchar+0x34>
d0021bf0:	e3a00008 	mov	r0, #8
d0021bf4:	eb00004c 	bl	d0021d2c <uart_putchar>
d0021bf8:	e3a00020 	mov	r0, #32
d0021bfc:	eb00004a 	bl	d0021d2c <uart_putchar>
d0021c00:	e6ef0074 	uxtb	r0, r4
d0021c04:	eb000048 	bl	d0021d2c <uart_putchar>
d0021c08:	e1a00004 	mov	r0, r4
d0021c0c:	e8bd8010 	pop	{r4, pc}

d0021c10 <getchar>:
d0021c10:	e92d4008 	push	{r3, lr}
d0021c14:	eb00003c 	bl	d0021d0c <uart_getchar>
d0021c18:	e350000d 	cmp	r0, #13
d0021c1c:	03a0000a 	moveq	r0, #10
d0021c20:	e8bd8008 	pop	{r3, pc}

d0021c24 <puts>:
d0021c24:	e92d4010 	push	{r4, lr}
d0021c28:	e1a04000 	mov	r4, r0
d0021c2c:	e5d00000 	ldrb	r0, [r0]
d0021c30:	e3500000 	cmp	r0, #0
d0021c34:	0a000003 	beq	d0021c48 <puts+0x24>
d0021c38:	ebffffe3 	bl	d0021bcc <putchar>
d0021c3c:	e5f40001 	ldrb	r0, [r4, #1]!
d0021c40:	e3500000 	cmp	r0, #0
d0021c44:	1afffffb 	bne	d0021c38 <puts+0x14>
d0021c48:	e3a0000a 	mov	r0, #10
d0021c4c:	ebffffde 	bl	d0021bcc <putchar>
d0021c50:	e3a00000 	mov	r0, #0
d0021c54:	e8bd8010 	pop	{r4, pc}

d0021c58 <gets>:
d0021c58:	e92d4070 	push	{r4, r5, r6, lr}
d0021c5c:	e1a05000 	mov	r5, r0
d0021c60:	e1a04000 	mov	r4, r0
d0021c64:	e3a06008 	mov	r6, #8
d0021c68:	ea000009 	b	d0021c94 <gets+0x3c>
d0021c6c:	e3500008 	cmp	r0, #8
d0021c70:	0a000002 	beq	d0021c80 <gets+0x28>
d0021c74:	e2844001 	add	r4, r4, #1
d0021c78:	ebffffd3 	bl	d0021bcc <putchar>
d0021c7c:	ea000004 	b	d0021c94 <gets+0x3c>
d0021c80:	e1540005 	cmp	r4, r5
d0021c84:	9a000002 	bls	d0021c94 <gets+0x3c>
d0021c88:	e2444001 	sub	r4, r4, #1
d0021c8c:	e1a00006 	mov	r0, r6
d0021c90:	ebffffcd 	bl	d0021bcc <putchar>
d0021c94:	ebffffdd 	bl	d0021c10 <getchar>
d0021c98:	e6ef0070 	uxtb	r0, r0
d0021c9c:	e5c40000 	strb	r0, [r4]
d0021ca0:	e350000a 	cmp	r0, #10
d0021ca4:	1afffff0 	bne	d0021c6c <gets+0x14>
d0021ca8:	e3a03000 	mov	r3, #0
d0021cac:	e5c43000 	strb	r3, [r4]
d0021cb0:	ebffffc5 	bl	d0021bcc <putchar>
d0021cb4:	e1a00005 	mov	r0, r5
d0021cb8:	e8bd8070 	pop	{r4, r5, r6, pc}

d0021cbc <uart_init>:
d0021cbc:	e59f303c 	ldr	r3, [pc, #60]	; d0021d00 <uart_init+0x44>
d0021cc0:	e5932000 	ldr	r2, [r3]
d0021cc4:	e3c220ff 	bic	r2, r2, #255	; 0xff
d0021cc8:	e5832000 	str	r2, [r3]
d0021ccc:	e5932000 	ldr	r2, [r3]
d0021cd0:	e3822022 	orr	r2, r2, #34	; 0x22
d0021cd4:	e5832000 	str	r2, [r3]
d0021cd8:	e2833627 	add	r3, r3, #40894464	; 0x2700000
d0021cdc:	e3a02003 	mov	r2, #3
d0021ce0:	e5832000 	str	r2, [r3]
d0021ce4:	e59f2018 	ldr	r2, [pc, #24]	; d0021d04 <uart_init+0x48>
d0021ce8:	e5832004 	str	r2, [r3, #4]
d0021cec:	e3a02023 	mov	r2, #35	; 0x23
d0021cf0:	e5832028 	str	r2, [r3, #40]	; 0x28
d0021cf4:	e59f200c 	ldr	r2, [pc, #12]	; d0021d08 <uart_init+0x4c>
d0021cf8:	e583202c 	str	r2, [r3, #44]	; 0x2c
d0021cfc:	e12fff1e 	bx	lr
d0021d00:	e0200000 	.word	0xe0200000
d0021d04:	00000245 	.word	0x00000245
d0021d08:	00000808 	.word	0x00000808

d0021d0c <uart_getchar>:
d0021d0c:	e59f2014 	ldr	r2, [pc, #20]	; d0021d28 <uart_getchar+0x1c>
d0021d10:	e5923010 	ldr	r3, [r2, #16]
d0021d14:	e3130001 	tst	r3, #1
d0021d18:	0afffffc 	beq	d0021d10 <uart_getchar+0x4>
d0021d1c:	e59f3004 	ldr	r3, [pc, #4]	; d0021d28 <uart_getchar+0x1c>
d0021d20:	e5d30024 	ldrb	r0, [r3, #36]	; 0x24
d0021d24:	e12fff1e 	bx	lr
d0021d28:	e2900000 	.word	0xe2900000

d0021d2c <uart_putchar>:
d0021d2c:	e59f2014 	ldr	r2, [pc, #20]	; d0021d48 <uart_putchar+0x1c>
d0021d30:	e5923010 	ldr	r3, [r2, #16]
d0021d34:	e3130004 	tst	r3, #4
d0021d38:	0afffffc 	beq	d0021d30 <uart_putchar+0x4>
d0021d3c:	e59f3004 	ldr	r3, [pc, #4]	; d0021d48 <uart_putchar+0x1c>
d0021d40:	e5c30020 	strb	r0, [r3, #32]
d0021d44:	e12fff1e 	bx	lr
d0021d48:	e2900000 	.word	0xe2900000

b-superboot-demo.elf:     file format elf32-littlearm

Contents of section .rodata:
 d0021d4c 30313233 34353637 38394142 43444546  0123456789ABCDEF
 d0021d5c 00000000 75617274 206f6b00 73646863  ....uart ok.sdhc
 d0021d6c 206f6b00 72656164 206f6b00 6a756d70   ok.read ok.jump
 d0021d7c 206e6f77 00000000 001a1b09 02021a1a   now............
 d0021d8c 1a000000 53444843 5f496e74 65727275  ....SDHC_Interru
 d0021d9c 70744861 6e646c65 720a0000 53444843  ptHandler...SDHC
 d0021dac 5f536574 53644361 72645370 6565644d  _SetSdCardSpeedM
 d0021dbc 6f64650a 00000000 434d4436 20666169  ode.....CMD6 fai
 d0021dcc 6c0a0000 696e6974 20534448 435f5365  l...init SDHC_Se
 d0021ddc 74536443 61726453 70656564 4d6f6465  tSdCardSpeedMode
 d0021dec 20666169 6c0a0000                     fail...        

Disassembly of section .rodata:

d0021d4c <SDHC_cmd_sfr_data-0x38>:
d0021d4c:	33323130 	.word	0x33323130
d0021d50:	37363534 	.word	0x37363534
d0021d54:	42413938 	.word	0x42413938
d0021d58:	46454443 	.word	0x46454443
d0021d5c:	00000000 	.word	0x00000000
d0021d60:	74726175 	.word	0x74726175
d0021d64:	006b6f20 	.word	0x006b6f20
d0021d68:	63686473 	.word	0x63686473
d0021d6c:	006b6f20 	.word	0x006b6f20
d0021d70:	64616572 	.word	0x64616572
d0021d74:	006b6f20 	.word	0x006b6f20
d0021d78:	706d756a 	.word	0x706d756a
d0021d7c:	776f6e20 	.word	0x776f6e20
d0021d80:	00000000 	.word	0x00000000

d0021d84 <SDHC_cmd_sfr_data>:
d0021d84:	091b1a00 1a1a0202 0000001a 43484453     ............SDHC
d0021d94:	746e495f 75727265 61487470 656c646e     _InterruptHandle
d0021da4:	00000a72 43484453 7465535f 61436453     r...SDHC_SetSdCa
d0021db4:	70536472 4d646565 0a65646f 00000000     rdSpeedMode.....
d0021dc4:	36444d43 69616620 00000a6c 74696e69     CMD6 fail...init
d0021dd4:	48445320 65535f43 43645374 53647261      SDHC_SetSdCardS
d0021de4:	64656570 65646f4d 69616620 00000a6c     peedMode fail...
