
aprj2-dpf-timer.elf:     file format elf32-littlearm


Disassembly of section .text:

21000000 <_start>:
21000000:	e3a00053 	mov	r0, #83	; 0x53
21000004:	e12ff000 	msr	CPSR_fsxc, r0
21000008:	e92d4000 	push	{lr}
2100000c:	eb000ffe 	bl	2100400c <mymain>
21000010:	e8bd8000 	pop	{pc}

21000014 <asm_IRQ_handler>:
21000014:	e59fd00c 	ldr	sp, [pc, #12]	; 21000028 <asm_IRQ_handler+0x14>
21000018:	e24ee004 	sub	lr, lr, #4
2100001c:	e92d5ffe 	push	{r1, r2, r3, r4, r5, r6, r7, r8, r9, sl, fp, ip, lr}
21000020:	eb001c14 	bl	21007078 <C_IRQ_handler>
21000024:	e8fd9ffe 	ldm	sp!, {r1, r2, r3, r4, r5, r6, r7, r8, r9, sl, fp, ip, pc}^
21000028:	d0034000 	.word	0xd0034000

2100002c <IIS_init>:
2100002c:	e52db004 	push	{fp}		; (str fp, [sp, #-4]!)
21000030:	e28db000 	add	fp, sp, #0
21000034:	e24dd00c 	sub	sp, sp, #12
21000038:	e59f307c 	ldr	r3, [pc, #124]	; 210000bc <IIS_init+0x90>
2100003c:	e59f207c 	ldr	r2, [pc, #124]	; 210000c0 <IIS_init+0x94>
21000040:	e5832000 	str	r2, [r3]
21000044:	e59f3078 	ldr	r3, [pc, #120]	; 210000c4 <IIS_init+0x98>
21000048:	e59f2078 	ldr	r2, [pc, #120]	; 210000c8 <IIS_init+0x9c>
2100004c:	e5832000 	str	r2, [r3]
21000050:	e59f3074 	ldr	r3, [pc, #116]	; 210000cc <IIS_init+0xa0>
21000054:	e59f2074 	ldr	r2, [pc, #116]	; 210000d0 <IIS_init+0xa4>
21000058:	e5832000 	str	r2, [r3]
2100005c:	e59f3070 	ldr	r3, [pc, #112]	; 210000d4 <IIS_init+0xa8>
21000060:	e59f2070 	ldr	r2, [pc, #112]	; 210000d8 <IIS_init+0xac>
21000064:	e5832000 	str	r2, [r3]
21000068:	e59f306c 	ldr	r3, [pc, #108]	; 210000dc <IIS_init+0xb0>
2100006c:	e3a02001 	mov	r2, #1
21000070:	e5832000 	str	r2, [r3]
21000074:	e3a03005 	mov	r3, #5
21000078:	e50b3008 	str	r3, [fp, #-8]
2100007c:	e59f305c 	ldr	r3, [pc, #92]	; 210000e0 <IIS_init+0xb4>
21000080:	e51b2008 	ldr	r2, [fp, #-8]
21000084:	e1a02402 	lsl	r2, r2, #8
21000088:	e3822902 	orr	r2, r2, #32768	; 0x8000
2100008c:	e5832000 	str	r2, [r3]
21000090:	e59f304c 	ldr	r3, [pc, #76]	; 210000e4 <IIS_init+0xb8>
21000094:	e59f2048 	ldr	r2, [pc, #72]	; 210000e4 <IIS_init+0xb8>
21000098:	e5922000 	ldr	r2, [r2]
2100009c:	e3822106 	orr	r2, r2, #-2147483647	; 0x80000001
210000a0:	e5832000 	str	r2, [r3]
210000a4:	e59f303c 	ldr	r3, [pc, #60]	; 210000e8 <IIS_init+0xbc>
210000a8:	e3a02c06 	mov	r2, #1536	; 0x600
210000ac:	e5832000 	str	r2, [r3]
210000b0:	e28bd000 	add	sp, fp, #0
210000b4:	e8bd0800 	pop	{fp}
210000b8:	e12fff1e 	bx	lr
210000bc:	e0200220 	.word	0xe0200220
210000c0:	22222222 	.word	0x22222222
210000c4:	e0100110 	.word	0xe0100110
210000c8:	a8430303 	.word	0xa8430303
210000cc:	e0100114 	.word	0xe0100114
210000d0:	0000bcee 	.word	0x0000bcee
210000d4:	e0100200 	.word	0xe0100200
210000d8:	10001111 	.word	0x10001111
210000dc:	eee10000 	.word	0xeee10000
210000e0:	eee3000c 	.word	0xeee3000c
210000e4:	eee30000 	.word	0xeee30000
210000e8:	eee30004 	.word	0xeee30004

210000ec <IIC_write>:
210000ec:	e52db004 	push	{fp}		; (str fp, [sp, #-4]!)
210000f0:	e28db000 	add	fp, sp, #0
210000f4:	e24dd014 	sub	sp, sp, #20
210000f8:	e50b0008 	str	r0, [fp, #-8]
210000fc:	e50b100c 	str	r1, [fp, #-12]
21000100:	e50b2010 	str	r2, [fp, #-16]
21000104:	e59f3118 	ldr	r3, [pc, #280]	; 21000224 <IIC_write+0x138>
21000108:	e51b2008 	ldr	r2, [fp, #-8]
2100010c:	e5832000 	str	r2, [r3]
21000110:	e59f3110 	ldr	r3, [pc, #272]	; 21000228 <IIC_write+0x13c>
21000114:	e3a020f0 	mov	r2, #240	; 0xf0
21000118:	e5832000 	str	r2, [r3]
2100011c:	e1a00000 	nop			; (mov r0, r0)
21000120:	e59f3104 	ldr	r3, [pc, #260]	; 2100022c <IIC_write+0x140>
21000124:	e5933000 	ldr	r3, [r3]
21000128:	e2033010 	and	r3, r3, #16
2100012c:	e3530000 	cmp	r3, #0
21000130:	0afffffa 	beq	21000120 <IIC_write+0x34>
21000134:	e1a00000 	nop			; (mov r0, r0)
21000138:	e59f30e8 	ldr	r3, [pc, #232]	; 21000228 <IIC_write+0x13c>
2100013c:	e5933000 	ldr	r3, [r3]
21000140:	e2033001 	and	r3, r3, #1
21000144:	e6ef3073 	uxtb	r3, r3
21000148:	e3530000 	cmp	r3, #0
2100014c:	1afffff9 	bne	21000138 <IIC_write+0x4c>
21000150:	e59f30cc 	ldr	r3, [pc, #204]	; 21000224 <IIC_write+0x138>
21000154:	e51b200c 	ldr	r2, [fp, #-12]
21000158:	e1a01082 	lsl	r1, r2, #1
2100015c:	e51b2010 	ldr	r2, [fp, #-16]
21000160:	e1a02442 	asr	r2, r2, #8
21000164:	e2022001 	and	r2, r2, #1
21000168:	e1812002 	orr	r2, r1, r2
2100016c:	e5832000 	str	r2, [r3]
21000170:	e59f30b4 	ldr	r3, [pc, #180]	; 2100022c <IIC_write+0x140>
21000174:	e3a020af 	mov	r2, #175	; 0xaf
21000178:	e5832000 	str	r2, [r3]
2100017c:	e1a00000 	nop			; (mov r0, r0)
21000180:	e59f30a4 	ldr	r3, [pc, #164]	; 2100022c <IIC_write+0x140>
21000184:	e5933000 	ldr	r3, [r3]
21000188:	e2033010 	and	r3, r3, #16
2100018c:	e3530000 	cmp	r3, #0
21000190:	0afffffa 	beq	21000180 <IIC_write+0x94>
21000194:	e1a00000 	nop			; (mov r0, r0)
21000198:	e59f3088 	ldr	r3, [pc, #136]	; 21000228 <IIC_write+0x13c>
2100019c:	e5933000 	ldr	r3, [r3]
210001a0:	e2033001 	and	r3, r3, #1
210001a4:	e6ef3073 	uxtb	r3, r3
210001a8:	e3530000 	cmp	r3, #0
210001ac:	1afffff9 	bne	21000198 <IIC_write+0xac>
210001b0:	e59f306c 	ldr	r3, [pc, #108]	; 21000224 <IIC_write+0x138>
210001b4:	e51b2010 	ldr	r2, [fp, #-16]
210001b8:	e20220ff 	and	r2, r2, #255	; 0xff
210001bc:	e5832000 	str	r2, [r3]
210001c0:	e59f3064 	ldr	r3, [pc, #100]	; 2100022c <IIC_write+0x140>
210001c4:	e3a020af 	mov	r2, #175	; 0xaf
210001c8:	e5832000 	str	r2, [r3]
210001cc:	e1a00000 	nop			; (mov r0, r0)
210001d0:	e59f3054 	ldr	r3, [pc, #84]	; 2100022c <IIC_write+0x140>
210001d4:	e5933000 	ldr	r3, [r3]
210001d8:	e2033010 	and	r3, r3, #16
210001dc:	e3530000 	cmp	r3, #0
210001e0:	0afffffa 	beq	210001d0 <IIC_write+0xe4>
210001e4:	e1a00000 	nop			; (mov r0, r0)
210001e8:	e59f3038 	ldr	r3, [pc, #56]	; 21000228 <IIC_write+0x13c>
210001ec:	e5933000 	ldr	r3, [r3]
210001f0:	e2033001 	and	r3, r3, #1
210001f4:	e6ef3073 	uxtb	r3, r3
210001f8:	e3530000 	cmp	r3, #0
210001fc:	1afffff9 	bne	210001e8 <IIC_write+0xfc>
21000200:	e59f3020 	ldr	r3, [pc, #32]	; 21000228 <IIC_write+0x13c>
21000204:	e3a020d0 	mov	r2, #208	; 0xd0
21000208:	e5832000 	str	r2, [r3]
2100020c:	e59f3018 	ldr	r3, [pc, #24]	; 2100022c <IIC_write+0x140>
21000210:	e3a020af 	mov	r2, #175	; 0xaf
21000214:	e5832000 	str	r2, [r3]
21000218:	e28bd000 	add	sp, fp, #0
2100021c:	e8bd0800 	pop	{fp}
21000220:	e12fff1e 	bx	lr
21000224:	e180000c 	.word	0xe180000c
21000228:	e1800004 	.word	0xe1800004
2100022c:	e1800000 	.word	0xe1800000

21000230 <IIC_init>:
21000230:	e52db004 	push	{fp}		; (str fp, [sp, #-4]!)
21000234:	e28db000 	add	fp, sp, #0
21000238:	e59f3044 	ldr	r3, [pc, #68]	; 21000284 <IIC_init+0x54>
2100023c:	e59f2040 	ldr	r2, [pc, #64]	; 21000284 <IIC_init+0x54>
21000240:	e5922000 	ldr	r2, [r2]
21000244:	e3822022 	orr	r2, r2, #34	; 0x22
21000248:	e5832000 	str	r2, [r3]
2100024c:	e59f3034 	ldr	r3, [pc, #52]	; 21000288 <IIC_init+0x58>
21000250:	e59f2030 	ldr	r2, [pc, #48]	; 21000288 <IIC_init+0x58>
21000254:	e5922000 	ldr	r2, [r2]
21000258:	e3822005 	orr	r2, r2, #5
2100025c:	e5832000 	str	r2, [r3]
21000260:	e59f3024 	ldr	r3, [pc, #36]	; 2100028c <IIC_init+0x5c>
21000264:	e3a020af 	mov	r2, #175	; 0xaf
21000268:	e5832000 	str	r2, [r3]
2100026c:	e59f301c 	ldr	r3, [pc, #28]	; 21000290 <IIC_init+0x60>
21000270:	e3a02010 	mov	r2, #16
21000274:	e5832000 	str	r2, [r3]
21000278:	e28bd000 	add	sp, fp, #0
2100027c:	e8bd0800 	pop	{fp}
21000280:	e12fff1e 	bx	lr
21000284:	e02000c0 	.word	0xe02000c0
21000288:	e02000c8 	.word	0xe02000c8
2100028c:	e1800000 	.word	0xe1800000
21000290:	e1800004 	.word	0xe1800004

21000294 <WM8960_init>:
21000294:	e92d4800 	push	{fp, lr}
21000298:	e28db004 	add	fp, sp, #4
2100029c:	e3a00034 	mov	r0, #52	; 0x34
210002a0:	e3a0100f 	mov	r1, #15
210002a4:	e3a02000 	mov	r2, #0
210002a8:	ebffff8f 	bl	210000ec <IIC_write>
210002ac:	e3a00034 	mov	r0, #52	; 0x34
210002b0:	e3a01019 	mov	r1, #25
210002b4:	e3a02d07 	mov	r2, #448	; 0x1c0
210002b8:	ebffff8b 	bl	210000ec <IIC_write>
210002bc:	e3a00034 	mov	r0, #52	; 0x34
210002c0:	e3a0101a 	mov	r1, #26
210002c4:	e3a02f7e 	mov	r2, #504	; 0x1f8
210002c8:	ebffff87 	bl	210000ec <IIC_write>
210002cc:	e3a00034 	mov	r0, #52	; 0x34
210002d0:	e3a0102f 	mov	r1, #47	; 0x2f
210002d4:	e3a0200c 	mov	r2, #12
210002d8:	ebffff83 	bl	210000ec <IIC_write>
210002dc:	e3a00034 	mov	r0, #52	; 0x34
210002e0:	e3a01004 	mov	r1, #4
210002e4:	e3a02000 	mov	r2, #0
210002e8:	ebffff7f 	bl	210000ec <IIC_write>
210002ec:	e3a00034 	mov	r0, #52	; 0x34
210002f0:	e3a01005 	mov	r1, #5
210002f4:	e3a02000 	mov	r2, #0
210002f8:	ebffff7b 	bl	210000ec <IIC_write>
210002fc:	e3a00034 	mov	r0, #52	; 0x34
21000300:	e3a01007 	mov	r1, #7
21000304:	e3a02002 	mov	r2, #2
21000308:	ebffff77 	bl	210000ec <IIC_write>
2100030c:	e3a00034 	mov	r0, #52	; 0x34
21000310:	e3a01002 	mov	r1, #2
21000314:	e59f2054 	ldr	r2, [pc, #84]	; 21000370 <WM8960_init+0xdc>
21000318:	ebffff73 	bl	210000ec <IIC_write>
2100031c:	e3a00034 	mov	r0, #52	; 0x34
21000320:	e3a01003 	mov	r1, #3
21000324:	e59f2044 	ldr	r2, [pc, #68]	; 21000370 <WM8960_init+0xdc>
21000328:	ebffff6f 	bl	210000ec <IIC_write>
2100032c:	e3a00034 	mov	r0, #52	; 0x34
21000330:	e3a0100a 	mov	r1, #10
21000334:	e59f2034 	ldr	r2, [pc, #52]	; 21000370 <WM8960_init+0xdc>
21000338:	ebffff6b 	bl	210000ec <IIC_write>
2100033c:	e3a00034 	mov	r0, #52	; 0x34
21000340:	e3a0100b 	mov	r1, #11
21000344:	e59f2024 	ldr	r2, [pc, #36]	; 21000370 <WM8960_init+0xdc>
21000348:	ebffff67 	bl	210000ec <IIC_write>
2100034c:	e3a00034 	mov	r0, #52	; 0x34
21000350:	e3a01022 	mov	r1, #34	; 0x22
21000354:	e3a02d06 	mov	r2, #384	; 0x180
21000358:	ebffff63 	bl	210000ec <IIC_write>
2100035c:	e3a00034 	mov	r0, #52	; 0x34
21000360:	e3a01025 	mov	r1, #37	; 0x25
21000364:	e3a02d06 	mov	r2, #384	; 0x180
21000368:	ebffff5f 	bl	210000ec <IIC_write>
2100036c:	e8bd8800 	pop	{fp, pc}
21000370:	000001ff 	.word	0x000001ff

21000374 <audio_play_wav>:
21000374:	e52db004 	push	{fp}		; (str fp, [sp, #-4]!)
21000378:	e28db000 	add	fp, sp, #0
2100037c:	e24dd014 	sub	sp, sp, #20
21000380:	e50b0010 	str	r0, [fp, #-16]
21000384:	e50b1014 	str	r1, [fp, #-20]
21000388:	e51b3010 	ldr	r3, [fp, #-16]
2100038c:	e50b300c 	str	r3, [fp, #-12]
21000390:	e3a0302e 	mov	r3, #46	; 0x2e
21000394:	e50b3008 	str	r3, [fp, #-8]
21000398:	e1a00000 	nop			; (mov r0, r0)
2100039c:	e59f3078 	ldr	r3, [pc, #120]	; 2100041c <audio_play_wav+0xa8>
210003a0:	e5933000 	ldr	r3, [r3]
210003a4:	e2033c01 	and	r3, r3, #256	; 0x100
210003a8:	e3530000 	cmp	r3, #0
210003ac:	1afffffa 	bne	2100039c <audio_play_wav+0x28>
210003b0:	e59f3068 	ldr	r3, [pc, #104]	; 21000420 <audio_play_wav+0xac>
210003b4:	e51b2008 	ldr	r2, [fp, #-8]
210003b8:	e1a02082 	lsl	r2, r2, #1
210003bc:	e51b100c 	ldr	r1, [fp, #-12]
210003c0:	e0812002 	add	r2, r1, r2
210003c4:	e1d220b0 	ldrh	r2, [r2]
210003c8:	e6bf2072 	sxth	r2, r2
210003cc:	e5832000 	str	r2, [r3]
210003d0:	e51b3008 	ldr	r3, [fp, #-8]
210003d4:	e2833001 	add	r3, r3, #1
210003d8:	e50b3008 	str	r3, [fp, #-8]
210003dc:	e51b3014 	ldr	r3, [fp, #-20]
210003e0:	e243302e 	sub	r3, r3, #46	; 0x2e
210003e4:	e1a02fa3 	lsr	r2, r3, #31
210003e8:	e0823003 	add	r3, r2, r3
210003ec:	e1a030c3 	asr	r3, r3, #1
210003f0:	e1a02003 	mov	r2, r3
210003f4:	e51b3008 	ldr	r3, [fp, #-8]
210003f8:	e1520003 	cmp	r2, r3
210003fc:	aa000004 	bge	21000414 <audio_play_wav+0xa0>
21000400:	e3a03000 	mov	r3, #0
21000404:	e1a00003 	mov	r0, r3
21000408:	e28bd000 	add	sp, fp, #0
2100040c:	e8bd0800 	pop	{fp}
21000410:	e12fff1e 	bx	lr
21000414:	e1a00000 	nop			; (mov r0, r0)
21000418:	eaffffdf 	b	2100039c <audio_play_wav+0x28>
2100041c:	eee30000 	.word	0xeee30000
21000420:	eee30010 	.word	0xeee30010

21000424 <debug>:
21000424:	e92d000f 	push	{r0, r1, r2, r3}
21000428:	e52db004 	push	{fp}		; (str fp, [sp, #-4]!)
2100042c:	e28db000 	add	fp, sp, #0
21000430:	e3a03000 	mov	r3, #0
21000434:	e1a00003 	mov	r0, r3
21000438:	e28bd000 	add	sp, fp, #0
2100043c:	e8bd0800 	pop	{fp}
21000440:	e28dd010 	add	sp, sp, #16
21000444:	e12fff1e 	bx	lr

21000448 <downcase>:
21000448:	e52db004 	push	{fp}		; (str fp, [sp, #-4]!)
2100044c:	e28db000 	add	fp, sp, #0
21000450:	e24dd00c 	sub	sp, sp, #12
21000454:	e50b0008 	str	r0, [fp, #-8]
21000458:	ea000010 	b	210004a0 <downcase+0x58>
2100045c:	e51b3008 	ldr	r3, [fp, #-8]
21000460:	e5d33000 	ldrb	r3, [r3]
21000464:	e3530040 	cmp	r3, #64	; 0x40
21000468:	9a000009 	bls	21000494 <downcase+0x4c>
2100046c:	e51b3008 	ldr	r3, [fp, #-8]
21000470:	e5d33000 	ldrb	r3, [r3]
21000474:	e353005a 	cmp	r3, #90	; 0x5a
21000478:	8a000005 	bhi	21000494 <downcase+0x4c>
2100047c:	e51b3008 	ldr	r3, [fp, #-8]
21000480:	e5d33000 	ldrb	r3, [r3]
21000484:	e2833020 	add	r3, r3, #32
21000488:	e6ef2073 	uxtb	r2, r3
2100048c:	e51b3008 	ldr	r3, [fp, #-8]
21000490:	e5c32000 	strb	r2, [r3]
21000494:	e51b3008 	ldr	r3, [fp, #-8]
21000498:	e2833001 	add	r3, r3, #1
2100049c:	e50b3008 	str	r3, [fp, #-8]
210004a0:	e51b3008 	ldr	r3, [fp, #-8]
210004a4:	e5d33000 	ldrb	r3, [r3]
210004a8:	e3530000 	cmp	r3, #0
210004ac:	1affffea 	bne	2100045c <downcase+0x14>
210004b0:	e28bd000 	add	sp, fp, #0
210004b4:	e8bd0800 	pop	{fp}
210004b8:	e12fff1e 	bx	lr

210004bc <disk_read>:
210004bc:	e92d4800 	push	{fp, lr}
210004c0:	e28db004 	add	fp, sp, #4
210004c4:	e24dd010 	sub	sp, sp, #16
210004c8:	e50b0008 	str	r0, [fp, #-8]
210004cc:	e50b100c 	str	r1, [fp, #-12]
210004d0:	e50b2010 	str	r2, [fp, #-16]
210004d4:	e59f3038 	ldr	r3, [pc, #56]	; 21000514 <disk_read+0x58>
210004d8:	e5933000 	ldr	r3, [r3]
210004dc:	e51b2008 	ldr	r2, [fp, #-8]
210004e0:	e0823003 	add	r3, r2, r3
210004e4:	e50b3008 	str	r3, [fp, #-8]
210004e8:	e51b300c 	ldr	r3, [fp, #-12]
210004ec:	e6ff2073 	uxth	r2, r3
210004f0:	e51b3010 	ldr	r3, [fp, #-16]
210004f4:	e51b0008 	ldr	r0, [fp, #-8]
210004f8:	e1a01002 	mov	r1, r2
210004fc:	e1a02003 	mov	r2, r3
21000500:	eb001582 	bl	21005b10 <SDHC_ReadBlocks>
21000504:	e3a03000 	mov	r3, #0
21000508:	e1a00003 	mov	r0, r3
2100050c:	e24bd004 	sub	sp, fp, #4
21000510:	e8bd8800 	pop	{fp, pc}
21000514:	21008004 	.word	0x21008004

21000518 <fat_register_device>:
21000518:	e92d4800 	push	{fp, lr}
2100051c:	e28db004 	add	fp, sp, #4
21000520:	e24ddf96 	sub	sp, sp, #600	; 0x258
21000524:	e50b0258 	str	r0, [fp, #-600]	; 0x258
21000528:	e50b125c 	str	r1, [fp, #-604]	; 0x25c
2100052c:	e51b3258 	ldr	r3, [fp, #-600]	; 0x258
21000530:	e5933060 	ldr	r3, [r3, #96]	; 0x60
21000534:	e3530000 	cmp	r3, #0
21000538:	1a000001 	bne	21000544 <fat_register_device+0x2c>
2100053c:	e3e03000 	mvn	r3, #0
21000540:	ea00004d 	b	2100067c <fat_register_device+0x164>
21000544:	e59f313c 	ldr	r3, [pc, #316]	; 21000688 <fat_register_device+0x170>
21000548:	e51b2258 	ldr	r2, [fp, #-600]	; 0x258
2100054c:	e5832000 	str	r2, [r3]
21000550:	e51b3258 	ldr	r3, [fp, #-600]	; 0x258
21000554:	e593c060 	ldr	ip, [r3, #96]	; 0x60
21000558:	e51b3258 	ldr	r3, [fp, #-600]	; 0x258
2100055c:	e5932004 	ldr	r2, [r3, #4]
21000560:	e24b3f81 	sub	r3, fp, #516	; 0x204
21000564:	e1a00002 	mov	r0, r2
21000568:	e3a01000 	mov	r1, #0
2100056c:	e3a02001 	mov	r2, #1
21000570:	e12fff3c 	blx	ip
21000574:	e1a03000 	mov	r3, r0
21000578:	e3530001 	cmp	r3, #1
2100057c:	0a000006 	beq	2100059c <fat_register_device+0x84>
21000580:	e51b3258 	ldr	r3, [fp, #-600]	; 0x258
21000584:	e5933004 	ldr	r3, [r3, #4]
21000588:	e59f00fc 	ldr	r0, [pc, #252]	; 2100068c <fat_register_device+0x174>
2100058c:	e1a01003 	mov	r1, r3
21000590:	eb000fd9 	bl	210044fc <printf>
21000594:	e3e03000 	mvn	r3, #0
21000598:	ea000037 	b	2100067c <fat_register_device+0x164>
2100059c:	e55b3006 	ldrb	r3, [fp, #-6]
210005a0:	e3530055 	cmp	r3, #85	; 0x55
210005a4:	1a000002 	bne	210005b4 <fat_register_device+0x9c>
210005a8:	e55b3005 	ldrb	r3, [fp, #-5]
210005ac:	e35300aa 	cmp	r3, #170	; 0xaa
210005b0:	0a000001 	beq	210005bc <fat_register_device+0xa4>
210005b4:	e3e03000 	mvn	r3, #0
210005b8:	ea00002f 	b	2100067c <fat_register_device+0x164>
210005bc:	e55b3006 	ldrb	r3, [fp, #-6]
210005c0:	e1a02003 	mov	r2, r3
210005c4:	e55b3005 	ldrb	r3, [fp, #-5]
210005c8:	e59f00c0 	ldr	r0, [pc, #192]	; 21000690 <fat_register_device+0x178>
210005cc:	e1a01002 	mov	r1, r2
210005d0:	e1a02003 	mov	r2, r3
210005d4:	eb000fc8 	bl	210044fc <printf>
210005d8:	e59f00b4 	ldr	r0, [pc, #180]	; 21000694 <fat_register_device+0x17c>
210005dc:	ebffff90 	bl	21000424 <debug>
210005e0:	e24b3f81 	sub	r3, fp, #516	; 0x204
210005e4:	e2832036 	add	r2, r3, #54	; 0x36
210005e8:	e24b3f81 	sub	r3, fp, #516	; 0x204
210005ec:	e2833052 	add	r3, r3, #82	; 0x52
210005f0:	e59f00a0 	ldr	r0, [pc, #160]	; 21000698 <fat_register_device+0x180>
210005f4:	e1a01002 	mov	r1, r2
210005f8:	e1a02003 	mov	r2, r3
210005fc:	eb000fbe 	bl	210044fc <printf>
21000600:	e59f0094 	ldr	r0, [pc, #148]	; 2100069c <fat_register_device+0x184>
21000604:	ebffff86 	bl	21000424 <debug>
21000608:	e59f3090 	ldr	r3, [pc, #144]	; 210006a0 <fat_register_device+0x188>
2100060c:	e3a02001 	mov	r2, #1
21000610:	e5832000 	str	r2, [r3]
21000614:	e55b303b 	ldrb	r3, [fp, #-59]	; 0x3b
21000618:	e1a02c03 	lsl	r2, r3, #24
2100061c:	e55b303c 	ldrb	r3, [fp, #-60]	; 0x3c
21000620:	e1a03803 	lsl	r3, r3, #16
21000624:	e1822003 	orr	r2, r2, r3
21000628:	e55b303d 	ldrb	r3, [fp, #-61]	; 0x3d
2100062c:	e1a03403 	lsl	r3, r3, #8
21000630:	e1822003 	orr	r2, r2, r3
21000634:	e55b303e 	ldrb	r3, [fp, #-62]	; 0x3e
21000638:	e1823003 	orr	r3, r2, r3
2100063c:	e1a02003 	mov	r2, r3
21000640:	e59f305c 	ldr	r3, [pc, #92]	; 210006a4 <fat_register_device+0x18c>
21000644:	e5832000 	str	r2, [r3]
21000648:	e59f3054 	ldr	r3, [pc, #84]	; 210006a4 <fat_register_device+0x18c>
2100064c:	e5933000 	ldr	r3, [r3]
21000650:	e50b3250 	str	r3, [fp, #-592]	; 0x250
21000654:	e59f3048 	ldr	r3, [pc, #72]	; 210006a4 <fat_register_device+0x18c>
21000658:	e5933000 	ldr	r3, [r3]
2100065c:	e59f0044 	ldr	r0, [pc, #68]	; 210006a8 <fat_register_device+0x190>
21000660:	e1a01003 	mov	r1, r3
21000664:	ebffff6e 	bl	21000424 <debug>
21000668:	e51b3250 	ldr	r3, [fp, #-592]	; 0x250
2100066c:	e59f0038 	ldr	r0, [pc, #56]	; 210006ac <fat_register_device+0x194>
21000670:	e1a01003 	mov	r1, r3
21000674:	ebffff6a 	bl	21000424 <debug>
21000678:	e3a03000 	mov	r3, #0
2100067c:	e1a00003 	mov	r0, r3
21000680:	e24bd004 	sub	sp, fp, #4
21000684:	e8bd8800 	pop	{fp, pc}
21000688:	21008000 	.word	0x21008000
2100068c:	210072d8 	.word	0x210072d8
21000690:	210072fc 	.word	0x210072fc
21000694:	2100731c 	.word	0x2100731c
21000698:	2100732c 	.word	0x2100732c
2100069c:	21007354 	.word	0x21007354
210006a0:	21008008 	.word	0x21008008
210006a4:	21008004 	.word	0x21008004
210006a8:	21007374 	.word	0x21007374
210006ac:	21007388 	.word	0x21007388

210006b0 <dirdelim>:
210006b0:	e52db004 	push	{fp}		; (str fp, [sp, #-4]!)
210006b4:	e28db000 	add	fp, sp, #0
210006b8:	e24dd014 	sub	sp, sp, #20
210006bc:	e50b0010 	str	r0, [fp, #-16]
210006c0:	e51b3010 	ldr	r3, [fp, #-16]
210006c4:	e50b3008 	str	r3, [fp, #-8]
210006c8:	ea00000e 	b	21000708 <dirdelim+0x58>
210006cc:	e51b3010 	ldr	r3, [fp, #-16]
210006d0:	e5d33000 	ldrb	r3, [r3]
210006d4:	e353002f 	cmp	r3, #47	; 0x2f
210006d8:	0a000003 	beq	210006ec <dirdelim+0x3c>
210006dc:	e51b3010 	ldr	r3, [fp, #-16]
210006e0:	e5d33000 	ldrb	r3, [r3]
210006e4:	e353005c 	cmp	r3, #92	; 0x5c
210006e8:	1a000003 	bne	210006fc <dirdelim+0x4c>
210006ec:	e51b2010 	ldr	r2, [fp, #-16]
210006f0:	e51b3008 	ldr	r3, [fp, #-8]
210006f4:	e0633002 	rsb	r3, r3, r2
210006f8:	ea000007 	b	2100071c <dirdelim+0x6c>
210006fc:	e51b3010 	ldr	r3, [fp, #-16]
21000700:	e2833001 	add	r3, r3, #1
21000704:	e50b3010 	str	r3, [fp, #-16]
21000708:	e51b3010 	ldr	r3, [fp, #-16]
2100070c:	e5d33000 	ldrb	r3, [r3]
21000710:	e3530000 	cmp	r3, #0
21000714:	1affffec 	bne	210006cc <dirdelim+0x1c>
21000718:	e3e03000 	mvn	r3, #0
2100071c:	e1a00003 	mov	r0, r3
21000720:	e28bd000 	add	sp, fp, #0
21000724:	e8bd0800 	pop	{fp}
21000728:	e12fff1e 	bx	lr

2100072c <get_name>:
2100072c:	e92d4800 	push	{fp, lr}
21000730:	e28db004 	add	fp, sp, #4
21000734:	e24dd010 	sub	sp, sp, #16
21000738:	e50b0010 	str	r0, [fp, #-16]
2100073c:	e50b1014 	str	r1, [fp, #-20]
21000740:	e51b3010 	ldr	r3, [fp, #-16]
21000744:	e51b0014 	ldr	r0, [fp, #-20]
21000748:	e1a01003 	mov	r1, r3
2100074c:	e3a02008 	mov	r2, #8
21000750:	eb000cd2 	bl	21003aa0 <memcpy>
21000754:	e51b3014 	ldr	r3, [fp, #-20]
21000758:	e2833008 	add	r3, r3, #8
2100075c:	e3a02000 	mov	r2, #0
21000760:	e5c32000 	strb	r2, [r3]
21000764:	e51b3014 	ldr	r3, [fp, #-20]
21000768:	e50b3008 	str	r3, [fp, #-8]
2100076c:	ea000002 	b	2100077c <get_name+0x50>
21000770:	e51b3008 	ldr	r3, [fp, #-8]
21000774:	e2833001 	add	r3, r3, #1
21000778:	e50b3008 	str	r3, [fp, #-8]
2100077c:	e51b3008 	ldr	r3, [fp, #-8]
21000780:	e5d33000 	ldrb	r3, [r3]
21000784:	e3530000 	cmp	r3, #0
21000788:	0a000003 	beq	2100079c <get_name+0x70>
2100078c:	e51b3008 	ldr	r3, [fp, #-8]
21000790:	e5d33000 	ldrb	r3, [r3]
21000794:	e3530020 	cmp	r3, #32
21000798:	1afffff4 	bne	21000770 <get_name+0x44>
2100079c:	e51b3010 	ldr	r3, [fp, #-16]
210007a0:	e5d33008 	ldrb	r3, [r3, #8]
210007a4:	e3530000 	cmp	r3, #0
210007a8:	0a00001f 	beq	2100082c <get_name+0x100>
210007ac:	e51b3010 	ldr	r3, [fp, #-16]
210007b0:	e5d33008 	ldrb	r3, [r3, #8]
210007b4:	e3530020 	cmp	r3, #32
210007b8:	0a00001b 	beq	2100082c <get_name+0x100>
210007bc:	e51b3008 	ldr	r3, [fp, #-8]
210007c0:	e3a0202e 	mov	r2, #46	; 0x2e
210007c4:	e5c32000 	strb	r2, [r3]
210007c8:	e51b3008 	ldr	r3, [fp, #-8]
210007cc:	e2833001 	add	r3, r3, #1
210007d0:	e50b3008 	str	r3, [fp, #-8]
210007d4:	e51b3010 	ldr	r3, [fp, #-16]
210007d8:	e2833008 	add	r3, r3, #8
210007dc:	e51b0008 	ldr	r0, [fp, #-8]
210007e0:	e1a01003 	mov	r1, r3
210007e4:	e3a02003 	mov	r2, #3
210007e8:	eb000cac 	bl	21003aa0 <memcpy>
210007ec:	e51b3008 	ldr	r3, [fp, #-8]
210007f0:	e2833003 	add	r3, r3, #3
210007f4:	e3a02000 	mov	r2, #0
210007f8:	e5c32000 	strb	r2, [r3]
210007fc:	ea000002 	b	2100080c <get_name+0xe0>
21000800:	e51b3008 	ldr	r3, [fp, #-8]
21000804:	e2833001 	add	r3, r3, #1
21000808:	e50b3008 	str	r3, [fp, #-8]
2100080c:	e51b3008 	ldr	r3, [fp, #-8]
21000810:	e5d33000 	ldrb	r3, [r3]
21000814:	e3530000 	cmp	r3, #0
21000818:	0a000003 	beq	2100082c <get_name+0x100>
2100081c:	e51b3008 	ldr	r3, [fp, #-8]
21000820:	e5d33000 	ldrb	r3, [r3]
21000824:	e3530020 	cmp	r3, #32
21000828:	1afffff4 	bne	21000800 <get_name+0xd4>
2100082c:	e51b3008 	ldr	r3, [fp, #-8]
21000830:	e3a02000 	mov	r2, #0
21000834:	e5c32000 	strb	r2, [r3]
21000838:	e51b3014 	ldr	r3, [fp, #-20]
2100083c:	e5d33000 	ldrb	r3, [r3]
21000840:	e35300e5 	cmp	r3, #229	; 0xe5
21000844:	1a000003 	bne	21000858 <get_name+0x12c>
21000848:	e51b3014 	ldr	r3, [fp, #-20]
2100084c:	e3a02000 	mov	r2, #0
21000850:	e5c32000 	strb	r2, [r3]
21000854:	ea000006 	b	21000874 <get_name+0x148>
21000858:	e51b3014 	ldr	r3, [fp, #-20]
2100085c:	e5d33000 	ldrb	r3, [r3]
21000860:	e3530005 	cmp	r3, #5
21000864:	1a000002 	bne	21000874 <get_name+0x148>
21000868:	e51b3014 	ldr	r3, [fp, #-20]
2100086c:	e3e0201a 	mvn	r2, #26
21000870:	e5c32000 	strb	r2, [r3]
21000874:	e51b0014 	ldr	r0, [fp, #-20]
21000878:	ebfffef2 	bl	21000448 <downcase>
2100087c:	e24bd004 	sub	sp, fp, #4
21000880:	e8bd8800 	pop	{fp, pc}

21000884 <get_fatent>:
21000884:	e92d4800 	push	{fp, lr}
21000888:	e28db004 	add	fp, sp, #4
2100088c:	e24dd038 	sub	sp, sp, #56	; 0x38
21000890:	e50b0030 	str	r0, [fp, #-48]	; 0x30
21000894:	e50b1034 	str	r1, [fp, #-52]	; 0x34
21000898:	e3a03000 	mov	r3, #0
2100089c:	e50b3010 	str	r3, [fp, #-16]
210008a0:	e51b3030 	ldr	r3, [fp, #-48]	; 0x30
210008a4:	e5933c00 	ldr	r3, [r3, #3072]	; 0xc00
210008a8:	e3530010 	cmp	r3, #16
210008ac:	0a000012 	beq	210008fc <get_fatent+0x78>
210008b0:	e3530020 	cmp	r3, #32
210008b4:	0a000002 	beq	210008c4 <get_fatent+0x40>
210008b8:	e353000c 	cmp	r3, #12
210008bc:	0a00001c 	beq	21000934 <get_fatent+0xb0>
210008c0:	ea000024 	b	21000958 <get_fatent+0xd4>
210008c4:	e51b2034 	ldr	r2, [fp, #-52]	; 0x34
210008c8:	e59f3388 	ldr	r3, [pc, #904]	; 21000c58 <get_fatent+0x3d4>
210008cc:	e0831293 	umull	r1, r3, r3, r2
210008d0:	e1a034a3 	lsr	r3, r3, #9
210008d4:	e50b3008 	str	r3, [fp, #-8]
210008d8:	e51b2008 	ldr	r2, [fp, #-8]
210008dc:	e1a03002 	mov	r3, r2
210008e0:	e1a03083 	lsl	r3, r3, #1
210008e4:	e0833002 	add	r3, r3, r2
210008e8:	e1a03403 	lsl	r3, r3, #8
210008ec:	e51b2034 	ldr	r2, [fp, #-52]	; 0x34
210008f0:	e0633002 	rsb	r3, r3, r2
210008f4:	e50b300c 	str	r3, [fp, #-12]
210008f8:	ea000018 	b	21000960 <get_fatent+0xdc>
210008fc:	e51b2034 	ldr	r2, [fp, #-52]	; 0x34
21000900:	e59f3350 	ldr	r3, [pc, #848]	; 21000c58 <get_fatent+0x3d4>
21000904:	e0831293 	umull	r1, r3, r3, r2
21000908:	e1a03523 	lsr	r3, r3, #10
2100090c:	e50b3008 	str	r3, [fp, #-8]
21000910:	e51b2008 	ldr	r2, [fp, #-8]
21000914:	e1a03002 	mov	r3, r2
21000918:	e1a03083 	lsl	r3, r3, #1
2100091c:	e0833002 	add	r3, r3, r2
21000920:	e1a03483 	lsl	r3, r3, #9
21000924:	e51b2034 	ldr	r2, [fp, #-52]	; 0x34
21000928:	e0633002 	rsb	r3, r3, r2
2100092c:	e50b300c 	str	r3, [fp, #-12]
21000930:	ea00000a 	b	21000960 <get_fatent+0xdc>
21000934:	e51b3034 	ldr	r3, [fp, #-52]	; 0x34
21000938:	e1a035a3 	lsr	r3, r3, #11
2100093c:	e50b3008 	str	r3, [fp, #-8]
21000940:	e51b3008 	ldr	r3, [fp, #-8]
21000944:	e1a03583 	lsl	r3, r3, #11
21000948:	e51b2034 	ldr	r2, [fp, #-52]	; 0x34
2100094c:	e0633002 	rsb	r3, r3, r2
21000950:	e50b300c 	str	r3, [fp, #-12]
21000954:	ea000001 	b	21000960 <get_fatent+0xdc>
21000958:	e51b3010 	ldr	r3, [fp, #-16]
2100095c:	ea0000ba 	b	21000c4c <get_fatent+0x3c8>
21000960:	e51b3030 	ldr	r3, [fp, #-48]	; 0x30
21000964:	e5933c00 	ldr	r3, [r3, #3072]	; 0xc00
21000968:	e51b200c 	ldr	r2, [fp, #-12]
2100096c:	e58d2000 	str	r2, [sp]
21000970:	e51b200c 	ldr	r2, [fp, #-12]
21000974:	e58d2004 	str	r2, [sp, #4]
21000978:	e59f02dc 	ldr	r0, [pc, #732]	; 21000c5c <get_fatent+0x3d8>
2100097c:	e1a01003 	mov	r1, r3
21000980:	e51b2034 	ldr	r2, [fp, #-52]	; 0x34
21000984:	e51b3034 	ldr	r3, [fp, #-52]	; 0x34
21000988:	ebfffea5 	bl	21000424 <debug>
2100098c:	e51b3030 	ldr	r3, [fp, #-48]	; 0x30
21000990:	e5933c10 	ldr	r3, [r3, #3088]	; 0xc10
21000994:	e1a02003 	mov	r2, r3
21000998:	e51b3008 	ldr	r3, [fp, #-8]
2100099c:	e1520003 	cmp	r2, r3
210009a0:	0a00002a 	beq	21000a50 <get_fatent+0x1cc>
210009a4:	e3a03006 	mov	r3, #6
210009a8:	e50b3014 	str	r3, [fp, #-20]
210009ac:	e51b3030 	ldr	r3, [fp, #-48]	; 0x30
210009b0:	e50b3018 	str	r3, [fp, #-24]
210009b4:	e51b2030 	ldr	r2, [fp, #-48]	; 0x30
210009b8:	e59f32a0 	ldr	r3, [pc, #672]	; 21000c60 <get_fatent+0x3dc>
210009bc:	e19230b3 	ldrh	r3, [r2, r3]
210009c0:	e50b301c 	str	r3, [fp, #-28]
210009c4:	e51b2008 	ldr	r2, [fp, #-8]
210009c8:	e1a03002 	mov	r3, r2
210009cc:	e1a03083 	lsl	r3, r3, #1
210009d0:	e0833002 	add	r3, r3, r2
210009d4:	e1a03083 	lsl	r3, r3, #1
210009d8:	e50b3020 	str	r3, [fp, #-32]
210009dc:	e51b301c 	ldr	r3, [fp, #-28]
210009e0:	e1a03483 	lsl	r3, r3, #9
210009e4:	e50b301c 	str	r3, [fp, #-28]
210009e8:	e51b2030 	ldr	r2, [fp, #-48]	; 0x30
210009ec:	e59f3270 	ldr	r3, [pc, #624]	; 21000c64 <get_fatent+0x3e0>
210009f0:	e19230b3 	ldrh	r3, [r2, r3]
210009f4:	e51b2020 	ldr	r2, [fp, #-32]
210009f8:	e0823003 	add	r3, r2, r3
210009fc:	e50b3020 	str	r3, [fp, #-32]
21000a00:	e51b2014 	ldr	r2, [fp, #-20]
21000a04:	e51b301c 	ldr	r3, [fp, #-28]
21000a08:	e1520003 	cmp	r2, r3
21000a0c:	9a000001 	bls	21000a18 <get_fatent+0x194>
21000a10:	e51b301c 	ldr	r3, [fp, #-28]
21000a14:	e50b3014 	str	r3, [fp, #-20]
21000a18:	e51b0020 	ldr	r0, [fp, #-32]
21000a1c:	e51b1014 	ldr	r1, [fp, #-20]
21000a20:	e51b2018 	ldr	r2, [fp, #-24]
21000a24:	ebfffea4 	bl	210004bc <disk_read>
21000a28:	e1a03000 	mov	r3, r0
21000a2c:	e3530000 	cmp	r3, #0
21000a30:	aa000003 	bge	21000a44 <get_fatent+0x1c0>
21000a34:	e59f022c 	ldr	r0, [pc, #556]	; 21000c68 <get_fatent+0x3e4>
21000a38:	ebfffe79 	bl	21000424 <debug>
21000a3c:	e51b3010 	ldr	r3, [fp, #-16]
21000a40:	ea000081 	b	21000c4c <get_fatent+0x3c8>
21000a44:	e51b2008 	ldr	r2, [fp, #-8]
21000a48:	e51b3030 	ldr	r3, [fp, #-48]	; 0x30
21000a4c:	e5832c10 	str	r2, [r3, #3088]	; 0xc10
21000a50:	e51b3030 	ldr	r3, [fp, #-48]	; 0x30
21000a54:	e5933c00 	ldr	r3, [r3, #3072]	; 0xc00
21000a58:	e3530010 	cmp	r3, #16
21000a5c:	0a00000c 	beq	21000a94 <get_fatent+0x210>
21000a60:	e3530020 	cmp	r3, #32
21000a64:	0a000002 	beq	21000a74 <get_fatent+0x1f0>
21000a68:	e353000c 	cmp	r3, #12
21000a6c:	0a000010 	beq	21000ab4 <get_fatent+0x230>
21000a70:	ea000074 	b	21000c48 <get_fatent+0x3c4>
21000a74:	e51b3030 	ldr	r3, [fp, #-48]	; 0x30
21000a78:	e1a02003 	mov	r2, r3
21000a7c:	e51b300c 	ldr	r3, [fp, #-12]
21000a80:	e1a03103 	lsl	r3, r3, #2
21000a84:	e0823003 	add	r3, r2, r3
21000a88:	e5933000 	ldr	r3, [r3]
21000a8c:	e50b3010 	str	r3, [fp, #-16]
21000a90:	ea00006c 	b	21000c48 <get_fatent+0x3c4>
21000a94:	e51b3030 	ldr	r3, [fp, #-48]	; 0x30
21000a98:	e1a02003 	mov	r2, r3
21000a9c:	e51b300c 	ldr	r3, [fp, #-12]
21000aa0:	e1a03083 	lsl	r3, r3, #1
21000aa4:	e0823003 	add	r3, r2, r3
21000aa8:	e1d330b0 	ldrh	r3, [r3]
21000aac:	e50b3010 	str	r3, [fp, #-16]
21000ab0:	ea000064 	b	21000c48 <get_fatent+0x3c4>
21000ab4:	e51b200c 	ldr	r2, [fp, #-12]
21000ab8:	e1a03002 	mov	r3, r2
21000abc:	e1a03083 	lsl	r3, r3, #1
21000ac0:	e0833002 	add	r3, r3, r2
21000ac4:	e1a03123 	lsr	r3, r3, #2
21000ac8:	e50b3024 	str	r3, [fp, #-36]	; 0x24
21000acc:	e51b300c 	ldr	r3, [fp, #-12]
21000ad0:	e2033003 	and	r3, r3, #3
21000ad4:	e3530003 	cmp	r3, #3
21000ad8:	979ff103 	ldrls	pc, [pc, r3, lsl #2]
21000adc:	ea000057 	b	21000c40 <get_fatent+0x3bc>
21000ae0:	21000af0 	.word	0x21000af0
21000ae4:	21000b20 	.word	0x21000b20
21000ae8:	21000b98 	.word	0x21000b98
21000aec:	21000c0c 	.word	0x21000c0c
21000af0:	e51b3030 	ldr	r3, [fp, #-48]	; 0x30
21000af4:	e1a02003 	mov	r2, r3
21000af8:	e51b3024 	ldr	r3, [fp, #-36]	; 0x24
21000afc:	e1a03083 	lsl	r3, r3, #1
21000b00:	e0823003 	add	r3, r2, r3
21000b04:	e1d330b0 	ldrh	r3, [r3]
21000b08:	e50b3010 	str	r3, [fp, #-16]
21000b0c:	e51b3010 	ldr	r3, [fp, #-16]
21000b10:	e1a03a03 	lsl	r3, r3, #20
21000b14:	e1a03a23 	lsr	r3, r3, #20
21000b18:	e50b3010 	str	r3, [fp, #-16]
21000b1c:	ea000048 	b	21000c44 <get_fatent+0x3c0>
21000b20:	e51b3030 	ldr	r3, [fp, #-48]	; 0x30
21000b24:	e1a02003 	mov	r2, r3
21000b28:	e51b3024 	ldr	r3, [fp, #-36]	; 0x24
21000b2c:	e1a03083 	lsl	r3, r3, #1
21000b30:	e0823003 	add	r3, r2, r3
21000b34:	e1d330b0 	ldrh	r3, [r3]
21000b38:	e14b32b6 	strh	r3, [fp, #-38]	; 0xffffffda
21000b3c:	e15b32b6 	ldrh	r3, [fp, #-38]	; 0xffffffda
21000b40:	e3c33eff 	bic	r3, r3, #4080	; 0xff0
21000b44:	e3c3300f 	bic	r3, r3, #15
21000b48:	e14b32b6 	strh	r3, [fp, #-38]	; 0xffffffda
21000b4c:	e51b3030 	ldr	r3, [fp, #-48]	; 0x30
21000b50:	e1a02003 	mov	r2, r3
21000b54:	e51b3024 	ldr	r3, [fp, #-36]	; 0x24
21000b58:	e2833001 	add	r3, r3, #1
21000b5c:	e1a03083 	lsl	r3, r3, #1
21000b60:	e0823003 	add	r3, r2, r3
21000b64:	e1d330b0 	ldrh	r3, [r3]
21000b68:	e14b32b8 	strh	r3, [fp, #-40]	; 0xffffffd8
21000b6c:	e15b32b8 	ldrh	r3, [fp, #-40]	; 0xffffffd8
21000b70:	e20330ff 	and	r3, r3, #255	; 0xff
21000b74:	e14b32b8 	strh	r3, [fp, #-40]	; 0xffffffd8
21000b78:	e15b32b8 	ldrh	r3, [fp, #-40]	; 0xffffffd8
21000b7c:	e1a02203 	lsl	r2, r3, #4
21000b80:	e15b32b6 	ldrh	r3, [fp, #-38]	; 0xffffffda
21000b84:	e1a03623 	lsr	r3, r3, #12
21000b88:	e6ff3073 	uxth	r3, r3
21000b8c:	e1823003 	orr	r3, r2, r3
21000b90:	e50b3010 	str	r3, [fp, #-16]
21000b94:	ea00002a 	b	21000c44 <get_fatent+0x3c0>
21000b98:	e51b3030 	ldr	r3, [fp, #-48]	; 0x30
21000b9c:	e1a02003 	mov	r2, r3
21000ba0:	e51b3024 	ldr	r3, [fp, #-36]	; 0x24
21000ba4:	e1a03083 	lsl	r3, r3, #1
21000ba8:	e0823003 	add	r3, r2, r3
21000bac:	e1d330b0 	ldrh	r3, [r3]
21000bb0:	e14b32b6 	strh	r3, [fp, #-38]	; 0xffffffda
21000bb4:	e15b32b6 	ldrh	r3, [fp, #-38]	; 0xffffffda
21000bb8:	e3c330ff 	bic	r3, r3, #255	; 0xff
21000bbc:	e14b32b6 	strh	r3, [fp, #-38]	; 0xffffffda
21000bc0:	e51b3030 	ldr	r3, [fp, #-48]	; 0x30
21000bc4:	e1a02003 	mov	r2, r3
21000bc8:	e51b3024 	ldr	r3, [fp, #-36]	; 0x24
21000bcc:	e2833001 	add	r3, r3, #1
21000bd0:	e1a03083 	lsl	r3, r3, #1
21000bd4:	e0823003 	add	r3, r2, r3
21000bd8:	e1d330b0 	ldrh	r3, [r3]
21000bdc:	e14b32b8 	strh	r3, [fp, #-40]	; 0xffffffd8
21000be0:	e15b32b8 	ldrh	r3, [fp, #-40]	; 0xffffffd8
21000be4:	e203300f 	and	r3, r3, #15
21000be8:	e14b32b8 	strh	r3, [fp, #-40]	; 0xffffffd8
21000bec:	e15b32b8 	ldrh	r3, [fp, #-40]	; 0xffffffd8
21000bf0:	e1a02403 	lsl	r2, r3, #8
21000bf4:	e15b32b6 	ldrh	r3, [fp, #-38]	; 0xffffffda
21000bf8:	e1a03423 	lsr	r3, r3, #8
21000bfc:	e6ff3073 	uxth	r3, r3
21000c00:	e1823003 	orr	r3, r2, r3
21000c04:	e50b3010 	str	r3, [fp, #-16]
21000c08:	ea00000d 	b	21000c44 <get_fatent+0x3c0>
21000c0c:	e51b3030 	ldr	r3, [fp, #-48]	; 0x30
21000c10:	e1a02003 	mov	r2, r3
21000c14:	e51b3024 	ldr	r3, [fp, #-36]	; 0x24
21000c18:	e1a03083 	lsl	r3, r3, #1
21000c1c:	e0823003 	add	r3, r2, r3
21000c20:	e1d330b0 	ldrh	r3, [r3]
21000c24:	e50b3010 	str	r3, [fp, #-16]
21000c28:	e51b2010 	ldr	r2, [fp, #-16]
21000c2c:	e59f3038 	ldr	r3, [pc, #56]	; 21000c6c <get_fatent+0x3e8>
21000c30:	e0023003 	and	r3, r2, r3
21000c34:	e1a03223 	lsr	r3, r3, #4
21000c38:	e50b3010 	str	r3, [fp, #-16]
21000c3c:	ea000000 	b	21000c44 <get_fatent+0x3c0>
21000c40:	e1a00000 	nop			; (mov r0, r0)
21000c44:	e1a00000 	nop			; (mov r0, r0)
21000c48:	e51b3010 	ldr	r3, [fp, #-16]
21000c4c:	e1a00003 	mov	r0, r3
21000c50:	e24bd004 	sub	sp, fp, #4
21000c54:	e8bd8800 	pop	{fp, pc}
21000c58:	aaaaaaab 	.word	0xaaaaaaab
21000c5c:	2100739c 	.word	0x2100739c
21000c60:	00000c04 	.word	0x00000c04
21000c64:	00000c06 	.word	0x00000c06
21000c68:	210073cc 	.word	0x210073cc
21000c6c:	0000fff0 	.word	0x0000fff0

21000c70 <get_cluster>:
21000c70:	e92d4800 	push	{fp, lr}
21000c74:	e28db004 	add	fp, sp, #4
21000c78:	e24ddf86 	sub	sp, sp, #536	; 0x218
21000c7c:	e50b0210 	str	r0, [fp, #-528]	; 0x210
21000c80:	e50b1214 	str	r1, [fp, #-532]	; 0x214
21000c84:	e50b2218 	str	r2, [fp, #-536]	; 0x218
21000c88:	e50b321c 	str	r3, [fp, #-540]	; 0x21c
21000c8c:	e3a03000 	mov	r3, #0
21000c90:	e50b300c 	str	r3, [fp, #-12]
21000c94:	e51b3214 	ldr	r3, [fp, #-532]	; 0x214
21000c98:	e3530000 	cmp	r3, #0
21000c9c:	0a00000b 	beq	21000cd0 <get_cluster+0x60>
21000ca0:	e51b2210 	ldr	r2, [fp, #-528]	; 0x210
21000ca4:	e59f3120 	ldr	r3, [pc, #288]	; 21000dcc <get_cluster+0x15c>
21000ca8:	e19230b3 	ldrh	r3, [r2, r3]
21000cac:	e6bf2073 	sxth	r2, r3
21000cb0:	e51b1210 	ldr	r1, [fp, #-528]	; 0x210
21000cb4:	e59f3114 	ldr	r3, [pc, #276]	; 21000dd0 <get_cluster+0x160>
21000cb8:	e19130b3 	ldrh	r3, [r1, r3]
21000cbc:	e51b1214 	ldr	r1, [fp, #-532]	; 0x214
21000cc0:	e0030391 	mul	r3, r1, r3
21000cc4:	e0823003 	add	r3, r2, r3
21000cc8:	e50b3008 	str	r3, [fp, #-8]
21000ccc:	ea000003 	b	21000ce0 <get_cluster+0x70>
21000cd0:	e51b2210 	ldr	r2, [fp, #-528]	; 0x210
21000cd4:	e59f30f8 	ldr	r3, [pc, #248]	; 21000dd4 <get_cluster+0x164>
21000cd8:	e19230b3 	ldrh	r3, [r2, r3]
21000cdc:	e50b3008 	str	r3, [fp, #-8]
21000ce0:	e59f00f0 	ldr	r0, [pc, #240]	; 21000dd8 <get_cluster+0x168>
21000ce4:	e51b1214 	ldr	r1, [fp, #-532]	; 0x214
21000ce8:	e51b2008 	ldr	r2, [fp, #-8]
21000cec:	ebfffdcc 	bl	21000424 <debug>
21000cf0:	e51b321c 	ldr	r3, [fp, #-540]	; 0x21c
21000cf4:	e1a034a3 	lsr	r3, r3, #9
21000cf8:	e51b0008 	ldr	r0, [fp, #-8]
21000cfc:	e1a01003 	mov	r1, r3
21000d00:	e51b2218 	ldr	r2, [fp, #-536]	; 0x218
21000d04:	ebfffdec 	bl	210004bc <disk_read>
21000d08:	e1a03000 	mov	r3, r0
21000d0c:	e3530000 	cmp	r3, #0
21000d10:	aa000003 	bge	21000d24 <get_cluster+0xb4>
21000d14:	e59f00c0 	ldr	r0, [pc, #192]	; 21000ddc <get_cluster+0x16c>
21000d18:	ebfffdc1 	bl	21000424 <debug>
21000d1c:	e3e03000 	mvn	r3, #0
21000d20:	ea000026 	b	21000dc0 <get_cluster+0x150>
21000d24:	e51b321c 	ldr	r3, [fp, #-540]	; 0x21c
21000d28:	e1a03b83 	lsl	r3, r3, #23
21000d2c:	e1a03ba3 	lsr	r3, r3, #23
21000d30:	e3530000 	cmp	r3, #0
21000d34:	0a000020 	beq	21000dbc <get_cluster+0x14c>
21000d38:	e51b321c 	ldr	r3, [fp, #-540]	; 0x21c
21000d3c:	e1a034a3 	lsr	r3, r3, #9
21000d40:	e50b300c 	str	r3, [fp, #-12]
21000d44:	e51b2008 	ldr	r2, [fp, #-8]
21000d48:	e51b300c 	ldr	r3, [fp, #-12]
21000d4c:	e0822003 	add	r2, r2, r3
21000d50:	e24b3f83 	sub	r3, fp, #524	; 0x20c
21000d54:	e1a00002 	mov	r0, r2
21000d58:	e3a01001 	mov	r1, #1
21000d5c:	e1a02003 	mov	r2, r3
21000d60:	ebfffdd5 	bl	210004bc <disk_read>
21000d64:	e1a03000 	mov	r3, r0
21000d68:	e3530000 	cmp	r3, #0
21000d6c:	aa000003 	bge	21000d80 <get_cluster+0x110>
21000d70:	e59f0064 	ldr	r0, [pc, #100]	; 21000ddc <get_cluster+0x16c>
21000d74:	ebfffdaa 	bl	21000424 <debug>
21000d78:	e3e03000 	mvn	r3, #0
21000d7c:	ea00000f 	b	21000dc0 <get_cluster+0x150>
21000d80:	e51b300c 	ldr	r3, [fp, #-12]
21000d84:	e1a03483 	lsl	r3, r3, #9
21000d88:	e51b2218 	ldr	r2, [fp, #-536]	; 0x218
21000d8c:	e0823003 	add	r3, r2, r3
21000d90:	e50b3218 	str	r3, [fp, #-536]	; 0x218
21000d94:	e51b321c 	ldr	r3, [fp, #-540]	; 0x21c
21000d98:	e1a03b83 	lsl	r3, r3, #23
21000d9c:	e1a03ba3 	lsr	r3, r3, #23
21000da0:	e24b2f83 	sub	r2, fp, #524	; 0x20c
21000da4:	e51b0218 	ldr	r0, [fp, #-536]	; 0x218
21000da8:	e1a01002 	mov	r1, r2
21000dac:	e1a02003 	mov	r2, r3
21000db0:	eb000b3a 	bl	21003aa0 <memcpy>
21000db4:	e3a03000 	mov	r3, #0
21000db8:	ea000000 	b	21000dc0 <get_cluster+0x150>
21000dbc:	e3a03000 	mov	r3, #0
21000dc0:	e1a00003 	mov	r0, r3
21000dc4:	e24bd004 	sub	sp, fp, #4
21000dc8:	e8bd8800 	pop	{fp, pc}
21000dcc:	00000c0c 	.word	0x00000c0c
21000dd0:	00000c0a 	.word	0x00000c0a
21000dd4:	00000c08 	.word	0x00000c08
21000dd8:	210073e8 	.word	0x210073e8
21000ddc:	2100740c 	.word	0x2100740c

21000de0 <get_contents>:
21000de0:	e92d4800 	push	{fp, lr}
21000de4:	e28db004 	add	fp, sp, #4
21000de8:	e24dd030 	sub	sp, sp, #48	; 0x30
21000dec:	e50b0028 	str	r0, [fp, #-40]	; 0x28
21000df0:	e50b102c 	str	r1, [fp, #-44]	; 0x2c
21000df4:	e50b2030 	str	r2, [fp, #-48]	; 0x30
21000df8:	e50b3034 	str	r3, [fp, #-52]	; 0x34
21000dfc:	e51b302c 	ldr	r3, [fp, #-44]	; 0x2c
21000e00:	e593301c 	ldr	r3, [r3, #28]
21000e04:	e50b3008 	str	r3, [fp, #-8]
21000e08:	e3a03000 	mov	r3, #0
21000e0c:	e50b300c 	str	r3, [fp, #-12]
21000e10:	e51b2028 	ldr	r2, [fp, #-40]	; 0x28
21000e14:	e59f3304 	ldr	r3, [pc, #772]	; 21001120 <get_contents+0x340>
21000e18:	e19230b3 	ldrh	r3, [r2, r3]
21000e1c:	e1a03483 	lsl	r3, r3, #9
21000e20:	e50b301c 	str	r3, [fp, #-28]
21000e24:	e51b302c 	ldr	r3, [fp, #-44]	; 0x2c
21000e28:	e1d331ba 	ldrh	r3, [r3, #26]
21000e2c:	e1a02003 	mov	r2, r3
21000e30:	e51b3028 	ldr	r3, [fp, #-40]	; 0x28
21000e34:	e5933c00 	ldr	r3, [r3, #3072]	; 0xc00
21000e38:	e3530020 	cmp	r3, #32
21000e3c:	1a000003 	bne	21000e50 <get_contents+0x70>
21000e40:	e51b302c 	ldr	r3, [fp, #-44]	; 0x2c
21000e44:	e1d331b4 	ldrh	r3, [r3, #20]
21000e48:	e1a03803 	lsl	r3, r3, #16
21000e4c:	ea000000 	b	21000e54 <get_contents+0x74>
21000e50:	e3a03000 	mov	r3, #0
21000e54:	e0823003 	add	r3, r2, r3
21000e58:	e50b3010 	str	r3, [fp, #-16]
21000e5c:	e59f02c0 	ldr	r0, [pc, #704]	; 21001124 <get_contents+0x344>
21000e60:	e51b1034 	ldr	r1, [fp, #-52]	; 0x34
21000e64:	e51b2008 	ldr	r2, [fp, #-8]
21000e68:	ebfffd6d 	bl	21000424 <debug>
21000e6c:	e51b3034 	ldr	r3, [fp, #-52]	; 0x34
21000e70:	e3530000 	cmp	r3, #0
21000e74:	0a000005 	beq	21000e90 <get_contents+0xb0>
21000e78:	e51b2008 	ldr	r2, [fp, #-8]
21000e7c:	e51b3034 	ldr	r3, [fp, #-52]	; 0x34
21000e80:	e1520003 	cmp	r2, r3
21000e84:	9a000001 	bls	21000e90 <get_contents+0xb0>
21000e88:	e51b3034 	ldr	r3, [fp, #-52]	; 0x34
21000e8c:	e50b3008 	str	r3, [fp, #-8]
21000e90:	e51b301c 	ldr	r3, [fp, #-28]
21000e94:	e50b3018 	str	r3, [fp, #-24]
21000e98:	e51b3010 	ldr	r3, [fp, #-16]
21000e9c:	e50b3014 	str	r3, [fp, #-20]
21000ea0:	e59f0280 	ldr	r0, [pc, #640]	; 21001128 <get_contents+0x348>
21000ea4:	e51b1034 	ldr	r1, [fp, #-52]	; 0x34
21000ea8:	e51b2018 	ldr	r2, [fp, #-24]
21000eac:	e51b3008 	ldr	r3, [fp, #-8]
21000eb0:	ebfffd5b 	bl	21000424 <debug>
21000eb4:	ea000025 	b	21000f50 <get_contents+0x170>
21000eb8:	e51b0028 	ldr	r0, [fp, #-40]	; 0x28
21000ebc:	e51b1014 	ldr	r1, [fp, #-20]
21000ec0:	ebfffe6f 	bl	21000884 <get_fatent>
21000ec4:	e50b0020 	str	r0, [fp, #-32]
21000ec8:	e51b3020 	ldr	r3, [fp, #-32]
21000ecc:	e2432001 	sub	r2, r3, #1
21000ed0:	e51b3014 	ldr	r3, [fp, #-20]
21000ed4:	e1520003 	cmp	r2, r3
21000ed8:	1a000053 	bne	2100102c <get_contents+0x24c>
21000edc:	e51b3020 	ldr	r3, [fp, #-32]
21000ee0:	e3530001 	cmp	r3, #1
21000ee4:	9a000009 	bls	21000f10 <get_contents+0x130>
21000ee8:	e51b3028 	ldr	r3, [fp, #-40]	; 0x28
21000eec:	e5933c00 	ldr	r3, [r3, #3072]	; 0xc00
21000ef0:	e3530020 	cmp	r3, #32
21000ef4:	0a000001 	beq	21000f00 <get_contents+0x120>
21000ef8:	e59f322c 	ldr	r3, [pc, #556]	; 2100112c <get_contents+0x34c>
21000efc:	ea000000 	b	21000f04 <get_contents+0x124>
21000f00:	e3e032ff 	mvn	r3, #-268435441	; 0xf000000f
21000f04:	e51b2020 	ldr	r2, [fp, #-32]
21000f08:	e1530002 	cmp	r3, r2
21000f0c:	8a000009 	bhi	21000f38 <get_contents+0x158>
21000f10:	e59f0218 	ldr	r0, [pc, #536]	; 21001130 <get_contents+0x350>
21000f14:	e51b1020 	ldr	r1, [fp, #-32]
21000f18:	ebfffd41 	bl	21000424 <debug>
21000f1c:	e59f0210 	ldr	r0, [pc, #528]	; 21001134 <get_contents+0x354>
21000f20:	eb00183e 	bl	21007020 <puts>
21000f24:	e59f020c 	ldr	r0, [pc, #524]	; 21001138 <get_contents+0x358>
21000f28:	e51b100c 	ldr	r1, [fp, #-12]
21000f2c:	ebfffd3c 	bl	21000424 <debug>
21000f30:	e51b300c 	ldr	r3, [fp, #-12]
21000f34:	ea000076 	b	21001114 <get_contents+0x334>
21000f38:	e51b3020 	ldr	r3, [fp, #-32]
21000f3c:	e50b3014 	str	r3, [fp, #-20]
21000f40:	e51b2018 	ldr	r2, [fp, #-24]
21000f44:	e51b301c 	ldr	r3, [fp, #-28]
21000f48:	e0823003 	add	r3, r2, r3
21000f4c:	e50b3018 	str	r3, [fp, #-24]
21000f50:	e51b2018 	ldr	r2, [fp, #-24]
21000f54:	e51b3008 	ldr	r3, [fp, #-8]
21000f58:	e1520003 	cmp	r2, r3
21000f5c:	3affffd5 	bcc	21000eb8 <get_contents+0xd8>
21000f60:	e51b2018 	ldr	r2, [fp, #-24]
21000f64:	e51b301c 	ldr	r3, [fp, #-28]
21000f68:	e0633002 	rsb	r3, r3, r2
21000f6c:	e50b3018 	str	r3, [fp, #-24]
21000f70:	e51b0028 	ldr	r0, [fp, #-40]	; 0x28
21000f74:	e51b1010 	ldr	r1, [fp, #-16]
21000f78:	e51b2030 	ldr	r2, [fp, #-48]	; 0x30
21000f7c:	e51b3018 	ldr	r3, [fp, #-24]
21000f80:	ebffff3a 	bl	21000c70 <get_cluster>
21000f84:	e1a03000 	mov	r3, r0
21000f88:	e3530000 	cmp	r3, #0
21000f8c:	0a000003 	beq	21000fa0 <get_contents+0x1c0>
21000f90:	e59f01a4 	ldr	r0, [pc, #420]	; 2100113c <get_contents+0x35c>
21000f94:	eb001821 	bl	21007020 <puts>
21000f98:	e3e03000 	mvn	r3, #0
21000f9c:	ea00005c 	b	21001114 <get_contents+0x334>
21000fa0:	e51b200c 	ldr	r2, [fp, #-12]
21000fa4:	e51b3018 	ldr	r3, [fp, #-24]
21000fa8:	e0823003 	add	r3, r2, r3
21000fac:	e50b300c 	str	r3, [fp, #-12]
21000fb0:	e51b2008 	ldr	r2, [fp, #-8]
21000fb4:	e51b3018 	ldr	r3, [fp, #-24]
21000fb8:	e0633002 	rsb	r3, r3, r2
21000fbc:	e50b3008 	str	r3, [fp, #-8]
21000fc0:	e51b2030 	ldr	r2, [fp, #-48]	; 0x30
21000fc4:	e51b3018 	ldr	r3, [fp, #-24]
21000fc8:	e0823003 	add	r3, r2, r3
21000fcc:	e50b3030 	str	r3, [fp, #-48]	; 0x30
21000fd0:	e51b3008 	ldr	r3, [fp, #-8]
21000fd4:	e50b3018 	str	r3, [fp, #-24]
21000fd8:	e51b0028 	ldr	r0, [fp, #-40]	; 0x28
21000fdc:	e51b1014 	ldr	r1, [fp, #-20]
21000fe0:	e51b2030 	ldr	r2, [fp, #-48]	; 0x30
21000fe4:	e51b3018 	ldr	r3, [fp, #-24]
21000fe8:	ebffff20 	bl	21000c70 <get_cluster>
21000fec:	e1a03000 	mov	r3, r0
21000ff0:	e3530000 	cmp	r3, #0
21000ff4:	0a000003 	beq	21001008 <get_contents+0x228>
21000ff8:	e59f013c 	ldr	r0, [pc, #316]	; 2100113c <get_contents+0x35c>
21000ffc:	eb001807 	bl	21007020 <puts>
21001000:	e3e03000 	mvn	r3, #0
21001004:	ea000042 	b	21001114 <get_contents+0x334>
21001008:	e51b200c 	ldr	r2, [fp, #-12]
2100100c:	e51b3018 	ldr	r3, [fp, #-24]
21001010:	e0823003 	add	r3, r2, r3
21001014:	e50b300c 	str	r3, [fp, #-12]
21001018:	e59f0120 	ldr	r0, [pc, #288]	; 21001140 <get_contents+0x360>
2100101c:	e51b100c 	ldr	r1, [fp, #-12]
21001020:	ebfffcff 	bl	21000424 <debug>
21001024:	e51b300c 	ldr	r3, [fp, #-12]
21001028:	ea000039 	b	21001114 <get_contents+0x334>
2100102c:	e1a00000 	nop			; (mov r0, r0)
21001030:	e51b0028 	ldr	r0, [fp, #-40]	; 0x28
21001034:	e51b1010 	ldr	r1, [fp, #-16]
21001038:	e51b2030 	ldr	r2, [fp, #-48]	; 0x30
2100103c:	e51b3018 	ldr	r3, [fp, #-24]
21001040:	ebffff0a 	bl	21000c70 <get_cluster>
21001044:	e1a03000 	mov	r3, r0
21001048:	e3530000 	cmp	r3, #0
2100104c:	0a000003 	beq	21001060 <get_contents+0x280>
21001050:	e59f00e4 	ldr	r0, [pc, #228]	; 2100113c <get_contents+0x35c>
21001054:	eb0017f1 	bl	21007020 <puts>
21001058:	e3e03000 	mvn	r3, #0
2100105c:	ea00002c 	b	21001114 <get_contents+0x334>
21001060:	e51b200c 	ldr	r2, [fp, #-12]
21001064:	e51b3018 	ldr	r3, [fp, #-24]
21001068:	e0823003 	add	r3, r2, r3
2100106c:	e50b300c 	str	r3, [fp, #-12]
21001070:	e51b2008 	ldr	r2, [fp, #-8]
21001074:	e51b3018 	ldr	r3, [fp, #-24]
21001078:	e0633002 	rsb	r3, r3, r2
2100107c:	e50b3008 	str	r3, [fp, #-8]
21001080:	e51b2030 	ldr	r2, [fp, #-48]	; 0x30
21001084:	e51b3018 	ldr	r3, [fp, #-24]
21001088:	e0823003 	add	r3, r2, r3
2100108c:	e50b3030 	str	r3, [fp, #-48]	; 0x30
21001090:	e51b0028 	ldr	r0, [fp, #-40]	; 0x28
21001094:	e51b1014 	ldr	r1, [fp, #-20]
21001098:	ebfffdf9 	bl	21000884 <get_fatent>
2100109c:	e50b0010 	str	r0, [fp, #-16]
210010a0:	e51b3010 	ldr	r3, [fp, #-16]
210010a4:	e3530001 	cmp	r3, #1
210010a8:	9a000009 	bls	210010d4 <get_contents+0x2f4>
210010ac:	e51b3028 	ldr	r3, [fp, #-40]	; 0x28
210010b0:	e5933c00 	ldr	r3, [r3, #3072]	; 0xc00
210010b4:	e3530020 	cmp	r3, #32
210010b8:	0a000001 	beq	210010c4 <get_contents+0x2e4>
210010bc:	e59f3068 	ldr	r3, [pc, #104]	; 2100112c <get_contents+0x34c>
210010c0:	ea000000 	b	210010c8 <get_contents+0x2e8>
210010c4:	e3e032ff 	mvn	r3, #-268435441	; 0xf000000f
210010c8:	e51b2010 	ldr	r2, [fp, #-16]
210010cc:	e1530002 	cmp	r3, r2
210010d0:	8a000009 	bhi	210010fc <get_contents+0x31c>
210010d4:	e59f0054 	ldr	r0, [pc, #84]	; 21001130 <get_contents+0x350>
210010d8:	e51b1010 	ldr	r1, [fp, #-16]
210010dc:	ebfffcd0 	bl	21000424 <debug>
210010e0:	e59f004c 	ldr	r0, [pc, #76]	; 21001134 <get_contents+0x354>
210010e4:	eb0017cd 	bl	21007020 <puts>
210010e8:	e59f0054 	ldr	r0, [pc, #84]	; 21001144 <get_contents+0x364>
210010ec:	e51b100c 	ldr	r1, [fp, #-12]
210010f0:	ebfffccb 	bl	21000424 <debug>
210010f4:	e51b300c 	ldr	r3, [fp, #-12]
210010f8:	ea000005 	b	21001114 <get_contents+0x334>
210010fc:	e51b301c 	ldr	r3, [fp, #-28]
21001100:	e50b3018 	str	r3, [fp, #-24]
21001104:	e51b3010 	ldr	r3, [fp, #-16]
21001108:	e50b3014 	str	r3, [fp, #-20]
2100110c:	e1a00000 	nop			; (mov r0, r0)
21001110:	eaffff8e 	b	21000f50 <get_contents+0x170>
21001114:	e1a00003 	mov	r0, r3
21001118:	e24bd004 	sub	sp, fp, #4
2100111c:	e8bd8800 	pop	{fp, pc}
21001120:	00000c0a 	.word	0x00000c0a
21001124:	21007420 	.word	0x21007420
21001128:	21007444 	.word	0x21007444
2100112c:	0000fff0 	.word	0x0000fff0
21001130:	21007474 	.word	0x21007474
21001134:	21007484 	.word	0x21007484
21001138:	21007498 	.word	0x21007498
2100113c:	210074a8 	.word	0x210074a8
21001140:	210074c0 	.word	0x210074c0
21001144:	210074d4 	.word	0x210074d4

21001148 <slot2str>:
21001148:	e52db004 	push	{fp}		; (str fp, [sp, #-4]!)
2100114c:	e28db000 	add	fp, sp, #0
21001150:	e24dd01c 	sub	sp, sp, #28
21001154:	e50b0010 	str	r0, [fp, #-16]
21001158:	e50b1014 	str	r1, [fp, #-20]
2100115c:	e50b2018 	str	r2, [fp, #-24]
21001160:	e3a03000 	mov	r3, #0
21001164:	e50b3008 	str	r3, [fp, #-8]
21001168:	ea000019 	b	210011d4 <slot2str+0x8c>
2100116c:	e51b3018 	ldr	r3, [fp, #-24]
21001170:	e5933000 	ldr	r3, [r3]
21001174:	e51b2014 	ldr	r2, [fp, #-20]
21001178:	e0823003 	add	r3, r2, r3
2100117c:	e51b1010 	ldr	r1, [fp, #-16]
21001180:	e51b2008 	ldr	r2, [fp, #-8]
21001184:	e0812002 	add	r2, r1, r2
21001188:	e5d22001 	ldrb	r2, [r2, #1]
2100118c:	e5c32000 	strb	r2, [r3]
21001190:	e51b3018 	ldr	r3, [fp, #-24]
21001194:	e5933000 	ldr	r3, [r3]
21001198:	e51b2014 	ldr	r2, [fp, #-20]
2100119c:	e0823003 	add	r3, r2, r3
210011a0:	e5d33000 	ldrb	r3, [r3]
210011a4:	e3530000 	cmp	r3, #0
210011a8:	1a000001 	bne	210011b4 <slot2str+0x6c>
210011ac:	e3a03001 	mov	r3, #1
210011b0:	ea00004f 	b	210012f4 <slot2str+0x1ac>
210011b4:	e51b3018 	ldr	r3, [fp, #-24]
210011b8:	e5933000 	ldr	r3, [r3]
210011bc:	e2832001 	add	r2, r3, #1
210011c0:	e51b3018 	ldr	r3, [fp, #-24]
210011c4:	e5832000 	str	r2, [r3]
210011c8:	e51b3008 	ldr	r3, [fp, #-8]
210011cc:	e2833002 	add	r3, r3, #2
210011d0:	e50b3008 	str	r3, [fp, #-8]
210011d4:	e51b3008 	ldr	r3, [fp, #-8]
210011d8:	e3530008 	cmp	r3, #8
210011dc:	daffffe2 	ble	2100116c <slot2str+0x24>
210011e0:	e3a03000 	mov	r3, #0
210011e4:	e50b3008 	str	r3, [fp, #-8]
210011e8:	ea00001b 	b	2100125c <slot2str+0x114>
210011ec:	e51b3018 	ldr	r3, [fp, #-24]
210011f0:	e5933000 	ldr	r3, [r3]
210011f4:	e51b2014 	ldr	r2, [fp, #-20]
210011f8:	e0823003 	add	r3, r2, r3
210011fc:	e51b0010 	ldr	r0, [fp, #-16]
21001200:	e3a02008 	mov	r2, #8
21001204:	e51b1008 	ldr	r1, [fp, #-8]
21001208:	e0801001 	add	r1, r0, r1
2100120c:	e0812002 	add	r2, r1, r2
21001210:	e5d22006 	ldrb	r2, [r2, #6]
21001214:	e5c32000 	strb	r2, [r3]
21001218:	e51b3018 	ldr	r3, [fp, #-24]
2100121c:	e5933000 	ldr	r3, [r3]
21001220:	e51b2014 	ldr	r2, [fp, #-20]
21001224:	e0823003 	add	r3, r2, r3
21001228:	e5d33000 	ldrb	r3, [r3]
2100122c:	e3530000 	cmp	r3, #0
21001230:	1a000001 	bne	2100123c <slot2str+0xf4>
21001234:	e3a03001 	mov	r3, #1
21001238:	ea00002d 	b	210012f4 <slot2str+0x1ac>
2100123c:	e51b3018 	ldr	r3, [fp, #-24]
21001240:	e5933000 	ldr	r3, [r3]
21001244:	e2832001 	add	r2, r3, #1
21001248:	e51b3018 	ldr	r3, [fp, #-24]
2100124c:	e5832000 	str	r2, [r3]
21001250:	e51b3008 	ldr	r3, [fp, #-8]
21001254:	e2833002 	add	r3, r3, #2
21001258:	e50b3008 	str	r3, [fp, #-8]
2100125c:	e51b3008 	ldr	r3, [fp, #-8]
21001260:	e353000a 	cmp	r3, #10
21001264:	daffffe0 	ble	210011ec <slot2str+0xa4>
21001268:	e3a03000 	mov	r3, #0
2100126c:	e50b3008 	str	r3, [fp, #-8]
21001270:	ea00001b 	b	210012e4 <slot2str+0x19c>
21001274:	e51b3018 	ldr	r3, [fp, #-24]
21001278:	e5933000 	ldr	r3, [r3]
2100127c:	e51b2014 	ldr	r2, [fp, #-20]
21001280:	e0823003 	add	r3, r2, r3
21001284:	e51b0010 	ldr	r0, [fp, #-16]
21001288:	e3a02018 	mov	r2, #24
2100128c:	e51b1008 	ldr	r1, [fp, #-8]
21001290:	e0801001 	add	r1, r0, r1
21001294:	e0812002 	add	r2, r1, r2
21001298:	e5d22004 	ldrb	r2, [r2, #4]
2100129c:	e5c32000 	strb	r2, [r3]
210012a0:	e51b3018 	ldr	r3, [fp, #-24]
210012a4:	e5933000 	ldr	r3, [r3]
210012a8:	e51b2014 	ldr	r2, [fp, #-20]
210012ac:	e0823003 	add	r3, r2, r3
210012b0:	e5d33000 	ldrb	r3, [r3]
210012b4:	e3530000 	cmp	r3, #0
210012b8:	1a000001 	bne	210012c4 <slot2str+0x17c>
210012bc:	e3a03001 	mov	r3, #1
210012c0:	ea00000b 	b	210012f4 <slot2str+0x1ac>
210012c4:	e51b3018 	ldr	r3, [fp, #-24]
210012c8:	e5933000 	ldr	r3, [r3]
210012cc:	e2832001 	add	r2, r3, #1
210012d0:	e51b3018 	ldr	r3, [fp, #-24]
210012d4:	e5832000 	str	r2, [r3]
210012d8:	e51b3008 	ldr	r3, [fp, #-8]
210012dc:	e2833002 	add	r3, r3, #2
210012e0:	e50b3008 	str	r3, [fp, #-8]
210012e4:	e51b3008 	ldr	r3, [fp, #-8]
210012e8:	e3530002 	cmp	r3, #2
210012ec:	daffffe0 	ble	21001274 <slot2str+0x12c>
210012f0:	e3a03000 	mov	r3, #0
210012f4:	e1a00003 	mov	r0, r3
210012f8:	e28bd000 	add	sp, fp, #0
210012fc:	e8bd0800 	pop	{fp}
21001300:	e12fff1e 	bx	lr

21001304 <get_vfatname>:
21001304:	e92d4800 	push	{fp, lr}
21001308:	e28db004 	add	fp, sp, #4
2100130c:	e24dd028 	sub	sp, sp, #40	; 0x28
21001310:	e50b0020 	str	r0, [fp, #-32]
21001314:	e50b1024 	str	r1, [fp, #-36]	; 0x24
21001318:	e50b2028 	str	r2, [fp, #-40]	; 0x28
2100131c:	e50b302c 	str	r3, [fp, #-44]	; 0x2c
21001320:	e51b302c 	ldr	r3, [fp, #-44]	; 0x2c
21001324:	e50b300c 	str	r3, [fp, #-12]
21001328:	e51b3024 	ldr	r3, [fp, #-36]	; 0x24
2100132c:	e3530000 	cmp	r3, #0
21001330:	0a000004 	beq	21001348 <get_vfatname+0x44>
21001334:	e51b2020 	ldr	r2, [fp, #-32]
21001338:	e59f32d4 	ldr	r3, [pc, #724]	; 21001614 <get_vfatname+0x310>
2100133c:	e19230b3 	ldrh	r3, [r2, r3]
21001340:	e1a03483 	lsl	r3, r3, #9
21001344:	ea000000 	b	2100134c <get_vfatname+0x48>
21001348:	e3a03b01 	mov	r3, #1024	; 0x400
2100134c:	e51b2028 	ldr	r2, [fp, #-40]	; 0x28
21001350:	e0823003 	add	r3, r2, r3
21001354:	e50b3018 	str	r3, [fp, #-24]
21001358:	e51b300c 	ldr	r3, [fp, #-12]
2100135c:	e5d33000 	ldrb	r3, [r3]
21001360:	e3c33040 	bic	r3, r3, #64	; 0x40
21001364:	e54b300d 	strb	r3, [fp, #-13]
21001368:	e3a03000 	mov	r3, #0
2100136c:	e50b301c 	str	r3, [fp, #-28]
21001370:	e55b300d 	ldrb	r3, [fp, #-13]
21001374:	e3530009 	cmp	r3, #9
21001378:	9a000015 	bls	210013d4 <get_vfatname+0xd0>
2100137c:	e59f0294 	ldr	r0, [pc, #660]	; 21001618 <get_vfatname+0x314>
21001380:	ebfffc27 	bl	21000424 <debug>
21001384:	e3e03000 	mvn	r3, #0
21001388:	ea00009e 	b	21001608 <get_vfatname+0x304>
2100138c:	e55b300d 	ldrb	r3, [fp, #-13]
21001390:	e3530000 	cmp	r3, #0
21001394:	0a000014 	beq	210013ec <get_vfatname+0xe8>
21001398:	e51b300c 	ldr	r3, [fp, #-12]
2100139c:	e5d33000 	ldrb	r3, [r3]
210013a0:	e20320bf 	and	r2, r3, #191	; 0xbf
210013a4:	e55b300d 	ldrb	r3, [fp, #-13]
210013a8:	e1520003 	cmp	r2, r3
210013ac:	0a000001 	beq	210013b8 <get_vfatname+0xb4>
210013b0:	e3e03000 	mvn	r3, #0
210013b4:	ea000093 	b	21001608 <get_vfatname+0x304>
210013b8:	e51b300c 	ldr	r3, [fp, #-12]
210013bc:	e2833020 	add	r3, r3, #32
210013c0:	e50b300c 	str	r3, [fp, #-12]
210013c4:	e55b300d 	ldrb	r3, [fp, #-13]
210013c8:	e2433001 	sub	r3, r3, #1
210013cc:	e54b300d 	strb	r3, [fp, #-13]
210013d0:	ea000000 	b	210013d8 <get_vfatname+0xd4>
210013d4:	e1a00000 	nop			; (mov r0, r0)
210013d8:	e51b200c 	ldr	r2, [fp, #-12]
210013dc:	e51b3018 	ldr	r3, [fp, #-24]
210013e0:	e1520003 	cmp	r2, r3
210013e4:	3affffe8 	bcc	2100138c <get_vfatname+0x88>
210013e8:	ea000000 	b	210013f0 <get_vfatname+0xec>
210013ec:	e1a00000 	nop			; (mov r0, r0)
210013f0:	e51b200c 	ldr	r2, [fp, #-12]
210013f4:	e51b3018 	ldr	r3, [fp, #-24]
210013f8:	e1520003 	cmp	r2, r3
210013fc:	3a000052 	bcc	2100154c <get_vfatname+0x248>
21001400:	e51b3024 	ldr	r3, [fp, #-36]	; 0x24
21001404:	e3530000 	cmp	r3, #0
21001408:	1a000001 	bne	21001414 <get_vfatname+0x110>
2100140c:	e3e03000 	mvn	r3, #0
21001410:	ea00007c 	b	21001608 <get_vfatname+0x304>
21001414:	e51b3024 	ldr	r3, [fp, #-36]	; 0x24
21001418:	e51b0020 	ldr	r0, [fp, #-32]
2100141c:	e1a01003 	mov	r1, r3
21001420:	ebfffd17 	bl	21000884 <get_fatent>
21001424:	e1a03000 	mov	r3, r0
21001428:	e50b3024 	str	r3, [fp, #-36]	; 0x24
2100142c:	e51b3024 	ldr	r3, [fp, #-36]	; 0x24
21001430:	e3530001 	cmp	r3, #1
21001434:	da000009 	ble	21001460 <get_vfatname+0x15c>
21001438:	e51b3020 	ldr	r3, [fp, #-32]
2100143c:	e5933c00 	ldr	r3, [r3, #3072]	; 0xc00
21001440:	e3530020 	cmp	r3, #32
21001444:	0a000001 	beq	21001450 <get_vfatname+0x14c>
21001448:	e59f31cc 	ldr	r3, [pc, #460]	; 2100161c <get_vfatname+0x318>
2100144c:	ea000000 	b	21001454 <get_vfatname+0x150>
21001450:	e3e032ff 	mvn	r3, #-268435441	; 0xf000000f
21001454:	e51b2024 	ldr	r2, [fp, #-36]	; 0x24
21001458:	e1530002 	cmp	r3, r2
2100145c:	ca000006 	bgt	2100147c <get_vfatname+0x178>
21001460:	e59f01b8 	ldr	r0, [pc, #440]	; 21001620 <get_vfatname+0x31c>
21001464:	e51b1024 	ldr	r1, [fp, #-36]	; 0x24
21001468:	ebfffbed 	bl	21000424 <debug>
2100146c:	e59f01b0 	ldr	r0, [pc, #432]	; 21001624 <get_vfatname+0x320>
21001470:	eb0016ea 	bl	21007020 <puts>
21001474:	e3e03000 	mvn	r3, #0
21001478:	ea000062 	b	21001608 <get_vfatname+0x304>
2100147c:	e51b2024 	ldr	r2, [fp, #-36]	; 0x24
21001480:	e51b1020 	ldr	r1, [fp, #-32]
21001484:	e59f3188 	ldr	r3, [pc, #392]	; 21001614 <get_vfatname+0x310>
21001488:	e19130b3 	ldrh	r3, [r1, r3]
2100148c:	e1a03483 	lsl	r3, r3, #9
21001490:	e51b0020 	ldr	r0, [fp, #-32]
21001494:	e1a01002 	mov	r1, r2
21001498:	e59f2188 	ldr	r2, [pc, #392]	; 21001628 <get_vfatname+0x324>
2100149c:	ebfffdf3 	bl	21000c70 <get_cluster>
210014a0:	e1a03000 	mov	r3, r0
210014a4:	e3530000 	cmp	r3, #0
210014a8:	0a000003 	beq	210014bc <get_vfatname+0x1b8>
210014ac:	e59f0178 	ldr	r0, [pc, #376]	; 2100162c <get_vfatname+0x328>
210014b0:	ebfffbdb 	bl	21000424 <debug>
210014b4:	e3e03000 	mvn	r3, #0
210014b8:	ea000052 	b	21001608 <get_vfatname+0x304>
210014bc:	e59f3164 	ldr	r3, [pc, #356]	; 21001628 <get_vfatname+0x324>
210014c0:	e50b3014 	str	r3, [fp, #-20]
210014c4:	ea00000d 	b	21001500 <get_vfatname+0x1fc>
210014c8:	e51b3014 	ldr	r3, [fp, #-20]
210014cc:	e5d33000 	ldrb	r3, [r3]
210014d0:	e20320bf 	and	r2, r3, #191	; 0xbf
210014d4:	e55b300d 	ldrb	r3, [fp, #-13]
210014d8:	e1520003 	cmp	r2, r3
210014dc:	0a000001 	beq	210014e8 <get_vfatname+0x1e4>
210014e0:	e3e03000 	mvn	r3, #0
210014e4:	ea000047 	b	21001608 <get_vfatname+0x304>
210014e8:	e51b3014 	ldr	r3, [fp, #-20]
210014ec:	e2833020 	add	r3, r3, #32
210014f0:	e50b3014 	str	r3, [fp, #-20]
210014f4:	e55b300d 	ldrb	r3, [fp, #-13]
210014f8:	e2433001 	sub	r3, r3, #1
210014fc:	e54b300d 	strb	r3, [fp, #-13]
21001500:	e55b300d 	ldrb	r3, [fp, #-13]
21001504:	e3530000 	cmp	r3, #0
21001508:	1affffee 	bne	210014c8 <get_vfatname+0x1c4>
2100150c:	e51b3014 	ldr	r3, [fp, #-20]
21001510:	e50b3008 	str	r3, [fp, #-8]
21001514:	ea000007 	b	21001538 <get_vfatname+0x234>
21001518:	e51b3014 	ldr	r3, [fp, #-20]
2100151c:	e2433020 	sub	r3, r3, #32
21001520:	e50b3014 	str	r3, [fp, #-20]
21001524:	e24b301c 	sub	r3, fp, #28
21001528:	e51b0014 	ldr	r0, [fp, #-20]
2100152c:	e59b1004 	ldr	r1, [fp, #4]
21001530:	e1a02003 	mov	r2, r3
21001534:	ebffff03 	bl	21001148 <slot2str>
21001538:	e51b2014 	ldr	r2, [fp, #-20]
2100153c:	e59f30e4 	ldr	r3, [pc, #228]	; 21001628 <get_vfatname+0x324>
21001540:	e1520003 	cmp	r2, r3
21001544:	8afffff3 	bhi	21001518 <get_vfatname+0x214>
21001548:	ea000001 	b	21001554 <get_vfatname+0x250>
2100154c:	e51b300c 	ldr	r3, [fp, #-12]
21001550:	e50b3008 	str	r3, [fp, #-8]
21001554:	e51b300c 	ldr	r3, [fp, #-12]
21001558:	e2433020 	sub	r3, r3, #32
2100155c:	e50b300c 	str	r3, [fp, #-12]
21001560:	e24b301c 	sub	r3, fp, #28
21001564:	e51b000c 	ldr	r0, [fp, #-12]
21001568:	e59b1004 	ldr	r1, [fp, #4]
2100156c:	e1a02003 	mov	r2, r3
21001570:	ebfffef4 	bl	21001148 <slot2str>
21001574:	e1a03000 	mov	r3, r0
21001578:	e3530000 	cmp	r3, #0
2100157c:	1a000005 	bne	21001598 <get_vfatname+0x294>
21001580:	e51b300c 	ldr	r3, [fp, #-12]
21001584:	e5d33000 	ldrb	r3, [r3]
21001588:	e2033040 	and	r3, r3, #64	; 0x40
2100158c:	e3530000 	cmp	r3, #0
21001590:	0affffef 	beq	21001554 <get_vfatname+0x250>
21001594:	ea000000 	b	2100159c <get_vfatname+0x298>
21001598:	e1a00000 	nop			; (mov r0, r0)
2100159c:	e51b301c 	ldr	r3, [fp, #-28]
210015a0:	e59b2004 	ldr	r2, [fp, #4]
210015a4:	e0823003 	add	r3, r2, r3
210015a8:	e3a02000 	mov	r2, #0
210015ac:	e5c32000 	strb	r2, [r3]
210015b0:	e59b3004 	ldr	r3, [fp, #4]
210015b4:	e5d33000 	ldrb	r3, [r3]
210015b8:	e35300e5 	cmp	r3, #229	; 0xe5
210015bc:	1a000003 	bne	210015d0 <get_vfatname+0x2cc>
210015c0:	e59b3004 	ldr	r3, [fp, #4]
210015c4:	e3a02000 	mov	r2, #0
210015c8:	e5c32000 	strb	r2, [r3]
210015cc:	ea000006 	b	210015ec <get_vfatname+0x2e8>
210015d0:	e59b3004 	ldr	r3, [fp, #4]
210015d4:	e5d33000 	ldrb	r3, [r3]
210015d8:	e3530005 	cmp	r3, #5
210015dc:	1a000002 	bne	210015ec <get_vfatname+0x2e8>
210015e0:	e59b3004 	ldr	r3, [fp, #4]
210015e4:	e3e0201a 	mvn	r2, #26
210015e8:	e5c32000 	strb	r2, [r3]
210015ec:	e59b0004 	ldr	r0, [fp, #4]
210015f0:	ebfffb94 	bl	21000448 <downcase>
210015f4:	e51b002c 	ldr	r0, [fp, #-44]	; 0x2c
210015f8:	e51b1008 	ldr	r1, [fp, #-8]
210015fc:	e3a02020 	mov	r2, #32
21001600:	eb000926 	bl	21003aa0 <memcpy>
21001604:	e3a03000 	mov	r3, #0
21001608:	e1a00003 	mov	r0, r3
2100160c:	e24bd004 	sub	sp, fp, #4
21001610:	e8bd8800 	pop	{fp, pc}
21001614:	00000c0a 	.word	0x00000c0a
21001618:	210074e8 	.word	0x210074e8
2100161c:	0000fff0 	.word	0x0000fff0
21001620:	21007474 	.word	0x21007474
21001624:	21007484 	.word	0x21007484
21001628:	21008018 	.word	0x21008018
2100162c:	21007508 	.word	0x21007508

21001630 <mkcksum>:
21001630:	e52db004 	push	{fp}		; (str fp, [sp, #-4]!)
21001634:	e28db000 	add	fp, sp, #0
21001638:	e24dd014 	sub	sp, sp, #20
2100163c:	e50b0010 	str	r0, [fp, #-16]
21001640:	e3a03000 	mov	r3, #0
21001644:	e54b3009 	strb	r3, [fp, #-9]
21001648:	e3a03000 	mov	r3, #0
2100164c:	e50b3008 	str	r3, [fp, #-8]
21001650:	ea000012 	b	210016a0 <mkcksum+0x70>
21001654:	e55b3009 	ldrb	r3, [fp, #-9]
21001658:	e1a03383 	lsl	r3, r3, #7
2100165c:	e6ef2073 	uxtb	r2, r3
21001660:	e55b3009 	ldrb	r3, [fp, #-9]
21001664:	e1a030a3 	lsr	r3, r3, #1
21001668:	e6ef3073 	uxtb	r3, r3
2100166c:	e6ef3073 	uxtb	r3, r3
21001670:	e1823003 	orr	r3, r2, r3
21001674:	e6ef3073 	uxtb	r3, r3
21001678:	e6ef2073 	uxtb	r2, r3
2100167c:	e51b3008 	ldr	r3, [fp, #-8]
21001680:	e51b1010 	ldr	r1, [fp, #-16]
21001684:	e0813003 	add	r3, r1, r3
21001688:	e5d33000 	ldrb	r3, [r3]
2100168c:	e0823003 	add	r3, r2, r3
21001690:	e54b3009 	strb	r3, [fp, #-9]
21001694:	e51b3008 	ldr	r3, [fp, #-8]
21001698:	e2833001 	add	r3, r3, #1
2100169c:	e50b3008 	str	r3, [fp, #-8]
210016a0:	e51b3008 	ldr	r3, [fp, #-8]
210016a4:	e353000a 	cmp	r3, #10
210016a8:	daffffe9 	ble	21001654 <mkcksum+0x24>
210016ac:	e55b3009 	ldrb	r3, [fp, #-9]
210016b0:	e1a00003 	mov	r0, r3
210016b4:	e28bd000 	add	sp, fp, #0
210016b8:	e8bd0800 	pop	{fp}
210016bc:	e12fff1e 	bx	lr

210016c0 <get_dentfromdir>:
210016c0:	e92d4800 	push	{fp, lr}
210016c4:	e28db004 	add	fp, sp, #4
210016c8:	e24ddf56 	sub	sp, sp, #344	; 0x158
210016cc:	e50b0148 	str	r0, [fp, #-328]	; 0x148
210016d0:	e50b114c 	str	r1, [fp, #-332]	; 0x14c
210016d4:	e50b2150 	str	r2, [fp, #-336]	; 0x150
210016d8:	e50b3154 	str	r3, [fp, #-340]	; 0x154
210016dc:	e3e03000 	mvn	r3, #0
210016e0:	e14b30b6 	strh	r3, [fp, #-6]
210016e4:	e51b3154 	ldr	r3, [fp, #-340]	; 0x154
210016e8:	e1d331ba 	ldrh	r3, [r3, #26]
210016ec:	e1a02003 	mov	r2, r3
210016f0:	e51b3148 	ldr	r3, [fp, #-328]	; 0x148
210016f4:	e5933c00 	ldr	r3, [r3, #3072]	; 0xc00
210016f8:	e3530020 	cmp	r3, #32
210016fc:	1a000003 	bne	21001710 <get_dentfromdir+0x50>
21001700:	e51b3154 	ldr	r3, [fp, #-340]	; 0x154
21001704:	e1d331b4 	ldrh	r3, [r3, #20]
21001708:	e1a03803 	lsl	r3, r3, #16
2100170c:	ea000000 	b	21001714 <get_dentfromdir+0x54>
21001710:	e3a03000 	mov	r3, #0
21001714:	e0823003 	add	r3, r2, r3
21001718:	e50b300c 	str	r3, [fp, #-12]
2100171c:	e3a03000 	mov	r3, #0
21001720:	e50b3010 	str	r3, [fp, #-16]
21001724:	e3a03000 	mov	r3, #0
21001728:	e50b3014 	str	r3, [fp, #-20]
2100172c:	e59f04dc 	ldr	r0, [pc, #1244]	; 21001c10 <get_dentfromdir+0x550>
21001730:	e51b1150 	ldr	r1, [fp, #-336]	; 0x150
21001734:	ebfffb3a 	bl	21000424 <debug>
21001738:	ea000000 	b	21001740 <get_dentfromdir+0x80>
2100173c:	e1a00000 	nop			; (mov r0, r0)
21001740:	e51b2148 	ldr	r2, [fp, #-328]	; 0x148
21001744:	e59f34c8 	ldr	r3, [pc, #1224]	; 21001c14 <get_dentfromdir+0x554>
21001748:	e19230b3 	ldrh	r3, [r2, r3]
2100174c:	e1a03483 	lsl	r3, r3, #9
21001750:	e51b0148 	ldr	r0, [fp, #-328]	; 0x148
21001754:	e51b100c 	ldr	r1, [fp, #-12]
21001758:	e59f24b8 	ldr	r2, [pc, #1208]	; 21001c18 <get_dentfromdir+0x558>
2100175c:	ebfffd43 	bl	21000c70 <get_cluster>
21001760:	e1a03000 	mov	r3, r0
21001764:	e3530000 	cmp	r3, #0
21001768:	0a000003 	beq	2100177c <get_dentfromdir+0xbc>
2100176c:	e59f04a8 	ldr	r0, [pc, #1192]	; 21001c1c <get_dentfromdir+0x55c>
21001770:	ebfffb2b 	bl	21000424 <debug>
21001774:	e3a03000 	mov	r3, #0
21001778:	ea000121 	b	21001c04 <get_dentfromdir+0x544>
2100177c:	e59f3494 	ldr	r3, [pc, #1172]	; 21001c18 <get_dentfromdir+0x558>
21001780:	e50b3018 	str	r3, [fp, #-24]
21001784:	e3a03000 	mov	r3, #0
21001788:	e50b301c 	str	r3, [fp, #-28]
2100178c:	ea0000fd 	b	21001b88 <get_dentfromdir+0x4c8>
21001790:	e3a03000 	mov	r3, #0
21001794:	e54b3144 	strb	r3, [fp, #-324]	; 0x144
21001798:	e51b3018 	ldr	r3, [fp, #-24]
2100179c:	e5d33000 	ldrb	r3, [r3]
210017a0:	e35300e5 	cmp	r3, #229	; 0xe5
210017a4:	1a000003 	bne	210017b8 <get_dentfromdir+0xf8>
210017a8:	e51b3018 	ldr	r3, [fp, #-24]
210017ac:	e2833020 	add	r3, r3, #32
210017b0:	e50b3018 	str	r3, [fp, #-24]
210017b4:	ea0000f0 	b	21001b7c <get_dentfromdir+0x4bc>
210017b8:	e51b3018 	ldr	r3, [fp, #-24]
210017bc:	e5d3300b 	ldrb	r3, [r3, #11]
210017c0:	e2033008 	and	r3, r3, #8
210017c4:	e3530000 	cmp	r3, #0
210017c8:	0a000053 	beq	2100191c <get_dentfromdir+0x25c>
210017cc:	e51b3018 	ldr	r3, [fp, #-24]
210017d0:	e5d3300b 	ldrb	r3, [r3, #11]
210017d4:	e203300f 	and	r3, r3, #15
210017d8:	e3530000 	cmp	r3, #0
210017dc:	0a00004a 	beq	2100190c <get_dentfromdir+0x24c>
210017e0:	e51b3018 	ldr	r3, [fp, #-24]
210017e4:	e5d33000 	ldrb	r3, [r3]
210017e8:	e2033040 	and	r3, r3, #64	; 0x40
210017ec:	e3530000 	cmp	r3, #0
210017f0:	0a000045 	beq	2100190c <get_dentfromdir+0x24c>
210017f4:	e51b3018 	ldr	r3, [fp, #-24]
210017f8:	e5d3300d 	ldrb	r3, [r3, #13]
210017fc:	e14b30b6 	strh	r3, [fp, #-6]
21001800:	e51b300c 	ldr	r3, [fp, #-12]
21001804:	e24b2f51 	sub	r2, fp, #324	; 0x144
21001808:	e58d2000 	str	r2, [sp]
2100180c:	e51b0148 	ldr	r0, [fp, #-328]	; 0x148
21001810:	e1a01003 	mov	r1, r3
21001814:	e59f23fc 	ldr	r2, [pc, #1020]	; 21001c18 <get_dentfromdir+0x558>
21001818:	e51b3018 	ldr	r3, [fp, #-24]
2100181c:	ebfffeb8 	bl	21001304 <get_vfatname>
21001820:	e59b3004 	ldr	r3, [fp, #4]
21001824:	e3530000 	cmp	r3, #0
21001828:	0a000032 	beq	210018f8 <get_dentfromdir+0x238>
2100182c:	e3a03000 	mov	r3, #0
21001830:	e50b3024 	str	r3, [fp, #-36]	; 0x24
21001834:	e51b3018 	ldr	r3, [fp, #-24]
21001838:	e5d3300b 	ldrb	r3, [r3, #11]
2100183c:	e2033010 	and	r3, r3, #16
21001840:	e50b3030 	str	r3, [fp, #-48]	; 0x30
21001844:	e51b3030 	ldr	r3, [fp, #-48]	; 0x30
21001848:	e3530000 	cmp	r3, #0
2100184c:	0a000007 	beq	21001870 <get_dentfromdir+0x1b0>
21001850:	e51b3014 	ldr	r3, [fp, #-20]
21001854:	e2833001 	add	r3, r3, #1
21001858:	e50b3014 	str	r3, [fp, #-20]
2100185c:	e3a0302f 	mov	r3, #47	; 0x2f
21001860:	e54b301d 	strb	r3, [fp, #-29]
21001864:	e3a03001 	mov	r3, #1
21001868:	e50b3024 	str	r3, [fp, #-36]	; 0x24
2100186c:	ea000009 	b	21001898 <get_dentfromdir+0x1d8>
21001870:	e3a03020 	mov	r3, #32
21001874:	e54b301d 	strb	r3, [fp, #-29]
21001878:	e55b3144 	ldrb	r3, [fp, #-324]	; 0x144
2100187c:	e3530000 	cmp	r3, #0
21001880:	0a000004 	beq	21001898 <get_dentfromdir+0x1d8>
21001884:	e51b3010 	ldr	r3, [fp, #-16]
21001888:	e2833001 	add	r3, r3, #1
2100188c:	e50b3010 	str	r3, [fp, #-16]
21001890:	e3a03001 	mov	r3, #1
21001894:	e50b3024 	str	r3, [fp, #-36]	; 0x24
21001898:	e51b3024 	ldr	r3, [fp, #-36]	; 0x24
2100189c:	e3530000 	cmp	r3, #0
210018a0:	0a000010 	beq	210018e8 <get_dentfromdir+0x228>
210018a4:	e55b301d 	ldrb	r3, [fp, #-29]
210018a8:	e3530020 	cmp	r3, #32
210018ac:	1a000007 	bne	210018d0 <get_dentfromdir+0x210>
210018b0:	e51b3018 	ldr	r3, [fp, #-24]
210018b4:	e593301c 	ldr	r3, [r3, #28]
210018b8:	e1a01003 	mov	r1, r3
210018bc:	e55b301d 	ldrb	r3, [fp, #-29]
210018c0:	e24b2f51 	sub	r2, fp, #324	; 0x144
210018c4:	e59f0354 	ldr	r0, [pc, #852]	; 21001c20 <get_dentfromdir+0x560>
210018c8:	eb000b0b 	bl	210044fc <printf>
210018cc:	ea000005 	b	210018e8 <get_dentfromdir+0x228>
210018d0:	e55b301d 	ldrb	r3, [fp, #-29]
210018d4:	e24b2f51 	sub	r2, fp, #324	; 0x144
210018d8:	e59f0344 	ldr	r0, [pc, #836]	; 21001c24 <get_dentfromdir+0x564>
210018dc:	e1a01002 	mov	r1, r2
210018e0:	e1a02003 	mov	r2, r3
210018e4:	eb000b04 	bl	210044fc <printf>
210018e8:	e51b3018 	ldr	r3, [fp, #-24]
210018ec:	e2833020 	add	r3, r3, #32
210018f0:	e50b3018 	str	r3, [fp, #-24]
210018f4:	ea0000a0 	b	21001b7c <get_dentfromdir+0x4bc>
210018f8:	e24b3f51 	sub	r3, fp, #324	; 0x144
210018fc:	e59f0324 	ldr	r0, [pc, #804]	; 21001c28 <get_dentfromdir+0x568>
21001900:	e1a01003 	mov	r1, r3
21001904:	ebfffac6 	bl	21000424 <debug>
21001908:	ea000003 	b	2100191c <get_dentfromdir+0x25c>
2100190c:	e51b3018 	ldr	r3, [fp, #-24]
21001910:	e2833020 	add	r3, r3, #32
21001914:	e50b3018 	str	r3, [fp, #-24]
21001918:	ea000097 	b	21001b7c <get_dentfromdir+0x4bc>
2100191c:	e51b3018 	ldr	r3, [fp, #-24]
21001920:	e5d33000 	ldrb	r3, [r3]
21001924:	e3530000 	cmp	r3, #0
21001928:	1a00000b 	bne	2100195c <get_dentfromdir+0x29c>
2100192c:	e59b3004 	ldr	r3, [fp, #4]
21001930:	e3530000 	cmp	r3, #0
21001934:	0a000003 	beq	21001948 <get_dentfromdir+0x288>
21001938:	e59f02ec 	ldr	r0, [pc, #748]	; 21001c2c <get_dentfromdir+0x56c>
2100193c:	e51b1010 	ldr	r1, [fp, #-16]
21001940:	e51b2014 	ldr	r2, [fp, #-20]
21001944:	eb000aec 	bl	210044fc <printf>
21001948:	e59f02e0 	ldr	r0, [pc, #736]	; 21001c30 <get_dentfromdir+0x570>
2100194c:	e51b101c 	ldr	r1, [fp, #-28]
21001950:	ebfffab3 	bl	21000424 <debug>
21001954:	e3a03000 	mov	r3, #0
21001958:	ea0000a9 	b	21001c04 <get_dentfromdir+0x544>
2100195c:	e59b3004 	ldr	r3, [fp, #4]
21001960:	e3530000 	cmp	r3, #0
21001964:	0a00000a 	beq	21001994 <get_dentfromdir+0x2d4>
21001968:	e51b3018 	ldr	r3, [fp, #-24]
2100196c:	e1a00003 	mov	r0, r3
21001970:	ebffff2e 	bl	21001630 <mkcksum>
21001974:	e1a03000 	mov	r3, r0
21001978:	e15b20b6 	ldrh	r2, [fp, #-6]
2100197c:	e1520003 	cmp	r2, r3
21001980:	1a000003 	bne	21001994 <get_dentfromdir+0x2d4>
21001984:	e51b3018 	ldr	r3, [fp, #-24]
21001988:	e2833020 	add	r3, r3, #32
2100198c:	e50b3018 	str	r3, [fp, #-24]
21001990:	ea000079 	b	21001b7c <get_dentfromdir+0x4bc>
21001994:	e24b3044 	sub	r3, fp, #68	; 0x44
21001998:	e51b0018 	ldr	r0, [fp, #-24]
2100199c:	e1a01003 	mov	r1, r3
210019a0:	ebfffb61 	bl	2100072c <get_name>
210019a4:	e59b3004 	ldr	r3, [fp, #4]
210019a8:	e3530000 	cmp	r3, #0
210019ac:	0a000032 	beq	21001a7c <get_dentfromdir+0x3bc>
210019b0:	e51b3018 	ldr	r3, [fp, #-24]
210019b4:	e5d3300b 	ldrb	r3, [r3, #11]
210019b8:	e2033010 	and	r3, r3, #16
210019bc:	e50b3034 	str	r3, [fp, #-52]	; 0x34
210019c0:	e3a03000 	mov	r3, #0
210019c4:	e50b302c 	str	r3, [fp, #-44]	; 0x2c
210019c8:	e51b3034 	ldr	r3, [fp, #-52]	; 0x34
210019cc:	e3530000 	cmp	r3, #0
210019d0:	0a000007 	beq	210019f4 <get_dentfromdir+0x334>
210019d4:	e51b3014 	ldr	r3, [fp, #-20]
210019d8:	e2833001 	add	r3, r3, #1
210019dc:	e50b3014 	str	r3, [fp, #-20]
210019e0:	e3a0302f 	mov	r3, #47	; 0x2f
210019e4:	e54b3025 	strb	r3, [fp, #-37]	; 0x25
210019e8:	e3a03001 	mov	r3, #1
210019ec:	e50b302c 	str	r3, [fp, #-44]	; 0x2c
210019f0:	ea000009 	b	21001a1c <get_dentfromdir+0x35c>
210019f4:	e3a03020 	mov	r3, #32
210019f8:	e54b3025 	strb	r3, [fp, #-37]	; 0x25
210019fc:	e55b3044 	ldrb	r3, [fp, #-68]	; 0x44
21001a00:	e3530000 	cmp	r3, #0
21001a04:	0a000004 	beq	21001a1c <get_dentfromdir+0x35c>
21001a08:	e51b3010 	ldr	r3, [fp, #-16]
21001a0c:	e2833001 	add	r3, r3, #1
21001a10:	e50b3010 	str	r3, [fp, #-16]
21001a14:	e3a03001 	mov	r3, #1
21001a18:	e50b302c 	str	r3, [fp, #-44]	; 0x2c
21001a1c:	e51b302c 	ldr	r3, [fp, #-44]	; 0x2c
21001a20:	e3530000 	cmp	r3, #0
21001a24:	0a000010 	beq	21001a6c <get_dentfromdir+0x3ac>
21001a28:	e55b3025 	ldrb	r3, [fp, #-37]	; 0x25
21001a2c:	e3530020 	cmp	r3, #32
21001a30:	1a000007 	bne	21001a54 <get_dentfromdir+0x394>
21001a34:	e51b3018 	ldr	r3, [fp, #-24]
21001a38:	e593301c 	ldr	r3, [r3, #28]
21001a3c:	e1a01003 	mov	r1, r3
21001a40:	e55b3025 	ldrb	r3, [fp, #-37]	; 0x25
21001a44:	e24b2044 	sub	r2, fp, #68	; 0x44
21001a48:	e59f01d0 	ldr	r0, [pc, #464]	; 21001c20 <get_dentfromdir+0x560>
21001a4c:	eb000aaa 	bl	210044fc <printf>
21001a50:	ea000005 	b	21001a6c <get_dentfromdir+0x3ac>
21001a54:	e55b3025 	ldrb	r3, [fp, #-37]	; 0x25
21001a58:	e24b2044 	sub	r2, fp, #68	; 0x44
21001a5c:	e59f01c0 	ldr	r0, [pc, #448]	; 21001c24 <get_dentfromdir+0x564>
21001a60:	e1a01002 	mov	r1, r2
21001a64:	e1a02003 	mov	r2, r3
21001a68:	eb000aa3 	bl	210044fc <printf>
21001a6c:	e51b3018 	ldr	r3, [fp, #-24]
21001a70:	e2833020 	add	r3, r3, #32
21001a74:	e50b3018 	str	r3, [fp, #-24]
21001a78:	ea00003f 	b	21001b7c <get_dentfromdir+0x4bc>
21001a7c:	e24b3044 	sub	r3, fp, #68	; 0x44
21001a80:	e51b0150 	ldr	r0, [fp, #-336]	; 0x150
21001a84:	e1a01003 	mov	r1, r3
21001a88:	eb000762 	bl	21003818 <strcmp>
21001a8c:	e1a03000 	mov	r3, r0
21001a90:	e3530000 	cmp	r3, #0
21001a94:	0a000010 	beq	21001adc <get_dentfromdir+0x41c>
21001a98:	e24b3f51 	sub	r3, fp, #324	; 0x144
21001a9c:	e51b0150 	ldr	r0, [fp, #-336]	; 0x150
21001aa0:	e1a01003 	mov	r1, r3
21001aa4:	eb00075b 	bl	21003818 <strcmp>
21001aa8:	e1a03000 	mov	r3, r0
21001aac:	e3530000 	cmp	r3, #0
21001ab0:	0a000009 	beq	21001adc <get_dentfromdir+0x41c>
21001ab4:	e24b2044 	sub	r2, fp, #68	; 0x44
21001ab8:	e24b3f51 	sub	r3, fp, #324	; 0x144
21001abc:	e59f0170 	ldr	r0, [pc, #368]	; 21001c34 <get_dentfromdir+0x574>
21001ac0:	e1a01002 	mov	r1, r2
21001ac4:	e1a02003 	mov	r2, r3
21001ac8:	ebfffa55 	bl	21000424 <debug>
21001acc:	e51b3018 	ldr	r3, [fp, #-24]
21001ad0:	e2833020 	add	r3, r3, #32
21001ad4:	e50b3018 	str	r3, [fp, #-24]
21001ad8:	ea000027 	b	21001b7c <get_dentfromdir+0x4bc>
21001adc:	e51b0154 	ldr	r0, [fp, #-340]	; 0x154
21001ae0:	e51b1018 	ldr	r1, [fp, #-24]
21001ae4:	e3a02020 	mov	r2, #32
21001ae8:	eb0007ec 	bl	21003aa0 <memcpy>
21001aec:	e24b3044 	sub	r3, fp, #68	; 0x44
21001af0:	e59f0140 	ldr	r0, [pc, #320]	; 21001c38 <get_dentfromdir+0x578>
21001af4:	e1a01003 	mov	r1, r3
21001af8:	ebfffa49 	bl	21000424 <debug>
21001afc:	e51b3018 	ldr	r3, [fp, #-24]
21001b00:	e1d331ba 	ldrh	r3, [r3, #26]
21001b04:	e1a02003 	mov	r2, r3
21001b08:	e51b3148 	ldr	r3, [fp, #-328]	; 0x148
21001b0c:	e5933c00 	ldr	r3, [r3, #3072]	; 0xc00
21001b10:	e3530020 	cmp	r3, #32
21001b14:	1a000003 	bne	21001b28 <get_dentfromdir+0x468>
21001b18:	e51b3018 	ldr	r3, [fp, #-24]
21001b1c:	e1d331b4 	ldrh	r3, [r3, #20]
21001b20:	e1a03803 	lsl	r3, r3, #16
21001b24:	ea000000 	b	21001b2c <get_dentfromdir+0x46c>
21001b28:	e3a03000 	mov	r3, #0
21001b2c:	e0823003 	add	r3, r2, r3
21001b30:	e59f0104 	ldr	r0, [pc, #260]	; 21001c3c <get_dentfromdir+0x57c>
21001b34:	e1a01003 	mov	r1, r3
21001b38:	ebfffa39 	bl	21000424 <debug>
21001b3c:	e51b3018 	ldr	r3, [fp, #-24]
21001b40:	e593201c 	ldr	r2, [r3, #28]
21001b44:	e51b3018 	ldr	r3, [fp, #-24]
21001b48:	e5d3300b 	ldrb	r3, [r3, #11]
21001b4c:	e2033010 	and	r3, r3, #16
21001b50:	e3530000 	cmp	r3, #0
21001b54:	0a000001 	beq	21001b60 <get_dentfromdir+0x4a0>
21001b58:	e59f30e0 	ldr	r3, [pc, #224]	; 21001c40 <get_dentfromdir+0x580>
21001b5c:	ea000000 	b	21001b64 <get_dentfromdir+0x4a4>
21001b60:	e59f30dc 	ldr	r3, [pc, #220]	; 21001c44 <get_dentfromdir+0x584>
21001b64:	e59f00dc 	ldr	r0, [pc, #220]	; 21001c48 <get_dentfromdir+0x588>
21001b68:	e1a01002 	mov	r1, r2
21001b6c:	e1a02003 	mov	r2, r3
21001b70:	ebfffa2b 	bl	21000424 <debug>
21001b74:	e51b3154 	ldr	r3, [fp, #-340]	; 0x154
21001b78:	ea000021 	b	21001c04 <get_dentfromdir+0x544>
21001b7c:	e51b301c 	ldr	r3, [fp, #-28]
21001b80:	e2833001 	add	r3, r3, #1
21001b84:	e50b301c 	str	r3, [fp, #-28]
21001b88:	e51b201c 	ldr	r2, [fp, #-28]
21001b8c:	e51b1148 	ldr	r1, [fp, #-328]	; 0x148
21001b90:	e59f307c 	ldr	r3, [pc, #124]	; 21001c14 <get_dentfromdir+0x554>
21001b94:	e19130b3 	ldrh	r3, [r1, r3]
21001b98:	e1a03483 	lsl	r3, r3, #9
21001b9c:	e1a032a3 	lsr	r3, r3, #5
21001ba0:	e1520003 	cmp	r2, r3
21001ba4:	3afffef9 	bcc	21001790 <get_dentfromdir+0xd0>
21001ba8:	e51b0148 	ldr	r0, [fp, #-328]	; 0x148
21001bac:	e51b100c 	ldr	r1, [fp, #-12]
21001bb0:	ebfffb33 	bl	21000884 <get_fatent>
21001bb4:	e50b000c 	str	r0, [fp, #-12]
21001bb8:	e51b300c 	ldr	r3, [fp, #-12]
21001bbc:	e3530001 	cmp	r3, #1
21001bc0:	9a000009 	bls	21001bec <get_dentfromdir+0x52c>
21001bc4:	e51b3148 	ldr	r3, [fp, #-328]	; 0x148
21001bc8:	e5933c00 	ldr	r3, [r3, #3072]	; 0xc00
21001bcc:	e3530020 	cmp	r3, #32
21001bd0:	0a000001 	beq	21001bdc <get_dentfromdir+0x51c>
21001bd4:	e59f3070 	ldr	r3, [pc, #112]	; 21001c4c <get_dentfromdir+0x58c>
21001bd8:	ea000000 	b	21001be0 <get_dentfromdir+0x520>
21001bdc:	e3e032ff 	mvn	r3, #-268435441	; 0xf000000f
21001be0:	e51b200c 	ldr	r2, [fp, #-12]
21001be4:	e1530002 	cmp	r3, r2
21001be8:	8afffed3 	bhi	2100173c <get_dentfromdir+0x7c>
21001bec:	e59f005c 	ldr	r0, [pc, #92]	; 21001c50 <get_dentfromdir+0x590>
21001bf0:	e51b100c 	ldr	r1, [fp, #-12]
21001bf4:	ebfffa0a 	bl	21000424 <debug>
21001bf8:	e59f0054 	ldr	r0, [pc, #84]	; 21001c54 <get_dentfromdir+0x594>
21001bfc:	eb001507 	bl	21007020 <puts>
21001c00:	e3a03000 	mov	r3, #0
21001c04:	e1a00003 	mov	r0, r3
21001c08:	e24bd004 	sub	sp, fp, #4
21001c0c:	e8bd8800 	pop	{fp, pc}
21001c10:	21007528 	.word	0x21007528
21001c14:	00000c0a 	.word	0x00000c0a
21001c18:	21018018 	.word	0x21018018
21001c1c:	21007508 	.word	0x21007508
21001c20:	21007540 	.word	0x21007540
21001c24:	21007550 	.word	0x21007550
21001c28:	21007564 	.word	0x21007564
21001c2c:	21007574 	.word	0x21007574
21001c30:	21007590 	.word	0x21007590
21001c34:	210075a8 	.word	0x210075a8
21001c38:	210075bc 	.word	0x210075bc
21001c3c:	210075cc 	.word	0x210075cc
21001c40:	210075dc 	.word	0x210075dc
21001c44:	210075e4 	.word	0x210075e4
21001c48:	210075e8 	.word	0x210075e8
21001c4c:	0000fff0 	.word	0x0000fff0
21001c50:	21007474 	.word	0x21007474
21001c54:	21007484 	.word	0x21007484

21001c58 <read_bootsectandvi>:
21001c58:	e92d4800 	push	{fp, lr}
21001c5c:	e28db004 	add	fp, sp, #4
21001c60:	e24ddf86 	sub	sp, sp, #536	; 0x218
21001c64:	e50b0210 	str	r0, [fp, #-528]	; 0x210
21001c68:	e50b1214 	str	r1, [fp, #-532]	; 0x214
21001c6c:	e50b2218 	str	r2, [fp, #-536]	; 0x218
21001c70:	e24b3f82 	sub	r3, fp, #520	; 0x208
21001c74:	e3a00000 	mov	r0, #0
21001c78:	e3a01001 	mov	r1, #1
21001c7c:	e1a02003 	mov	r2, r3
21001c80:	ebfffa0d 	bl	210004bc <disk_read>
21001c84:	e1a03000 	mov	r3, r0
21001c88:	e3530000 	cmp	r3, #0
21001c8c:	aa000003 	bge	21001ca0 <read_bootsectandvi+0x48>
21001c90:	e59f0204 	ldr	r0, [pc, #516]	; 21001e9c <read_bootsectandvi+0x244>
21001c94:	ebfff9e2 	bl	21000424 <debug>
21001c98:	e3e03000 	mvn	r3, #0
21001c9c:	ea00007b 	b	21001e90 <read_bootsectandvi+0x238>
21001ca0:	e24b3f82 	sub	r3, fp, #520	; 0x208
21001ca4:	e51b0210 	ldr	r0, [fp, #-528]	; 0x210
21001ca8:	e1a01003 	mov	r1, r3
21001cac:	e3a02040 	mov	r2, #64	; 0x40
21001cb0:	eb00077a 	bl	21003aa0 <memcpy>
21001cb4:	e51b3210 	ldr	r3, [fp, #-528]	; 0x210
21001cb8:	e1d320be 	ldrh	r2, [r3, #14]
21001cbc:	e51b3210 	ldr	r3, [fp, #-528]	; 0x210
21001cc0:	e1c320be 	strh	r2, [r3, #14]
21001cc4:	e51b3210 	ldr	r3, [fp, #-528]	; 0x210
21001cc8:	e1d321b6 	ldrh	r2, [r3, #22]
21001ccc:	e51b3210 	ldr	r3, [fp, #-528]	; 0x210
21001cd0:	e1c321b6 	strh	r2, [r3, #22]
21001cd4:	e51b3210 	ldr	r3, [fp, #-528]	; 0x210
21001cd8:	e1d321b8 	ldrh	r2, [r3, #24]
21001cdc:	e51b3210 	ldr	r3, [fp, #-528]	; 0x210
21001ce0:	e1c321b8 	strh	r2, [r3, #24]
21001ce4:	e51b3210 	ldr	r3, [fp, #-528]	; 0x210
21001ce8:	e1d321ba 	ldrh	r2, [r3, #26]
21001cec:	e51b3210 	ldr	r3, [fp, #-528]	; 0x210
21001cf0:	e1c321ba 	strh	r2, [r3, #26]
21001cf4:	e51b3210 	ldr	r3, [fp, #-528]	; 0x210
21001cf8:	e5932020 	ldr	r2, [r3, #32]
21001cfc:	e51b3210 	ldr	r3, [fp, #-528]	; 0x210
21001d00:	e5832020 	str	r2, [r3, #32]
21001d04:	e51b3210 	ldr	r3, [fp, #-528]	; 0x210
21001d08:	e1d331b6 	ldrh	r3, [r3, #22]
21001d0c:	e3530000 	cmp	r3, #0
21001d10:	1a000026 	bne	21001db0 <read_bootsectandvi+0x158>
21001d14:	e59f0184 	ldr	r0, [pc, #388]	; 21001ea0 <read_bootsectandvi+0x248>
21001d18:	ebfff9c1 	bl	21000424 <debug>
21001d1c:	e51b3210 	ldr	r3, [fp, #-528]	; 0x210
21001d20:	e5932024 	ldr	r2, [r3, #36]	; 0x24
21001d24:	e51b3210 	ldr	r3, [fp, #-528]	; 0x210
21001d28:	e5832024 	str	r2, [r3, #36]	; 0x24
21001d2c:	e51b3210 	ldr	r3, [fp, #-528]	; 0x210
21001d30:	e1d322b8 	ldrh	r2, [r3, #40]	; 0x28
21001d34:	e51b3210 	ldr	r3, [fp, #-528]	; 0x210
21001d38:	e1c322b8 	strh	r2, [r3, #40]	; 0x28
21001d3c:	e51b3210 	ldr	r3, [fp, #-528]	; 0x210
21001d40:	e593202c 	ldr	r2, [r3, #44]	; 0x2c
21001d44:	e51b3210 	ldr	r3, [fp, #-528]	; 0x210
21001d48:	e583202c 	str	r2, [r3, #44]	; 0x2c
21001d4c:	e51b3210 	ldr	r3, [fp, #-528]	; 0x210
21001d50:	e1d323b0 	ldrh	r2, [r3, #48]	; 0x30
21001d54:	e51b3210 	ldr	r3, [fp, #-528]	; 0x210
21001d58:	e1c323b0 	strh	r2, [r3, #48]	; 0x30
21001d5c:	e51b3210 	ldr	r3, [fp, #-528]	; 0x210
21001d60:	e1d323b2 	ldrh	r2, [r3, #50]	; 0x32
21001d64:	e51b3210 	ldr	r3, [fp, #-528]	; 0x210
21001d68:	e1c323b2 	strh	r2, [r3, #50]	; 0x32
21001d6c:	e24b3f82 	sub	r3, fp, #520	; 0x208
21001d70:	e2833040 	add	r3, r3, #64	; 0x40
21001d74:	e50b3008 	str	r3, [fp, #-8]
21001d78:	e51b3218 	ldr	r3, [fp, #-536]	; 0x218
21001d7c:	e3a02020 	mov	r2, #32
21001d80:	e5832000 	str	r2, [r3]
21001d84:	e51b3210 	ldr	r3, [fp, #-528]	; 0x210
21001d88:	e593302c 	ldr	r3, [r3, #44]	; 0x2c
21001d8c:	e59f0110 	ldr	r0, [pc, #272]	; 21001ea4 <read_bootsectandvi+0x24c>
21001d90:	e1a01003 	mov	r1, r3
21001d94:	ebfff9a2 	bl	21000424 <debug>
21001d98:	e51b3210 	ldr	r3, [fp, #-528]	; 0x210
21001d9c:	e1d333b0 	ldrh	r3, [r3, #48]	; 0x30
21001da0:	e59f0100 	ldr	r0, [pc, #256]	; 21001ea8 <read_bootsectandvi+0x250>
21001da4:	e1a01003 	mov	r1, r3
21001da8:	ebfff99d 	bl	21000424 <debug>
21001dac:	ea000005 	b	21001dc8 <read_bootsectandvi+0x170>
21001db0:	e51b3210 	ldr	r3, [fp, #-528]	; 0x210
21001db4:	e2833024 	add	r3, r3, #36	; 0x24
21001db8:	e50b3008 	str	r3, [fp, #-8]
21001dbc:	e51b3218 	ldr	r3, [fp, #-536]	; 0x218
21001dc0:	e3a02000 	mov	r2, #0
21001dc4:	e5832000 	str	r2, [r3]
21001dc8:	e51b0214 	ldr	r0, [fp, #-532]	; 0x214
21001dcc:	e51b1008 	ldr	r1, [fp, #-8]
21001dd0:	e3a0201a 	mov	r2, #26
21001dd4:	eb000731 	bl	21003aa0 <memcpy>
21001dd8:	e51b3218 	ldr	r3, [fp, #-536]	; 0x218
21001ddc:	e5933000 	ldr	r3, [r3]
21001de0:	e3530020 	cmp	r3, #32
21001de4:	1a00000a 	bne	21001e14 <read_bootsectandvi+0x1bc>
21001de8:	e51b3008 	ldr	r3, [fp, #-8]
21001dec:	e2833012 	add	r3, r3, #18
21001df0:	e59f00b4 	ldr	r0, [pc, #180]	; 21001eac <read_bootsectandvi+0x254>
21001df4:	e1a01003 	mov	r1, r3
21001df8:	e3a02008 	mov	r2, #8
21001dfc:	eb0006a7 	bl	210038a0 <strncmp>
21001e00:	e1a03000 	mov	r3, r0
21001e04:	e3530000 	cmp	r3, #0
21001e08:	1a00001d 	bne	21001e84 <read_bootsectandvi+0x22c>
21001e0c:	e3a03000 	mov	r3, #0
21001e10:	ea00001e 	b	21001e90 <read_bootsectandvi+0x238>
21001e14:	e51b3008 	ldr	r3, [fp, #-8]
21001e18:	e2833012 	add	r3, r3, #18
21001e1c:	e59f008c 	ldr	r0, [pc, #140]	; 21001eb0 <read_bootsectandvi+0x258>
21001e20:	e1a01003 	mov	r1, r3
21001e24:	e3a02008 	mov	r2, #8
21001e28:	eb00069c 	bl	210038a0 <strncmp>
21001e2c:	e1a03000 	mov	r3, r0
21001e30:	e3530000 	cmp	r3, #0
21001e34:	1a000004 	bne	21001e4c <read_bootsectandvi+0x1f4>
21001e38:	e51b3218 	ldr	r3, [fp, #-536]	; 0x218
21001e3c:	e3a0200c 	mov	r2, #12
21001e40:	e5832000 	str	r2, [r3]
21001e44:	e3a03000 	mov	r3, #0
21001e48:	ea000010 	b	21001e90 <read_bootsectandvi+0x238>
21001e4c:	e51b3008 	ldr	r3, [fp, #-8]
21001e50:	e2833012 	add	r3, r3, #18
21001e54:	e59f0058 	ldr	r0, [pc, #88]	; 21001eb4 <read_bootsectandvi+0x25c>
21001e58:	e1a01003 	mov	r1, r3
21001e5c:	e3a02008 	mov	r2, #8
21001e60:	eb00068e 	bl	210038a0 <strncmp>
21001e64:	e1a03000 	mov	r3, r0
21001e68:	e3530000 	cmp	r3, #0
21001e6c:	1a000004 	bne	21001e84 <read_bootsectandvi+0x22c>
21001e70:	e51b3218 	ldr	r3, [fp, #-536]	; 0x218
21001e74:	e3a02010 	mov	r2, #16
21001e78:	e5832000 	str	r2, [r3]
21001e7c:	e3a03000 	mov	r3, #0
21001e80:	ea000002 	b	21001e90 <read_bootsectandvi+0x238>
21001e84:	e59f002c 	ldr	r0, [pc, #44]	; 21001eb8 <read_bootsectandvi+0x260>
21001e88:	ebfff965 	bl	21000424 <debug>
21001e8c:	e3e03000 	mvn	r3, #0
21001e90:	e1a00003 	mov	r0, r3
21001e94:	e24bd004 	sub	sp, fp, #4
21001e98:	e8bd8800 	pop	{fp, pc}
21001e9c:	210075fc 	.word	0x210075fc
21001ea0:	21007614 	.word	0x21007614
21001ea4:	2100762c 	.word	0x2100762c
21001ea8:	21007640 	.word	0x21007640
21001eac:	21007654 	.word	0x21007654
21001eb0:	21007660 	.word	0x21007660
21001eb4:	2100766c 	.word	0x2100766c
21001eb8:	21007678 	.word	0x21007678

21001ebc <do_fat_read>:
21001ebc:	e92d4800 	push	{fp, lr}
21001ec0:	e28db004 	add	fp, sp, #4
21001ec4:	e24ddc16 	sub	sp, sp, #5632	; 0x1600
21001ec8:	e59fcee0 	ldr	ip, [pc, #3808]	; 21002db0 <do_fat_read+0xef4>
21001ecc:	e24be004 	sub	lr, fp, #4
21001ed0:	e78e000c 	str	r0, [lr, ip]
21001ed4:	e59f0ed8 	ldr	r0, [pc, #3800]	; 21002db4 <do_fat_read+0xef8>
21001ed8:	e24bc004 	sub	ip, fp, #4
21001edc:	e78c1000 	str	r1, [ip, r0]
21001ee0:	e59f1ed0 	ldr	r1, [pc, #3792]	; 21002db8 <do_fat_read+0xefc>
21001ee4:	e24be004 	sub	lr, fp, #4
21001ee8:	e78e2001 	str	r2, [lr, r1]
21001eec:	e59f2ec8 	ldr	r2, [pc, #3784]	; 21002dbc <do_fat_read+0xf00>
21001ef0:	e24b0004 	sub	r0, fp, #4
21001ef4:	e7803002 	str	r3, [r0, r2]
21001ef8:	e24b3d53 	sub	r3, fp, #5312	; 0x14c0
21001efc:	e2433004 	sub	r3, r3, #4
21001f00:	e2433018 	sub	r3, r3, #24
21001f04:	e50b3050 	str	r3, [fp, #-80]	; 0x50
21001f08:	e3e03000 	mvn	r3, #0
21001f0c:	e14b30ba 	strh	r3, [fp, #-10]
21001f10:	e59f3ea8 	ldr	r3, [pc, #3752]	; 21002dc0 <do_fat_read+0xf04>
21001f14:	e50b3010 	str	r3, [fp, #-16]
21001f18:	e3a03000 	mov	r3, #0
21001f1c:	e50b3018 	str	r3, [fp, #-24]
21001f20:	e3a03000 	mov	r3, #0
21001f24:	e50b301c 	str	r3, [fp, #-28]
21001f28:	e3a03000 	mov	r3, #0
21001f2c:	e50b3020 	str	r3, [fp, #-32]
21001f30:	e3a03000 	mov	r3, #0
21001f34:	e50b3054 	str	r3, [fp, #-84]	; 0x54
21001f38:	e3a03000 	mov	r3, #0
21001f3c:	e50b302c 	str	r3, [fp, #-44]	; 0x2c
21001f40:	e3a03000 	mov	r3, #0
21001f44:	e50b3034 	str	r3, [fp, #-52]	; 0x34
21001f48:	e51b3050 	ldr	r3, [fp, #-80]	; 0x50
21001f4c:	e283cb03 	add	ip, r3, #3072	; 0xc00
21001f50:	e24b2e8a 	sub	r2, fp, #2208	; 0x8a0
21001f54:	e2422004 	sub	r2, r2, #4
21001f58:	e2422008 	sub	r2, r2, #8
21001f5c:	e24b3d23 	sub	r3, fp, #2240	; 0x8c0
21001f60:	e2433004 	sub	r3, r3, #4
21001f64:	e2433004 	sub	r3, r3, #4
21001f68:	e1a00002 	mov	r0, r2
21001f6c:	e1a01003 	mov	r1, r3
21001f70:	e1a0200c 	mov	r2, ip
21001f74:	ebffff37 	bl	21001c58 <read_bootsectandvi>
21001f78:	e1a03000 	mov	r3, r0
21001f7c:	e3530000 	cmp	r3, #0
21001f80:	0a000003 	beq	21001f94 <do_fat_read+0xd8>
21001f84:	e59f0e38 	ldr	r0, [pc, #3640]	; 21002dc4 <do_fat_read+0xf08>
21001f88:	ebfff925 	bl	21000424 <debug>
21001f8c:	e3e03000 	mvn	r3, #0
21001f90:	ea0003d2 	b	21002ee0 <do_fat_read+0x1024>
21001f94:	e59f3e1c 	ldr	r3, [pc, #3612]	; 21002db8 <do_fat_read+0xefc>
21001f98:	e59f0e28 	ldr	r0, [pc, #3624]	; 21002dc8 <do_fat_read+0xf0c>
21001f9c:	e24b2004 	sub	r2, fp, #4
21001fa0:	e7921003 	ldr	r1, [r2, r3]
21001fa4:	ebfff91e 	bl	21000424 <debug>
21001fa8:	e51b3880 	ldr	r3, [fp, #-2176]	; 0x880
21001fac:	e50b3028 	str	r3, [fp, #-40]	; 0x28
21001fb0:	e51b3050 	ldr	r3, [fp, #-80]	; 0x50
21001fb4:	e5933c00 	ldr	r3, [r3, #3072]	; 0xc00
21001fb8:	e3530020 	cmp	r3, #32
21001fbc:	1a000005 	bne	21001fd8 <do_fat_read+0x11c>
21001fc0:	e51b3888 	ldr	r3, [fp, #-2184]	; 0x888
21001fc4:	e6ff1073 	uxth	r1, r3
21001fc8:	e51b2050 	ldr	r2, [fp, #-80]	; 0x50
21001fcc:	e59f3df8 	ldr	r3, [pc, #3576]	; 21002dcc <do_fat_read+0xf10>
21001fd0:	e18210b3 	strh	r1, [r2, r3]
21001fd4:	ea000005 	b	21001ff0 <do_fat_read+0x134>
21001fd8:	e59f3df0 	ldr	r3, [pc, #3568]	; 21002dd0 <do_fat_read+0xf14>
21001fdc:	e24bc004 	sub	ip, fp, #4
21001fe0:	e19c10b3 	ldrh	r1, [ip, r3]
21001fe4:	e51b2050 	ldr	r2, [fp, #-80]	; 0x50
21001fe8:	e59f3ddc 	ldr	r3, [pc, #3548]	; 21002dcc <do_fat_read+0xf10>
21001fec:	e18210b3 	strh	r1, [r2, r3]
21001ff0:	e59f3ddc 	ldr	r3, [pc, #3548]	; 21002dd4 <do_fat_read+0xf18>
21001ff4:	e24be004 	sub	lr, fp, #4
21001ff8:	e19e10b3 	ldrh	r1, [lr, r3]
21001ffc:	e51b2050 	ldr	r2, [fp, #-80]	; 0x50
21002000:	e59f3dd0 	ldr	r3, [pc, #3536]	; 21002dd8 <do_fat_read+0xf1c>
21002004:	e18210b3 	strh	r1, [r2, r3]
21002008:	e51b2050 	ldr	r2, [fp, #-80]	; 0x50
2100200c:	e59f3dc4 	ldr	r3, [pc, #3524]	; 21002dd8 <do_fat_read+0xf1c>
21002010:	e19220b3 	ldrh	r2, [r2, r3]
21002014:	e51b1050 	ldr	r1, [fp, #-80]	; 0x50
21002018:	e59f3dac 	ldr	r3, [pc, #3500]	; 21002dcc <do_fat_read+0xf10>
2100201c:	e19130b3 	ldrh	r3, [r1, r3]
21002020:	e55b189c 	ldrb	r1, [fp, #-2204]	; 0x89c
21002024:	e0030391 	mul	r3, r1, r3
21002028:	e6ff3073 	uxth	r3, r3
2100202c:	e0823003 	add	r3, r2, r3
21002030:	e6ff1073 	uxth	r1, r3
21002034:	e51b2050 	ldr	r2, [fp, #-80]	; 0x50
21002038:	e59f3d9c 	ldr	r3, [pc, #3484]	; 21002ddc <do_fat_read+0xf20>
2100203c:	e18210b3 	strh	r1, [r2, r3]
21002040:	e51b2050 	ldr	r2, [fp, #-80]	; 0x50
21002044:	e59f3d90 	ldr	r3, [pc, #3472]	; 21002ddc <do_fat_read+0xf20>
21002048:	e19230b3 	ldrh	r3, [r2, r3]
2100204c:	e50b3014 	str	r3, [fp, #-20]
21002050:	e51b2050 	ldr	r2, [fp, #-80]	; 0x50
21002054:	e59f3d70 	ldr	r3, [pc, #3440]	; 21002dcc <do_fat_read+0xf10>
21002058:	e19230b3 	ldrh	r3, [r2, r3]
2100205c:	e59f0d7c 	ldr	r0, [pc, #3452]	; 21002de0 <do_fat_read+0xf24>
21002060:	e1a01003 	mov	r1, r3
21002064:	ebfff8ee 	bl	21000424 <debug>
21002068:	e55b389c 	ldrb	r3, [fp, #-2204]	; 0x89c
2100206c:	e59f0d70 	ldr	r0, [pc, #3440]	; 21002de4 <do_fat_read+0xf28>
21002070:	e1a01003 	mov	r1, r3
21002074:	ebfff8ea 	bl	21000424 <debug>
21002078:	e51b2050 	ldr	r2, [fp, #-80]	; 0x50
2100207c:	e59f3d54 	ldr	r3, [pc, #3412]	; 21002dd8 <do_fat_read+0xf1c>
21002080:	e19230b3 	ldrh	r3, [r2, r3]
21002084:	e59f0d5c 	ldr	r0, [pc, #3420]	; 21002de8 <do_fat_read+0xf2c>
21002088:	e1a01003 	mov	r1, r3
2100208c:	ebfff8e4 	bl	21000424 <debug>
21002090:	e51b2050 	ldr	r2, [fp, #-80]	; 0x50
21002094:	e59f3d40 	ldr	r3, [pc, #3392]	; 21002ddc <do_fat_read+0xf20>
21002098:	e19230b3 	ldrh	r3, [r2, r3]
2100209c:	e59f0d48 	ldr	r0, [pc, #3400]	; 21002dec <do_fat_read+0xf30>
210020a0:	e1a01003 	mov	r1, r3
210020a4:	ebfff8de 	bl	21000424 <debug>
210020a8:	e55b389f 	ldrb	r3, [fp, #-2207]	; 0x89f
210020ac:	e1a01003 	mov	r1, r3
210020b0:	e51b2050 	ldr	r2, [fp, #-80]	; 0x50
210020b4:	e59f3d34 	ldr	r3, [pc, #3380]	; 21002df0 <do_fat_read+0xf34>
210020b8:	e18210b3 	strh	r1, [r2, r3]
210020bc:	e51b2050 	ldr	r2, [fp, #-80]	; 0x50
210020c0:	e59f3d28 	ldr	r3, [pc, #3368]	; 21002df0 <do_fat_read+0xf34>
210020c4:	e19230b3 	ldrh	r3, [r2, r3]
210020c8:	e59f0d24 	ldr	r0, [pc, #3364]	; 21002df4 <do_fat_read+0xf38>
210020cc:	e1a01003 	mov	r1, r3
210020d0:	ebfff8d3 	bl	21000424 <debug>
210020d4:	e51b3050 	ldr	r3, [fp, #-80]	; 0x50
210020d8:	e5933c00 	ldr	r3, [r3, #3072]	; 0xc00
210020dc:	e59f0d14 	ldr	r0, [pc, #3348]	; 21002df8 <do_fat_read+0xf3c>
210020e0:	e1a01003 	mov	r1, r3
210020e4:	ebfff8ce 	bl	21000424 <debug>
210020e8:	e51b3050 	ldr	r3, [fp, #-80]	; 0x50
210020ec:	e5933c00 	ldr	r3, [r3, #3072]	; 0xc00
210020f0:	e3530020 	cmp	r3, #32
210020f4:	1a000011 	bne	21002140 <do_fat_read+0x284>
210020f8:	e51b2050 	ldr	r2, [fp, #-80]	; 0x50
210020fc:	e59f3cd8 	ldr	r3, [pc, #3288]	; 21002ddc <do_fat_read+0xf20>
21002100:	e19220b3 	ldrh	r2, [r2, r3]
21002104:	e51b1050 	ldr	r1, [fp, #-80]	; 0x50
21002108:	e59f3ce0 	ldr	r3, [pc, #3296]	; 21002df0 <do_fat_read+0xf34>
2100210c:	e19130b3 	ldrh	r3, [r1, r3]
21002110:	e1a01003 	mov	r1, r3
21002114:	e1a01781 	lsl	r1, r1, #15
21002118:	e0633001 	rsb	r3, r3, r1
2100211c:	e1a03083 	lsl	r3, r3, #1
21002120:	e6ff3073 	uxth	r3, r3
21002124:	e0823003 	add	r3, r2, r3
21002128:	e6ff3073 	uxth	r3, r3
2100212c:	e6ff1073 	uxth	r1, r3
21002130:	e51b2050 	ldr	r2, [fp, #-80]	; 0x50
21002134:	e59f3cc0 	ldr	r3, [pc, #3264]	; 21002dfc <do_fat_read+0xf40>
21002138:	e18210b3 	strh	r1, [r2, r3]
2100213c:	ea00001b 	b	210021b0 <do_fat_read+0x2f4>
21002140:	e55b389a 	ldrb	r3, [fp, #-2202]	; 0x89a
21002144:	e1a02403 	lsl	r2, r3, #8
21002148:	e55b389b 	ldrb	r3, [fp, #-2203]	; 0x89b
2100214c:	e0823003 	add	r3, r2, r3
21002150:	e1a03283 	lsl	r3, r3, #5
21002154:	e1a034a3 	lsr	r3, r3, #9
21002158:	e50b302c 	str	r3, [fp, #-44]	; 0x2c
2100215c:	e51b2050 	ldr	r2, [fp, #-80]	; 0x50
21002160:	e59f3c74 	ldr	r3, [pc, #3188]	; 21002ddc <do_fat_read+0xf20>
21002164:	e19220b3 	ldrh	r2, [r2, r3]
21002168:	e51b302c 	ldr	r3, [fp, #-44]	; 0x2c
2100216c:	e6ff3073 	uxth	r3, r3
21002170:	e0823003 	add	r3, r2, r3
21002174:	e6ff2073 	uxth	r2, r3
21002178:	e51b1050 	ldr	r1, [fp, #-80]	; 0x50
2100217c:	e59f3c6c 	ldr	r3, [pc, #3180]	; 21002df0 <do_fat_read+0xf34>
21002180:	e19130b3 	ldrh	r3, [r1, r3]
21002184:	e1a01003 	mov	r1, r3
21002188:	e1a01781 	lsl	r1, r1, #15
2100218c:	e0633001 	rsb	r3, r3, r1
21002190:	e1a03083 	lsl	r3, r3, #1
21002194:	e6ff3073 	uxth	r3, r3
21002198:	e0823003 	add	r3, r2, r3
2100219c:	e6ff3073 	uxth	r3, r3
210021a0:	e6ff1073 	uxth	r1, r3
210021a4:	e51b2050 	ldr	r2, [fp, #-80]	; 0x50
210021a8:	e59f3c4c 	ldr	r3, [pc, #3148]	; 21002dfc <do_fat_read+0xf40>
210021ac:	e18210b3 	strh	r1, [r2, r3]
210021b0:	e51b3050 	ldr	r3, [fp, #-80]	; 0x50
210021b4:	e3e02000 	mvn	r2, #0
210021b8:	e5832c10 	str	r2, [r3, #3088]	; 0xc10
210021bc:	e59f0c3c 	ldr	r0, [pc, #3132]	; 21002e00 <do_fat_read+0xf44>
210021c0:	ebfff897 	bl	21000424 <debug>
210021c4:	e51b3050 	ldr	r3, [fp, #-80]	; 0x50
210021c8:	e5931c00 	ldr	r1, [r3, #3072]	; 0xc00
210021cc:	e51b2050 	ldr	r2, [fp, #-80]	; 0x50
210021d0:	e59f3c00 	ldr	r3, [pc, #3072]	; 21002dd8 <do_fat_read+0xf1c>
210021d4:	e19230b3 	ldrh	r3, [r2, r3]
210021d8:	e1a02003 	mov	r2, r3
210021dc:	e51b0050 	ldr	r0, [fp, #-80]	; 0x50
210021e0:	e59f3be4 	ldr	r3, [pc, #3044]	; 21002dcc <do_fat_read+0xf10>
210021e4:	e19030b3 	ldrh	r3, [r0, r3]
210021e8:	e59f0c14 	ldr	r0, [pc, #3092]	; 21002e04 <do_fat_read+0xf48>
210021ec:	ebfff88c 	bl	21000424 <debug>
210021f0:	e51b2050 	ldr	r2, [fp, #-80]	; 0x50
210021f4:	e59f3be0 	ldr	r3, [pc, #3040]	; 21002ddc <do_fat_read+0xf20>
210021f8:	e19230b3 	ldrh	r3, [r2, r3]
210021fc:	e1a02003 	mov	r2, r3
21002200:	e51b1050 	ldr	r1, [fp, #-80]	; 0x50
21002204:	e59f3bd0 	ldr	r3, [pc, #3024]	; 21002ddc <do_fat_read+0xf20>
21002208:	e19130b3 	ldrh	r3, [r1, r3]
2100220c:	e1a03483 	lsl	r3, r3, #9
21002210:	e51b0050 	ldr	r0, [fp, #-80]	; 0x50
21002214:	e59f1be0 	ldr	r1, [pc, #3040]	; 21002dfc <do_fat_read+0xf40>
21002218:	e19010b1 	ldrh	r1, [r0, r1]
2100221c:	e6bf1071 	sxth	r1, r1
21002220:	e58d1000 	str	r1, [sp]
21002224:	e59f0bdc 	ldr	r0, [pc, #3036]	; 21002e08 <do_fat_read+0xf4c>
21002228:	e51b1028 	ldr	r1, [fp, #-40]	; 0x28
2100222c:	ebfff87c 	bl	21000424 <debug>
21002230:	e51b2050 	ldr	r2, [fp, #-80]	; 0x50
21002234:	e59f3bb4 	ldr	r3, [pc, #2996]	; 21002df0 <do_fat_read+0xf34>
21002238:	e19230b3 	ldrh	r3, [r2, r3]
2100223c:	e59f0bc8 	ldr	r0, [pc, #3016]	; 21002e0c <do_fat_read+0xf50>
21002240:	e1a01003 	mov	r1, r3
21002244:	ebfff876 	bl	21000424 <debug>
21002248:	e59f3b60 	ldr	r3, [pc, #2912]	; 21002db0 <do_fat_read+0xef4>
2100224c:	e59f0bbc 	ldr	r0, [pc, #3004]	; 21002e10 <do_fat_read+0xf54>
21002250:	e24b2004 	sub	r2, fp, #4
21002254:	e7921003 	ldr	r1, [r2, r3]
21002258:	eb0008a7 	bl	210044fc <printf>
2100225c:	ea000006 	b	2100227c <do_fat_read+0x3c0>
21002260:	e59f3b48 	ldr	r3, [pc, #2888]	; 21002db0 <do_fat_read+0xef4>
21002264:	e59f2b44 	ldr	r2, [pc, #2884]	; 21002db0 <do_fat_read+0xef4>
21002268:	e24bc004 	sub	ip, fp, #4
2100226c:	e79c2002 	ldr	r2, [ip, r2]
21002270:	e2822001 	add	r2, r2, #1
21002274:	e24be004 	sub	lr, fp, #4
21002278:	e78e2003 	str	r2, [lr, r3]
2100227c:	e59f3b2c 	ldr	r3, [pc, #2860]	; 21002db0 <do_fat_read+0xef4>
21002280:	e24b0004 	sub	r0, fp, #4
21002284:	e7903003 	ldr	r3, [r0, r3]
21002288:	e5d33000 	ldrb	r3, [r3]
2100228c:	e353002f 	cmp	r3, #47	; 0x2f
21002290:	0afffff2 	beq	21002260 <do_fat_read+0x3a4>
21002294:	e59f3b14 	ldr	r3, [pc, #2836]	; 21002db0 <do_fat_read+0xef4>
21002298:	e24b1004 	sub	r1, fp, #4
2100229c:	e7913003 	ldr	r3, [r1, r3]
210022a0:	e5d33000 	ldrb	r3, [r3]
210022a4:	e353005c 	cmp	r3, #92	; 0x5c
210022a8:	0affffec 	beq	21002260 <do_fat_read+0x3a4>
210022ac:	e24b3e86 	sub	r3, fp, #2144	; 0x860
210022b0:	e2433004 	sub	r3, r3, #4
210022b4:	e2433008 	sub	r3, r3, #8
210022b8:	e59f2af0 	ldr	r2, [pc, #2800]	; 21002db0 <do_fat_read+0xef4>
210022bc:	e1a00003 	mov	r0, r3
210022c0:	e24b3004 	sub	r3, fp, #4
210022c4:	e7931002 	ldr	r1, [r3, r2]
210022c8:	eb00059f 	bl	2100394c <strcpy>
210022cc:	e24b3e86 	sub	r3, fp, #2144	; 0x860
210022d0:	e2433004 	sub	r3, r3, #4
210022d4:	e2433008 	sub	r3, r3, #8
210022d8:	e1a00003 	mov	r0, r3
210022dc:	ebfff859 	bl	21000448 <downcase>
210022e0:	e24b3e86 	sub	r3, fp, #2144	; 0x860
210022e4:	e2433004 	sub	r3, r3, #4
210022e8:	e2433008 	sub	r3, r3, #8
210022ec:	e59f0b20 	ldr	r0, [pc, #2848]	; 21002e14 <do_fat_read+0xf58>
210022f0:	e1a01003 	mov	r1, r3
210022f4:	ebfff84a 	bl	21000424 <debug>
210022f8:	e55b386c 	ldrb	r3, [fp, #-2156]	; 0x86c
210022fc:	e3530000 	cmp	r3, #0
21002300:	1a00000b 	bne	21002334 <do_fat_read+0x478>
21002304:	e59f3ab0 	ldr	r3, [pc, #2736]	; 21002dbc <do_fat_read+0xf00>
21002308:	e24bc004 	sub	ip, fp, #4
2100230c:	e79c3003 	ldr	r3, [ip, r3]
21002310:	e3530000 	cmp	r3, #0
21002314:	1a000001 	bne	21002320 <do_fat_read+0x464>
21002318:	e3e03000 	mvn	r3, #0
2100231c:	ea0002ef 	b	21002ee0 <do_fat_read+0x1024>
21002320:	e59f3a94 	ldr	r3, [pc, #2708]	; 21002dbc <do_fat_read+0xf00>
21002324:	e3a02002 	mov	r2, #2
21002328:	e24be004 	sub	lr, fp, #4
2100232c:	e78e2003 	str	r2, [lr, r3]
21002330:	ea00002c 	b	210023e8 <do_fat_read+0x52c>
21002334:	e24b3e86 	sub	r3, fp, #2144	; 0x860
21002338:	e2433004 	sub	r3, r3, #4
2100233c:	e2433008 	sub	r3, r3, #8
21002340:	e1a00003 	mov	r0, r3
21002344:	ebfff8d9 	bl	210006b0 <dirdelim>
21002348:	e50b0058 	str	r0, [fp, #-88]	; 0x58
2100234c:	e51b3058 	ldr	r3, [fp, #-88]	; 0x58
21002350:	e3530000 	cmp	r3, #0
21002354:	ba00001c 	blt	210023cc <do_fat_read+0x510>
21002358:	e3a03001 	mov	r3, #1
2100235c:	e50b3018 	str	r3, [fp, #-24]
21002360:	e59f3ab0 	ldr	r3, [pc, #2736]	; 21002e18 <do_fat_read+0xf5c>
21002364:	e51b2058 	ldr	r2, [fp, #-88]	; 0x58
21002368:	e24b0004 	sub	r0, fp, #4
2100236c:	e0802002 	add	r2, r0, r2
21002370:	e0823003 	add	r3, r2, r3
21002374:	e3a02000 	mov	r2, #0
21002378:	e5c32000 	strb	r2, [r3]
2100237c:	e51b3058 	ldr	r3, [fp, #-88]	; 0x58
21002380:	e2832001 	add	r2, r3, #1
21002384:	e24b3e86 	sub	r3, fp, #2144	; 0x860
21002388:	e2433004 	sub	r3, r3, #4
2100238c:	e2433008 	sub	r3, r3, #8
21002390:	e0833002 	add	r3, r3, r2
21002394:	e50b3010 	str	r3, [fp, #-16]
21002398:	ea000002 	b	210023a8 <do_fat_read+0x4ec>
2100239c:	e51b3010 	ldr	r3, [fp, #-16]
210023a0:	e2833001 	add	r3, r3, #1
210023a4:	e50b3010 	str	r3, [fp, #-16]
210023a8:	e51b3010 	ldr	r3, [fp, #-16]
210023ac:	e5d33000 	ldrb	r3, [r3]
210023b0:	e353002f 	cmp	r3, #47	; 0x2f
210023b4:	0afffff8 	beq	2100239c <do_fat_read+0x4e0>
210023b8:	e51b3010 	ldr	r3, [fp, #-16]
210023bc:	e5d33000 	ldrb	r3, [r3]
210023c0:	e353005c 	cmp	r3, #92	; 0x5c
210023c4:	0afffff4 	beq	2100239c <do_fat_read+0x4e0>
210023c8:	ea000006 	b	210023e8 <do_fat_read+0x52c>
210023cc:	e59f39e8 	ldr	r3, [pc, #2536]	; 21002dbc <do_fat_read+0xf00>
210023d0:	e24b1004 	sub	r1, fp, #4
210023d4:	e7913003 	ldr	r3, [r1, r3]
210023d8:	e3530000 	cmp	r3, #0
210023dc:	0a000001 	beq	210023e8 <do_fat_read+0x52c>
210023e0:	e3a03001 	mov	r3, #1
210023e4:	e50b3018 	str	r3, [fp, #-24]
210023e8:	e59f0a2c 	ldr	r0, [pc, #2604]	; 21002e1c <do_fat_read+0xf60>
210023ec:	e51b1018 	ldr	r1, [fp, #-24]
210023f0:	e51b2010 	ldr	r2, [fp, #-16]
210023f4:	ebfff80a 	bl	21000424 <debug>
210023f8:	e3a03000 	mov	r3, #0
210023fc:	e50b3030 	str	r3, [fp, #-48]	; 0x30
21002400:	ea000002 	b	21002410 <do_fat_read+0x554>
21002404:	e1a00000 	nop			; (mov r0, r0)
21002408:	ea000000 	b	21002410 <do_fat_read+0x554>
2100240c:	e1a00000 	nop			; (mov r0, r0)
21002410:	e51b2050 	ldr	r2, [fp, #-80]	; 0x50
21002414:	e59f39d4 	ldr	r3, [pc, #2516]	; 21002df0 <do_fat_read+0xf34>
21002418:	e19230b3 	ldrh	r3, [r2, r3]
2100241c:	e59f09fc 	ldr	r0, [pc, #2556]	; 21002e20 <do_fat_read+0xf64>
21002420:	e51b1014 	ldr	r1, [fp, #-20]
21002424:	e1a02003 	mov	r2, r3
21002428:	e3a03010 	mov	r3, #16
2100242c:	ebfff7fc 	bl	21000424 <debug>
21002430:	e51b3050 	ldr	r3, [fp, #-80]	; 0x50
21002434:	e5933c00 	ldr	r3, [r3, #3072]	; 0xc00
21002438:	e3530020 	cmp	r3, #32
2100243c:	1a000003 	bne	21002450 <do_fat_read+0x594>
21002440:	e51b2050 	ldr	r2, [fp, #-80]	; 0x50
21002444:	e59f39a4 	ldr	r3, [pc, #2468]	; 21002df0 <do_fat_read+0xf34>
21002448:	e19230b3 	ldrh	r3, [r2, r3]
2100244c:	ea000000 	b	21002454 <do_fat_read+0x598>
21002450:	e3a03002 	mov	r3, #2
21002454:	e51b0014 	ldr	r0, [fp, #-20]
21002458:	e1a01003 	mov	r1, r3
2100245c:	e59f29c0 	ldr	r2, [pc, #2496]	; 21002e24 <do_fat_read+0xf68>
21002460:	ebfff815 	bl	210004bc <disk_read>
21002464:	e1a03000 	mov	r3, r0
21002468:	e3530000 	cmp	r3, #0
2100246c:	aa000003 	bge	21002480 <do_fat_read+0x5c4>
21002470:	e59f09b0 	ldr	r0, [pc, #2480]	; 21002e28 <do_fat_read+0xf6c>
21002474:	ebfff7ea 	bl	21000424 <debug>
21002478:	e3e03000 	mvn	r3, #0
2100247c:	ea000297 	b	21002ee0 <do_fat_read+0x1024>
21002480:	e59f399c 	ldr	r3, [pc, #2460]	; 21002e24 <do_fat_read+0xf68>
21002484:	e50b3008 	str	r3, [fp, #-8]
21002488:	e3a03000 	mov	r3, #0
2100248c:	e50b3038 	str	r3, [fp, #-56]	; 0x38
21002490:	ea000165 	b	21002a2c <do_fat_read+0xb70>
21002494:	e51b3008 	ldr	r3, [fp, #-8]
21002498:	e59f098c 	ldr	r0, [pc, #2444]	; 21002e2c <do_fat_read+0xf70>
2100249c:	e51b1038 	ldr	r1, [fp, #-56]	; 0x38
210024a0:	e1a02003 	mov	r2, r3
210024a4:	ebfff7de 	bl	21000424 <debug>
210024a8:	e59f3980 	ldr	r3, [pc, #2432]	; 21002e30 <do_fat_read+0xf74>
210024ac:	e3a02000 	mov	r2, #0
210024b0:	e24bc004 	sub	ip, fp, #4
210024b4:	e7cc2003 	strb	r2, [ip, r3]
210024b8:	e51b3008 	ldr	r3, [fp, #-8]
210024bc:	e5d33000 	ldrb	r3, [r3]
210024c0:	e35300e5 	cmp	r3, #229	; 0xe5
210024c4:	1a000003 	bne	210024d8 <do_fat_read+0x61c>
210024c8:	e51b3008 	ldr	r3, [fp, #-8]
210024cc:	e2833020 	add	r3, r3, #32
210024d0:	e50b3008 	str	r3, [fp, #-8]
210024d4:	ea000151 	b	21002a20 <do_fat_read+0xb64>
210024d8:	e51b3008 	ldr	r3, [fp, #-8]
210024dc:	e5d3300b 	ldrb	r3, [r3, #11]
210024e0:	e2033008 	and	r3, r3, #8
210024e4:	e3530000 	cmp	r3, #0
210024e8:	0a000081 	beq	210026f4 <do_fat_read+0x838>
210024ec:	e51b3008 	ldr	r3, [fp, #-8]
210024f0:	e5d3300b 	ldrb	r3, [r3, #11]
210024f4:	e203300f 	and	r3, r3, #15
210024f8:	e3530000 	cmp	r3, #0
210024fc:	0a000078 	beq	210026e4 <do_fat_read+0x828>
21002500:	e51b3008 	ldr	r3, [fp, #-8]
21002504:	e5d33000 	ldrb	r3, [r3]
21002508:	e2033040 	and	r3, r3, #64	; 0x40
2100250c:	e3530000 	cmp	r3, #0
21002510:	0a000073 	beq	210026e4 <do_fat_read+0x828>
21002514:	e51b3008 	ldr	r3, [fp, #-8]
21002518:	e5d3300d 	ldrb	r3, [r3, #13]
2100251c:	e14b30ba 	strh	r3, [fp, #-10]
21002520:	e51b3050 	ldr	r3, [fp, #-80]	; 0x50
21002524:	e5933c00 	ldr	r3, [r3, #3072]	; 0xc00
21002528:	e3530020 	cmp	r3, #32
2100252c:	1a000001 	bne	21002538 <do_fat_read+0x67c>
21002530:	e51b2028 	ldr	r2, [fp, #-40]	; 0x28
21002534:	ea000000 	b	2100253c <do_fat_read+0x680>
21002538:	e3a02000 	mov	r2, #0
2100253c:	e24b3d57 	sub	r3, fp, #5568	; 0x15c0
21002540:	e2433004 	sub	r3, r3, #4
21002544:	e2433028 	sub	r3, r3, #40	; 0x28
21002548:	e58d3000 	str	r3, [sp]
2100254c:	e51b0050 	ldr	r0, [fp, #-80]	; 0x50
21002550:	e1a01002 	mov	r1, r2
21002554:	e59f28c8 	ldr	r2, [pc, #2248]	; 21002e24 <do_fat_read+0xf68>
21002558:	e51b3008 	ldr	r3, [fp, #-8]
2100255c:	ebfffb68 	bl	21001304 <get_vfatname>
21002560:	e24b3d57 	sub	r3, fp, #5568	; 0x15c0
21002564:	e2433004 	sub	r3, r3, #4
21002568:	e2433028 	sub	r3, r3, #40	; 0x28
2100256c:	e59f08c0 	ldr	r0, [pc, #2240]	; 21002e34 <do_fat_read+0xf78>
21002570:	e1a01003 	mov	r1, r3
21002574:	ebfff7aa 	bl	21000424 <debug>
21002578:	e59f383c 	ldr	r3, [pc, #2108]	; 21002dbc <do_fat_read+0xf00>
2100257c:	e24be004 	sub	lr, fp, #4
21002580:	e79e3003 	ldr	r3, [lr, r3]
21002584:	e3530002 	cmp	r3, #2
21002588:	1a00004e 	bne	210026c8 <do_fat_read+0x80c>
2100258c:	e3a03000 	mov	r3, #0
21002590:	e50b3040 	str	r3, [fp, #-64]	; 0x40
21002594:	e51b3008 	ldr	r3, [fp, #-8]
21002598:	e5d3300b 	ldrb	r3, [r3, #11]
2100259c:	e2033010 	and	r3, r3, #16
210025a0:	e50b305c 	str	r3, [fp, #-92]	; 0x5c
210025a4:	e51b305c 	ldr	r3, [fp, #-92]	; 0x5c
210025a8:	e3530000 	cmp	r3, #0
210025ac:	0a00000e 	beq	210025ec <do_fat_read+0x730>
210025b0:	e51b3020 	ldr	r3, [fp, #-32]
210025b4:	e2833001 	add	r3, r3, #1
210025b8:	e50b3020 	str	r3, [fp, #-32]
210025bc:	e3a0302f 	mov	r3, #47	; 0x2f
210025c0:	e54b3039 	strb	r3, [fp, #-57]	; 0x39
210025c4:	e3a03001 	mov	r3, #1
210025c8:	e50b3040 	str	r3, [fp, #-64]	; 0x40
210025cc:	e24b3d57 	sub	r3, fp, #5568	; 0x15c0
210025d0:	e2433004 	sub	r3, r3, #4
210025d4:	e2433028 	sub	r3, r3, #40	; 0x28
210025d8:	e59f0858 	ldr	r0, [pc, #2136]	; 21002e38 <do_fat_read+0xf7c>
210025dc:	e51b1020 	ldr	r1, [fp, #-32]
210025e0:	e1a02003 	mov	r2, r3
210025e4:	ebfff78e 	bl	21000424 <debug>
210025e8:	ea000012 	b	21002638 <do_fat_read+0x77c>
210025ec:	e3a03020 	mov	r3, #32
210025f0:	e54b3039 	strb	r3, [fp, #-57]	; 0x39
210025f4:	e59f3834 	ldr	r3, [pc, #2100]	; 21002e30 <do_fat_read+0xf74>
210025f8:	e24b0004 	sub	r0, fp, #4
210025fc:	e7d03003 	ldrb	r3, [r0, r3]
21002600:	e3530000 	cmp	r3, #0
21002604:	0a000004 	beq	2100261c <do_fat_read+0x760>
21002608:	e51b301c 	ldr	r3, [fp, #-28]
2100260c:	e2833001 	add	r3, r3, #1
21002610:	e50b301c 	str	r3, [fp, #-28]
21002614:	e3a03001 	mov	r3, #1
21002618:	e50b3040 	str	r3, [fp, #-64]	; 0x40
2100261c:	e24b3d57 	sub	r3, fp, #5568	; 0x15c0
21002620:	e2433004 	sub	r3, r3, #4
21002624:	e2433028 	sub	r3, r3, #40	; 0x28
21002628:	e59f080c 	ldr	r0, [pc, #2060]	; 21002e3c <do_fat_read+0xf80>
2100262c:	e51b101c 	ldr	r1, [fp, #-28]
21002630:	e1a02003 	mov	r2, r3
21002634:	ebfff77a 	bl	21000424 <debug>
21002638:	e24b3d57 	sub	r3, fp, #5568	; 0x15c0
2100263c:	e2433004 	sub	r3, r3, #4
21002640:	e2433028 	sub	r3, r3, #40	; 0x28
21002644:	e59f07e8 	ldr	r0, [pc, #2024]	; 21002e34 <do_fat_read+0xf78>
21002648:	e1a01003 	mov	r1, r3
2100264c:	ebfff774 	bl	21000424 <debug>
21002650:	e51b3040 	ldr	r3, [fp, #-64]	; 0x40
21002654:	e3530000 	cmp	r3, #0
21002658:	0a000016 	beq	210026b8 <do_fat_read+0x7fc>
2100265c:	e55b3039 	ldrb	r3, [fp, #-57]	; 0x39
21002660:	e3530020 	cmp	r3, #32
21002664:	1a00000c 	bne	2100269c <do_fat_read+0x7e0>
21002668:	e51b3008 	ldr	r3, [fp, #-8]
2100266c:	e593301c 	ldr	r3, [r3, #28]
21002670:	e1a02003 	mov	r2, r3
21002674:	e55bc039 	ldrb	ip, [fp, #-57]	; 0x39
21002678:	e24b3d57 	sub	r3, fp, #5568	; 0x15c0
2100267c:	e2433004 	sub	r3, r3, #4
21002680:	e2433028 	sub	r3, r3, #40	; 0x28
21002684:	e59f07b4 	ldr	r0, [pc, #1972]	; 21002e40 <do_fat_read+0xf84>
21002688:	e1a01002 	mov	r1, r2
2100268c:	e1a02003 	mov	r2, r3
21002690:	e1a0300c 	mov	r3, ip
21002694:	eb000798 	bl	210044fc <printf>
21002698:	ea000006 	b	210026b8 <do_fat_read+0x7fc>
2100269c:	e55b2039 	ldrb	r2, [fp, #-57]	; 0x39
210026a0:	e24b3d57 	sub	r3, fp, #5568	; 0x15c0
210026a4:	e2433004 	sub	r3, r3, #4
210026a8:	e2433028 	sub	r3, r3, #40	; 0x28
210026ac:	e59f0790 	ldr	r0, [pc, #1936]	; 21002e44 <do_fat_read+0xf88>
210026b0:	e1a01003 	mov	r1, r3
210026b4:	eb000790 	bl	210044fc <printf>
210026b8:	e51b3008 	ldr	r3, [fp, #-8]
210026bc:	e2833020 	add	r3, r3, #32
210026c0:	e50b3008 	str	r3, [fp, #-8]
210026c4:	ea0000d5 	b	21002a20 <do_fat_read+0xb64>
210026c8:	e24b3d57 	sub	r3, fp, #5568	; 0x15c0
210026cc:	e2433004 	sub	r3, r3, #4
210026d0:	e2433028 	sub	r3, r3, #40	; 0x28
210026d4:	e59f076c 	ldr	r0, [pc, #1900]	; 21002e48 <do_fat_read+0xf8c>
210026d8:	e1a01003 	mov	r1, r3
210026dc:	ebfff750 	bl	21000424 <debug>
210026e0:	ea000027 	b	21002784 <do_fat_read+0x8c8>
210026e4:	e51b3008 	ldr	r3, [fp, #-8]
210026e8:	e2833020 	add	r3, r3, #32
210026ec:	e50b3008 	str	r3, [fp, #-8]
210026f0:	ea0000ca 	b	21002a20 <do_fat_read+0xb64>
210026f4:	e51b3008 	ldr	r3, [fp, #-8]
210026f8:	e5d33000 	ldrb	r3, [r3]
210026fc:	e3530000 	cmp	r3, #0
21002700:	1a00000f 	bne	21002744 <do_fat_read+0x888>
21002704:	e59f0740 	ldr	r0, [pc, #1856]	; 21002e4c <do_fat_read+0xf90>
21002708:	e51b1038 	ldr	r1, [fp, #-56]	; 0x38
2100270c:	ebfff744 	bl	21000424 <debug>
21002710:	e59f36a4 	ldr	r3, [pc, #1700]	; 21002dbc <do_fat_read+0xf00>
21002714:	e24b1004 	sub	r1, fp, #4
21002718:	e7913003 	ldr	r3, [r1, r3]
2100271c:	e3530002 	cmp	r3, #2
21002720:	1a000005 	bne	2100273c <do_fat_read+0x880>
21002724:	e59f0724 	ldr	r0, [pc, #1828]	; 21002e50 <do_fat_read+0xf94>
21002728:	e51b101c 	ldr	r1, [fp, #-28]
2100272c:	e51b2020 	ldr	r2, [fp, #-32]
21002730:	eb000771 	bl	210044fc <printf>
21002734:	e3a03000 	mov	r3, #0
21002738:	ea0001e8 	b	21002ee0 <do_fat_read+0x1024>
2100273c:	e3e03000 	mvn	r3, #0
21002740:	ea0001e6 	b	21002ee0 <do_fat_read+0x1024>
21002744:	e59f3670 	ldr	r3, [pc, #1648]	; 21002dbc <do_fat_read+0xf00>
21002748:	e24b2004 	sub	r2, fp, #4
2100274c:	e7923003 	ldr	r3, [r2, r3]
21002750:	e3530002 	cmp	r3, #2
21002754:	1a00000a 	bne	21002784 <do_fat_read+0x8c8>
21002758:	e51b3008 	ldr	r3, [fp, #-8]
2100275c:	e1a00003 	mov	r0, r3
21002760:	ebfffbb2 	bl	21001630 <mkcksum>
21002764:	e1a03000 	mov	r3, r0
21002768:	e15b20ba 	ldrh	r2, [fp, #-10]
2100276c:	e1520003 	cmp	r2, r3
21002770:	1a000003 	bne	21002784 <do_fat_read+0x8c8>
21002774:	e51b3008 	ldr	r3, [fp, #-8]
21002778:	e2833020 	add	r3, r3, #32
2100277c:	e50b3008 	str	r3, [fp, #-8]
21002780:	ea0000a6 	b	21002a20 <do_fat_read+0xb64>
21002784:	e24b3d53 	sub	r3, fp, #5312	; 0x14c0
21002788:	e2433004 	sub	r3, r3, #4
2100278c:	e2433028 	sub	r3, r3, #40	; 0x28
21002790:	e51b0008 	ldr	r0, [fp, #-8]
21002794:	e1a01003 	mov	r1, r3
21002798:	ebfff7e3 	bl	2100072c <get_name>
2100279c:	e59f3618 	ldr	r3, [pc, #1560]	; 21002dbc <do_fat_read+0xf00>
210027a0:	e24bc004 	sub	ip, fp, #4
210027a4:	e79c3003 	ldr	r3, [ip, r3]
210027a8:	e3530002 	cmp	r3, #2
210027ac:	1a000045 	bne	210028c8 <do_fat_read+0xa0c>
210027b0:	e51b3008 	ldr	r3, [fp, #-8]
210027b4:	e5d3300b 	ldrb	r3, [r3, #11]
210027b8:	e2033010 	and	r3, r3, #16
210027bc:	e50b3060 	str	r3, [fp, #-96]	; 0x60
210027c0:	e3a03000 	mov	r3, #0
210027c4:	e50b3048 	str	r3, [fp, #-72]	; 0x48
210027c8:	e51b3060 	ldr	r3, [fp, #-96]	; 0x60
210027cc:	e3530000 	cmp	r3, #0
210027d0:	0a00000f 	beq	21002814 <do_fat_read+0x958>
210027d4:	e3a0302f 	mov	r3, #47	; 0x2f
210027d8:	e54b3041 	strb	r3, [fp, #-65]	; 0x41
210027dc:	e59f3670 	ldr	r3, [pc, #1648]	; 21002e54 <do_fat_read+0xf98>
210027e0:	e24be004 	sub	lr, fp, #4
210027e4:	e7de3003 	ldrb	r3, [lr, r3]
210027e8:	e3530000 	cmp	r3, #0
210027ec:	0a000017 	beq	21002850 <do_fat_read+0x994>
210027f0:	e51b3020 	ldr	r3, [fp, #-32]
210027f4:	e2833001 	add	r3, r3, #1
210027f8:	e50b3020 	str	r3, [fp, #-32]
210027fc:	e3a03001 	mov	r3, #1
21002800:	e50b3048 	str	r3, [fp, #-72]	; 0x48
21002804:	e59f064c 	ldr	r0, [pc, #1612]	; 21002e58 <do_fat_read+0xf9c>
21002808:	e51b1020 	ldr	r1, [fp, #-32]
2100280c:	ebfff704 	bl	21000424 <debug>
21002810:	ea00000e 	b	21002850 <do_fat_read+0x994>
21002814:	e3a03020 	mov	r3, #32
21002818:	e54b3041 	strb	r3, [fp, #-65]	; 0x41
2100281c:	e59f3630 	ldr	r3, [pc, #1584]	; 21002e54 <do_fat_read+0xf98>
21002820:	e24b0004 	sub	r0, fp, #4
21002824:	e7d03003 	ldrb	r3, [r0, r3]
21002828:	e3530000 	cmp	r3, #0
2100282c:	0a000007 	beq	21002850 <do_fat_read+0x994>
21002830:	e51b301c 	ldr	r3, [fp, #-28]
21002834:	e2833001 	add	r3, r3, #1
21002838:	e50b301c 	str	r3, [fp, #-28]
2100283c:	e3a03001 	mov	r3, #1
21002840:	e50b3048 	str	r3, [fp, #-72]	; 0x48
21002844:	e59f060c 	ldr	r0, [pc, #1548]	; 21002e58 <do_fat_read+0xf9c>
21002848:	e51b1020 	ldr	r1, [fp, #-32]
2100284c:	ebfff6f4 	bl	21000424 <debug>
21002850:	e51b3048 	ldr	r3, [fp, #-72]	; 0x48
21002854:	e3530000 	cmp	r3, #0
21002858:	0a000016 	beq	210028b8 <do_fat_read+0x9fc>
2100285c:	e55b3041 	ldrb	r3, [fp, #-65]	; 0x41
21002860:	e3530020 	cmp	r3, #32
21002864:	1a00000c 	bne	2100289c <do_fat_read+0x9e0>
21002868:	e51b3008 	ldr	r3, [fp, #-8]
2100286c:	e593301c 	ldr	r3, [r3, #28]
21002870:	e1a02003 	mov	r2, r3
21002874:	e55bc041 	ldrb	ip, [fp, #-65]	; 0x41
21002878:	e24b3d53 	sub	r3, fp, #5312	; 0x14c0
2100287c:	e2433004 	sub	r3, r3, #4
21002880:	e2433028 	sub	r3, r3, #40	; 0x28
21002884:	e59f05b4 	ldr	r0, [pc, #1460]	; 21002e40 <do_fat_read+0xf84>
21002888:	e1a01002 	mov	r1, r2
2100288c:	e1a02003 	mov	r2, r3
21002890:	e1a0300c 	mov	r3, ip
21002894:	eb000718 	bl	210044fc <printf>
21002898:	ea000006 	b	210028b8 <do_fat_read+0x9fc>
2100289c:	e55b2041 	ldrb	r2, [fp, #-65]	; 0x41
210028a0:	e24b3d53 	sub	r3, fp, #5312	; 0x14c0
210028a4:	e2433004 	sub	r3, r3, #4
210028a8:	e2433028 	sub	r3, r3, #40	; 0x28
210028ac:	e59f0590 	ldr	r0, [pc, #1424]	; 21002e44 <do_fat_read+0xf88>
210028b0:	e1a01003 	mov	r1, r3
210028b4:	eb000710 	bl	210044fc <printf>
210028b8:	e51b3008 	ldr	r3, [fp, #-8]
210028bc:	e2833020 	add	r3, r3, #32
210028c0:	e50b3008 	str	r3, [fp, #-8]
210028c4:	ea000055 	b	21002a20 <do_fat_read+0xb64>
210028c8:	e24b2e86 	sub	r2, fp, #2144	; 0x860
210028cc:	e2422004 	sub	r2, r2, #4
210028d0:	e2422008 	sub	r2, r2, #8
210028d4:	e24b3d53 	sub	r3, fp, #5312	; 0x14c0
210028d8:	e2433004 	sub	r3, r3, #4
210028dc:	e2433028 	sub	r3, r3, #40	; 0x28
210028e0:	e1a00002 	mov	r0, r2
210028e4:	e1a01003 	mov	r1, r3
210028e8:	eb0003ca 	bl	21003818 <strcmp>
210028ec:	e1a03000 	mov	r3, r0
210028f0:	e3530000 	cmp	r3, #0
210028f4:	0a000019 	beq	21002960 <do_fat_read+0xaa4>
210028f8:	e24b2e86 	sub	r2, fp, #2144	; 0x860
210028fc:	e2422004 	sub	r2, r2, #4
21002900:	e2422008 	sub	r2, r2, #8
21002904:	e24b3d57 	sub	r3, fp, #5568	; 0x15c0
21002908:	e2433004 	sub	r3, r3, #4
2100290c:	e2433028 	sub	r3, r3, #40	; 0x28
21002910:	e1a00002 	mov	r0, r2
21002914:	e1a01003 	mov	r1, r3
21002918:	eb0003be 	bl	21003818 <strcmp>
2100291c:	e1a03000 	mov	r3, r0
21002920:	e3530000 	cmp	r3, #0
21002924:	0a00000d 	beq	21002960 <do_fat_read+0xaa4>
21002928:	e24b2d53 	sub	r2, fp, #5312	; 0x14c0
2100292c:	e2422004 	sub	r2, r2, #4
21002930:	e2422028 	sub	r2, r2, #40	; 0x28
21002934:	e24b3d57 	sub	r3, fp, #5568	; 0x15c0
21002938:	e2433004 	sub	r3, r3, #4
2100293c:	e2433028 	sub	r3, r3, #40	; 0x28
21002940:	e59f0514 	ldr	r0, [pc, #1300]	; 21002e5c <do_fat_read+0xfa0>
21002944:	e1a01002 	mov	r1, r2
21002948:	e1a02003 	mov	r2, r3
2100294c:	ebfff6b4 	bl	21000424 <debug>
21002950:	e51b3008 	ldr	r3, [fp, #-8]
21002954:	e2833020 	add	r3, r3, #32
21002958:	e50b3008 	str	r3, [fp, #-8]
2100295c:	ea00002f 	b	21002a20 <do_fat_read+0xb64>
21002960:	e51b3018 	ldr	r3, [fp, #-24]
21002964:	e3530000 	cmp	r3, #0
21002968:	0a000006 	beq	21002988 <do_fat_read+0xacc>
2100296c:	e51b3008 	ldr	r3, [fp, #-8]
21002970:	e5d3300b 	ldrb	r3, [r3, #11]
21002974:	e2033010 	and	r3, r3, #16
21002978:	e3530000 	cmp	r3, #0
2100297c:	1a000001 	bne	21002988 <do_fat_read+0xacc>
21002980:	e3e03000 	mvn	r3, #0
21002984:	ea000155 	b	21002ee0 <do_fat_read+0x1024>
21002988:	e24b3d53 	sub	r3, fp, #5312	; 0x14c0
2100298c:	e2433004 	sub	r3, r3, #4
21002990:	e2433028 	sub	r3, r3, #40	; 0x28
21002994:	e59f04c4 	ldr	r0, [pc, #1220]	; 21002e60 <do_fat_read+0xfa4>
21002998:	e1a01003 	mov	r1, r3
2100299c:	ebfff6a0 	bl	21000424 <debug>
210029a0:	e51b3008 	ldr	r3, [fp, #-8]
210029a4:	e1d331ba 	ldrh	r3, [r3, #26]
210029a8:	e1a02003 	mov	r2, r3
210029ac:	e51b3050 	ldr	r3, [fp, #-80]	; 0x50
210029b0:	e5933c00 	ldr	r3, [r3, #3072]	; 0xc00
210029b4:	e3530020 	cmp	r3, #32
210029b8:	1a000003 	bne	210029cc <do_fat_read+0xb10>
210029bc:	e51b3008 	ldr	r3, [fp, #-8]
210029c0:	e1d331b4 	ldrh	r3, [r3, #20]
210029c4:	e1a03803 	lsl	r3, r3, #16
210029c8:	ea000000 	b	210029d0 <do_fat_read+0xb14>
210029cc:	e3a03000 	mov	r3, #0
210029d0:	e0823003 	add	r3, r2, r3
210029d4:	e59f0488 	ldr	r0, [pc, #1160]	; 21002e64 <do_fat_read+0xfa8>
210029d8:	e1a01003 	mov	r1, r3
210029dc:	ebfff690 	bl	21000424 <debug>
210029e0:	e51b3008 	ldr	r3, [fp, #-8]
210029e4:	e593201c 	ldr	r2, [r3, #28]
210029e8:	e51b3018 	ldr	r3, [fp, #-24]
210029ec:	e3530000 	cmp	r3, #0
210029f0:	0a000001 	beq	210029fc <do_fat_read+0xb40>
210029f4:	e59f346c 	ldr	r3, [pc, #1132]	; 21002e68 <do_fat_read+0xfac>
210029f8:	ea000000 	b	21002a00 <do_fat_read+0xb44>
210029fc:	e59f33bc 	ldr	r3, [pc, #956]	; 21002dc0 <do_fat_read+0xf04>
21002a00:	e59f0464 	ldr	r0, [pc, #1124]	; 21002e6c <do_fat_read+0xfb0>
21002a04:	e1a01002 	mov	r1, r2
21002a08:	e1a02003 	mov	r2, r3
21002a0c:	ebfff684 	bl	21000424 <debug>
21002a10:	e1a00000 	nop			; (mov r0, r0)
21002a14:	e3a03001 	mov	r3, #1
21002a18:	e50b3024 	str	r3, [fp, #-36]	; 0x24
21002a1c:	ea00011a 	b	21002e8c <do_fat_read+0xfd0>
21002a20:	e51b3038 	ldr	r3, [fp, #-56]	; 0x38
21002a24:	e2833001 	add	r3, r3, #1
21002a28:	e50b3038 	str	r3, [fp, #-56]	; 0x38
21002a2c:	e51b3038 	ldr	r3, [fp, #-56]	; 0x38
21002a30:	e353000f 	cmp	r3, #15
21002a34:	9afffe96 	bls	21002494 <do_fat_read+0x5d8>
21002a38:	e51b2050 	ldr	r2, [fp, #-80]	; 0x50
21002a3c:	e59f33ac 	ldr	r3, [pc, #940]	; 21002df0 <do_fat_read+0xf34>
21002a40:	e19230b3 	ldrh	r3, [r2, r3]
21002a44:	e59f0424 	ldr	r0, [pc, #1060]	; 21002e70 <do_fat_read+0xfb4>
21002a48:	e51b1030 	ldr	r1, [fp, #-48]	; 0x30
21002a4c:	e1a02003 	mov	r2, r3
21002a50:	ebfff673 	bl	21000424 <debug>
21002a54:	e51b3030 	ldr	r3, [fp, #-48]	; 0x30
21002a58:	e2833001 	add	r3, r3, #1
21002a5c:	e50b3030 	str	r3, [fp, #-48]	; 0x30
21002a60:	e3a03000 	mov	r3, #0
21002a64:	e50b3034 	str	r3, [fp, #-52]	; 0x34
21002a68:	e51b3050 	ldr	r3, [fp, #-80]	; 0x50
21002a6c:	e5933c00 	ldr	r3, [r3, #3072]	; 0xc00
21002a70:	e3530020 	cmp	r3, #32
21002a74:	1a00002c 	bne	21002b2c <do_fat_read+0xc70>
21002a78:	e51b2050 	ldr	r2, [fp, #-80]	; 0x50
21002a7c:	e59f336c 	ldr	r3, [pc, #876]	; 21002df0 <do_fat_read+0xf34>
21002a80:	e19230b3 	ldrh	r3, [r2, r3]
21002a84:	e1a02003 	mov	r2, r3
21002a88:	e51b3030 	ldr	r3, [fp, #-48]	; 0x30
21002a8c:	e1520003 	cmp	r2, r3
21002a90:	1a000025 	bne	21002b2c <do_fat_read+0xc70>
21002a94:	e3a03000 	mov	r3, #0
21002a98:	e50b3068 	str	r3, [fp, #-104]	; 0x68
21002a9c:	e3a03000 	mov	r3, #0
21002aa0:	e50b306c 	str	r3, [fp, #-108]	; 0x6c
21002aa4:	e51b0050 	ldr	r0, [fp, #-80]	; 0x50
21002aa8:	e51b1028 	ldr	r1, [fp, #-40]	; 0x28
21002aac:	ebfff774 	bl	21000884 <get_fatent>
21002ab0:	e1a03000 	mov	r3, r0
21002ab4:	e50b306c 	str	r3, [fp, #-108]	; 0x6c
21002ab8:	e51b306c 	ldr	r3, [fp, #-108]	; 0x6c
21002abc:	e3530001 	cmp	r3, #1
21002ac0:	da000003 	ble	21002ad4 <do_fat_read+0xc18>
21002ac4:	e51b206c 	ldr	r2, [fp, #-108]	; 0x6c
21002ac8:	e59f33a4 	ldr	r3, [pc, #932]	; 21002e74 <do_fat_read+0xfb8>
21002acc:	e1520003 	cmp	r2, r3
21002ad0:	da000001 	ble	21002adc <do_fat_read+0xc20>
21002ad4:	e3a03001 	mov	r3, #1
21002ad8:	ea000000 	b	21002ae0 <do_fat_read+0xc24>
21002adc:	e3a03000 	mov	r3, #0
21002ae0:	e50b3034 	str	r3, [fp, #-52]	; 0x34
21002ae4:	e51b2050 	ldr	r2, [fp, #-80]	; 0x50
21002ae8:	e59f330c 	ldr	r3, [pc, #780]	; 21002dfc <do_fat_read+0xf40>
21002aec:	e19230b3 	ldrh	r3, [r2, r3]
21002af0:	e6bf2073 	sxth	r2, r3
21002af4:	e51b1050 	ldr	r1, [fp, #-80]	; 0x50
21002af8:	e59f32f0 	ldr	r3, [pc, #752]	; 21002df0 <do_fat_read+0xf34>
21002afc:	e19130b3 	ldrh	r3, [r1, r3]
21002b00:	e51b106c 	ldr	r1, [fp, #-108]	; 0x6c
21002b04:	e0030391 	mul	r3, r1, r3
21002b08:	e0823003 	add	r3, r2, r3
21002b0c:	e50b3068 	str	r3, [fp, #-104]	; 0x68
21002b10:	e51b306c 	ldr	r3, [fp, #-108]	; 0x6c
21002b14:	e50b3028 	str	r3, [fp, #-40]	; 0x28
21002b18:	e51b3068 	ldr	r3, [fp, #-104]	; 0x68
21002b1c:	e50b3014 	str	r3, [fp, #-20]
21002b20:	e3a03000 	mov	r3, #0
21002b24:	e50b3030 	str	r3, [fp, #-48]	; 0x30
21002b28:	ea000002 	b	21002b38 <do_fat_read+0xc7c>
21002b2c:	e51b3014 	ldr	r3, [fp, #-20]
21002b30:	e2833001 	add	r3, r3, #1
21002b34:	e50b3014 	str	r3, [fp, #-20]
21002b38:	e51b3050 	ldr	r3, [fp, #-80]	; 0x50
21002b3c:	e5933c00 	ldr	r3, [r3, #3072]	; 0xc00
21002b40:	e3530020 	cmp	r3, #32
21002b44:	1a000002 	bne	21002b54 <do_fat_read+0xc98>
21002b48:	e51b3034 	ldr	r3, [fp, #-52]	; 0x34
21002b4c:	e3530000 	cmp	r3, #0
21002b50:	1a000007 	bne	21002b74 <do_fat_read+0xcb8>
21002b54:	e51b3050 	ldr	r3, [fp, #-80]	; 0x50
21002b58:	e5933c00 	ldr	r3, [r3, #3072]	; 0xc00
21002b5c:	e3530020 	cmp	r3, #32
21002b60:	0afffe27 	beq	21002404 <do_fat_read+0x548>
21002b64:	e51b2030 	ldr	r2, [fp, #-48]	; 0x30
21002b68:	e51b302c 	ldr	r3, [fp, #-44]	; 0x2c
21002b6c:	e1520003 	cmp	r2, r3
21002b70:	1afffe25 	bne	2100240c <do_fat_read+0x550>
21002b74:	e59f3240 	ldr	r3, [pc, #576]	; 21002dbc <do_fat_read+0xf00>
21002b78:	e24b1004 	sub	r1, fp, #4
21002b7c:	e7913003 	ldr	r3, [r1, r3]
21002b80:	e3530002 	cmp	r3, #2
21002b84:	1a000005 	bne	21002ba0 <do_fat_read+0xce4>
21002b88:	e59f02c0 	ldr	r0, [pc, #704]	; 21002e50 <do_fat_read+0xf94>
21002b8c:	e51b101c 	ldr	r1, [fp, #-28]
21002b90:	e51b2020 	ldr	r2, [fp, #-32]
21002b94:	eb000658 	bl	210044fc <printf>
21002b98:	e3a03000 	mov	r3, #0
21002b9c:	ea0000cf 	b	21002ee0 <do_fat_read+0x1024>
21002ba0:	e3e03000 	mvn	r3, #0
21002ba4:	ea0000cd 	b	21002ee0 <do_fat_read+0x1024>
21002ba8:	e51b2050 	ldr	r2, [fp, #-80]	; 0x50
21002bac:	e59f3248 	ldr	r3, [pc, #584]	; 21002dfc <do_fat_read+0xf40>
21002bb0:	e19230b3 	ldrh	r3, [r2, r3]
21002bb4:	e6bf2073 	sxth	r2, r3
21002bb8:	e51b3008 	ldr	r3, [fp, #-8]
21002bbc:	e1d331ba 	ldrh	r3, [r3, #26]
21002bc0:	e1a01003 	mov	r1, r3
21002bc4:	e51b3050 	ldr	r3, [fp, #-80]	; 0x50
21002bc8:	e5933c00 	ldr	r3, [r3, #3072]	; 0xc00
21002bcc:	e3530020 	cmp	r3, #32
21002bd0:	1a000003 	bne	21002be4 <do_fat_read+0xd28>
21002bd4:	e51b3008 	ldr	r3, [fp, #-8]
21002bd8:	e1d331b4 	ldrh	r3, [r3, #20]
21002bdc:	e1a03803 	lsl	r3, r3, #16
21002be0:	ea000000 	b	21002be8 <do_fat_read+0xd2c>
21002be4:	e3a03000 	mov	r3, #0
21002be8:	e0813003 	add	r3, r1, r3
21002bec:	e51b0050 	ldr	r0, [fp, #-80]	; 0x50
21002bf0:	e59f11f8 	ldr	r1, [pc, #504]	; 21002df0 <do_fat_read+0xf34>
21002bf4:	e19010b1 	ldrh	r1, [r0, r1]
21002bf8:	e0030391 	mul	r3, r1, r3
21002bfc:	e0823003 	add	r3, r2, r3
21002c00:	e50b3064 	str	r3, [fp, #-100]	; 0x64
21002c04:	e3a03000 	mov	r3, #0
21002c08:	e50b304c 	str	r3, [fp, #-76]	; 0x4c
21002c0c:	e59f221c 	ldr	r2, [pc, #540]	; 21002e30 <do_fat_read+0xf74>
21002c10:	e51b3008 	ldr	r3, [fp, #-8]
21002c14:	e24be004 	sub	lr, fp, #4
21002c18:	e08ec002 	add	ip, lr, r2
21002c1c:	e1a0e003 	mov	lr, r3
21002c20:	e8be000f 	ldm	lr!, {r0, r1, r2, r3}
21002c24:	e8ac000f 	stmia	ip!, {r0, r1, r2, r3}
21002c28:	e89e000f 	ldm	lr, {r0, r1, r2, r3}
21002c2c:	e88c000f 	stm	ip, {r0, r1, r2, r3}
21002c30:	e24b3d57 	sub	r3, fp, #5568	; 0x15c0
21002c34:	e2433004 	sub	r3, r3, #4
21002c38:	e2433028 	sub	r3, r3, #40	; 0x28
21002c3c:	e50b3008 	str	r3, [fp, #-8]
21002c40:	e51b0010 	ldr	r0, [fp, #-16]
21002c44:	ebfff699 	bl	210006b0 <dirdelim>
21002c48:	e50b0058 	str	r0, [fp, #-88]	; 0x58
21002c4c:	e51b3058 	ldr	r3, [fp, #-88]	; 0x58
21002c50:	e3530000 	cmp	r3, #0
21002c54:	ba000021 	blt	21002ce0 <do_fat_read+0xe24>
21002c58:	e51b3058 	ldr	r3, [fp, #-88]	; 0x58
21002c5c:	e51b2010 	ldr	r2, [fp, #-16]
21002c60:	e0823003 	add	r3, r2, r3
21002c64:	e3a02000 	mov	r2, #0
21002c68:	e5c32000 	strb	r2, [r3]
21002c6c:	e51b3058 	ldr	r3, [fp, #-88]	; 0x58
21002c70:	e2833001 	add	r3, r3, #1
21002c74:	e51b2010 	ldr	r2, [fp, #-16]
21002c78:	e0823003 	add	r3, r2, r3
21002c7c:	e50b304c 	str	r3, [fp, #-76]	; 0x4c
21002c80:	ea000002 	b	21002c90 <do_fat_read+0xdd4>
21002c84:	e51b304c 	ldr	r3, [fp, #-76]	; 0x4c
21002c88:	e2833001 	add	r3, r3, #1
21002c8c:	e50b304c 	str	r3, [fp, #-76]	; 0x4c
21002c90:	e51b304c 	ldr	r3, [fp, #-76]	; 0x4c
21002c94:	e5d33000 	ldrb	r3, [r3]
21002c98:	e353002f 	cmp	r3, #47	; 0x2f
21002c9c:	0afffff8 	beq	21002c84 <do_fat_read+0xdc8>
21002ca0:	e51b304c 	ldr	r3, [fp, #-76]	; 0x4c
21002ca4:	e5d33000 	ldrb	r3, [r3]
21002ca8:	e353005c 	cmp	r3, #92	; 0x5c
21002cac:	0afffff4 	beq	21002c84 <do_fat_read+0xdc8>
21002cb0:	e59f3104 	ldr	r3, [pc, #260]	; 21002dbc <do_fat_read+0xf00>
21002cb4:	e24b0004 	sub	r0, fp, #4
21002cb8:	e7903003 	ldr	r3, [r0, r3]
21002cbc:	e3530000 	cmp	r3, #0
21002cc0:	0a000013 	beq	21002d14 <do_fat_read+0xe58>
21002cc4:	e51b304c 	ldr	r3, [fp, #-76]	; 0x4c
21002cc8:	e5d33000 	ldrb	r3, [r3]
21002ccc:	e3530000 	cmp	r3, #0
21002cd0:	1a00000f 	bne	21002d14 <do_fat_read+0xe58>
21002cd4:	e3a03000 	mov	r3, #0
21002cd8:	e50b3024 	str	r3, [fp, #-36]	; 0x24
21002cdc:	ea00000c 	b	21002d14 <do_fat_read+0xe58>
21002ce0:	e59f30d4 	ldr	r3, [pc, #212]	; 21002dbc <do_fat_read+0xf00>
21002ce4:	e24b1004 	sub	r1, fp, #4
21002ce8:	e7913003 	ldr	r3, [r1, r3]
21002cec:	e3530000 	cmp	r3, #0
21002cf0:	0a000005 	beq	21002d0c <do_fat_read+0xe50>
21002cf4:	e51b3024 	ldr	r3, [fp, #-36]	; 0x24
21002cf8:	e3530000 	cmp	r3, #0
21002cfc:	0a000002 	beq	21002d0c <do_fat_read+0xe50>
21002d00:	e3a03000 	mov	r3, #0
21002d04:	e50b3024 	str	r3, [fp, #-36]	; 0x24
21002d08:	ea000001 	b	21002d14 <do_fat_read+0xe58>
21002d0c:	e3a03000 	mov	r3, #0
21002d10:	e50b3018 	str	r3, [fp, #-24]
21002d14:	e51b3018 	ldr	r3, [fp, #-24]
21002d18:	e3530000 	cmp	r3, #0
21002d1c:	1a000003 	bne	21002d30 <do_fat_read+0xe74>
21002d20:	e59f3094 	ldr	r3, [pc, #148]	; 21002dbc <do_fat_read+0xf00>
21002d24:	e24b2004 	sub	r2, fp, #4
21002d28:	e7923003 	ldr	r3, [r2, r3]
21002d2c:	ea000000 	b	21002d34 <do_fat_read+0xe78>
21002d30:	e3a03000 	mov	r3, #0
21002d34:	e58d3000 	str	r3, [sp]
21002d38:	e51b0050 	ldr	r0, [fp, #-80]	; 0x50
21002d3c:	e51b1064 	ldr	r1, [fp, #-100]	; 0x64
21002d40:	e51b2010 	ldr	r2, [fp, #-16]
21002d44:	e51b3008 	ldr	r3, [fp, #-8]
21002d48:	ebfffa5c 	bl	210016c0 <get_dentfromdir>
21002d4c:	e1a03000 	mov	r3, r0
21002d50:	e3530000 	cmp	r3, #0
21002d54:	1a00000b 	bne	21002d88 <do_fat_read+0xecc>
21002d58:	e59f305c 	ldr	r3, [pc, #92]	; 21002dbc <do_fat_read+0xf00>
21002d5c:	e24bc004 	sub	ip, fp, #4
21002d60:	e79c3003 	ldr	r3, [ip, r3]
21002d64:	e3530000 	cmp	r3, #0
21002d68:	0a000004 	beq	21002d80 <do_fat_read+0xec4>
21002d6c:	e51b3018 	ldr	r3, [fp, #-24]
21002d70:	e3530000 	cmp	r3, #0
21002d74:	1a000001 	bne	21002d80 <do_fat_read+0xec4>
21002d78:	e3a03000 	mov	r3, #0
21002d7c:	ea000057 	b	21002ee0 <do_fat_read+0x1024>
21002d80:	e3e03000 	mvn	r3, #0
21002d84:	ea000055 	b	21002ee0 <do_fat_read+0x1024>
21002d88:	e51b3058 	ldr	r3, [fp, #-88]	; 0x58
21002d8c:	e3530000 	cmp	r3, #0
21002d90:	ba00003d 	blt	21002e8c <do_fat_read+0xfd0>
21002d94:	e51b3008 	ldr	r3, [fp, #-8]
21002d98:	e5d3300b 	ldrb	r3, [r3, #11]
21002d9c:	e2033010 	and	r3, r3, #16
21002da0:	e3530000 	cmp	r3, #0
21002da4:	1a000036 	bne	21002e84 <do_fat_read+0xfc8>
21002da8:	e3e03000 	mvn	r3, #0
21002dac:	ea00004b 	b	21002ee0 <do_fat_read+0x1024>
21002db0:	ffffea14 	.word	0xffffea14
21002db4:	ffffea10 	.word	0xffffea10
21002db8:	ffffea0c 	.word	0xffffea0c
21002dbc:	ffffea08 	.word	0xffffea08
21002dc0:	210075e4 	.word	0x210075e4
21002dc4:	21007694 	.word	0x21007694
21002dc8:	210076b0 	.word	0x210076b0
21002dcc:	00000c04 	.word	0x00000c04
21002dd0:	fffff76e 	.word	0xfffff76e
21002dd4:	fffff766 	.word	0xfffff766
21002dd8:	00000c06 	.word	0x00000c06
21002ddc:	00000c08 	.word	0x00000c08
21002de0:	210076d0 	.word	0x210076d0
21002de4:	210076e0 	.word	0x210076e0
21002de8:	210076f0 	.word	0x210076f0
21002dec:	21007700 	.word	0x21007700
21002df0:	00000c0a 	.word	0x00000c0a
21002df4:	21007714 	.word	0x21007714
21002df8:	21007728 	.word	0x21007728
21002dfc:	00000c0c 	.word	0x00000c0c
21002e00:	21007738 	.word	0x21007738
21002e04:	21007750 	.word	0x21007750
21002e08:	21007774 	.word	0x21007774
21002e0c:	210077c0 	.word	0x210077c0
21002e10:	210077d4 	.word	0x210077d4
21002e14:	210077e8 	.word	0x210077e8
21002e18:	fffff798 	.word	0xfffff798
21002e1c:	210077fc 	.word	0x210077fc
21002e20:	21007818 	.word	0x21007818
21002e24:	21028018 	.word	0x21028018
21002e28:	21007850 	.word	0x21007850
21002e2c:	21007870 	.word	0x21007870
21002e30:	ffffea18 	.word	0xffffea18
21002e34:	21007878 	.word	0x21007878
21002e38:	21007888 	.word	0x21007888
21002e3c:	21007898 	.word	0x21007898
21002e40:	21007540 	.word	0x21007540
21002e44:	21007550 	.word	0x21007550
21002e48:	210078a8 	.word	0x210078a8
21002e4c:	210078bc 	.word	0x210078bc
21002e50:	21007574 	.word	0x21007574
21002e54:	ffffeb18 	.word	0xffffeb18
21002e58:	210078d8 	.word	0x210078d8
21002e5c:	210078e8 	.word	0x210078e8
21002e60:	21007900 	.word	0x21007900
21002e64:	210075cc 	.word	0x210075cc
21002e68:	210075dc 	.word	0x210075dc
21002e6c:	210075e8 	.word	0x210075e8
21002e70:	21007910 	.word	0x21007910
21002e74:	0fffffef 	.word	0x0fffffef
21002e78:	ffffea10 	.word	0xffffea10
21002e7c:	ffffea0c 	.word	0xffffea0c
21002e80:	21007930 	.word	0x21007930
21002e84:	e51b304c 	ldr	r3, [fp, #-76]	; 0x4c
21002e88:	e50b3010 	str	r3, [fp, #-16]
21002e8c:	e51b3018 	ldr	r3, [fp, #-24]
21002e90:	e3530000 	cmp	r3, #0
21002e94:	1affff43 	bne	21002ba8 <do_fat_read+0xcec>
21002e98:	e51f3028 	ldr	r3, [pc, #-40]	; 21002e78 <do_fat_read+0xfbc>
21002e9c:	e24be004 	sub	lr, fp, #4
21002ea0:	e79e2003 	ldr	r2, [lr, r3]
21002ea4:	e51f3030 	ldr	r3, [pc, #-48]	; 21002e7c <do_fat_read+0xfc0>
21002ea8:	e51b0050 	ldr	r0, [fp, #-80]	; 0x50
21002eac:	e51b1008 	ldr	r1, [fp, #-8]
21002eb0:	e24bc004 	sub	ip, fp, #4
21002eb4:	e79c3003 	ldr	r3, [ip, r3]
21002eb8:	ebfff7c8 	bl	21000de0 <get_contents>
21002ebc:	e50b0054 	str	r0, [fp, #-84]	; 0x54
21002ec0:	e51b3008 	ldr	r3, [fp, #-8]
21002ec4:	e593301c 	ldr	r3, [r3, #28]
21002ec8:	e51f0050 	ldr	r0, [pc, #-80]	; 21002e80 <do_fat_read+0xfc4>
21002ecc:	e1a01003 	mov	r1, r3
21002ed0:	e51b2054 	ldr	r2, [fp, #-84]	; 0x54
21002ed4:	ebfff552 	bl	21000424 <debug>
21002ed8:	e51b3008 	ldr	r3, [fp, #-8]
21002edc:	e593301c 	ldr	r3, [r3, #28]
21002ee0:	e1a00003 	mov	r0, r3
21002ee4:	e24bd004 	sub	sp, fp, #4
21002ee8:	e8bd8800 	pop	{fp, pc}

21002eec <file_fat_detectfs>:
21002eec:	e92d4800 	push	{fp, lr}
21002ef0:	e28db004 	add	fp, sp, #4
21002ef4:	e24dd070 	sub	sp, sp, #112	; 0x70
21002ef8:	e59f30b8 	ldr	r3, [pc, #184]	; 21002fb8 <file_fat_detectfs+0xcc>
21002efc:	e5933000 	ldr	r3, [r3]
21002f00:	e3530000 	cmp	r3, #0
21002f04:	1a000003 	bne	21002f18 <file_fat_detectfs+0x2c>
21002f08:	e59f00ac 	ldr	r0, [pc, #172]	; 21002fbc <file_fat_detectfs+0xd0>
21002f0c:	eb001043 	bl	21007020 <puts>
21002f10:	e3a03001 	mov	r3, #1
21002f14:	ea000024 	b	21002fac <file_fat_detectfs+0xc0>
21002f18:	e59f00a0 	ldr	r0, [pc, #160]	; 21002fc0 <file_fat_detectfs+0xd4>
21002f1c:	ebfff540 	bl	21000424 <debug>
21002f20:	e59f009c 	ldr	r0, [pc, #156]	; 21002fc4 <file_fat_detectfs+0xd8>
21002f24:	ebfff53e 	bl	21000424 <debug>
21002f28:	e24b1044 	sub	r1, fp, #68	; 0x44
21002f2c:	e24b2060 	sub	r2, fp, #96	; 0x60
21002f30:	e24b3064 	sub	r3, fp, #100	; 0x64
21002f34:	e1a00001 	mov	r0, r1
21002f38:	e1a01002 	mov	r1, r2
21002f3c:	e1a02003 	mov	r2, r3
21002f40:	ebfffb44 	bl	21001c58 <read_bootsectandvi>
21002f44:	e1a03000 	mov	r3, r0
21002f48:	e3530000 	cmp	r3, #0
21002f4c:	0a000003 	beq	21002f60 <file_fat_detectfs+0x74>
21002f50:	e59f0070 	ldr	r0, [pc, #112]	; 21002fc8 <file_fat_detectfs+0xdc>
21002f54:	eb001031 	bl	21007020 <puts>
21002f58:	e3a03001 	mov	r3, #1
21002f5c:	ea000012 	b	21002fac <file_fat_detectfs+0xc0>
21002f60:	e24b2070 	sub	r2, fp, #112	; 0x70
21002f64:	e24b3060 	sub	r3, fp, #96	; 0x60
21002f68:	e2833007 	add	r3, r3, #7
21002f6c:	e1a00002 	mov	r0, r2
21002f70:	e1a01003 	mov	r1, r3
21002f74:	e3a0200b 	mov	r2, #11
21002f78:	eb0002c8 	bl	21003aa0 <memcpy>
21002f7c:	e3a03000 	mov	r3, #0
21002f80:	e54b3065 	strb	r3, [fp, #-101]	; 0x65
21002f84:	e3a03000 	mov	r3, #0
21002f88:	e54b3049 	strb	r3, [fp, #-73]	; 0x49
21002f8c:	e59f3038 	ldr	r3, [pc, #56]	; 21002fcc <file_fat_detectfs+0xe0>
21002f90:	e5931000 	ldr	r1, [r3]
21002f94:	e24b3060 	sub	r3, fp, #96	; 0x60
21002f98:	e2832012 	add	r2, r3, #18
21002f9c:	e24b3070 	sub	r3, fp, #112	; 0x70
21002fa0:	e59f0028 	ldr	r0, [pc, #40]	; 21002fd0 <file_fat_detectfs+0xe4>
21002fa4:	eb000554 	bl	210044fc <printf>
21002fa8:	e3a03000 	mov	r3, #0
21002fac:	e1a00003 	mov	r0, r3
21002fb0:	e24bd004 	sub	sp, fp, #4
21002fb4:	e8bd8800 	pop	{fp, pc}
21002fb8:	21008000 	.word	0x21008000
21002fbc:	21007944 	.word	0x21007944
21002fc0:	21007958 	.word	0x21007958
21002fc4:	21007974 	.word	0x21007974
21002fc8:	21007990 	.word	0x21007990
21002fcc:	21008008 	.word	0x21008008
21002fd0:	210079a8 	.word	0x210079a8

21002fd4 <file_fat_ls>:
21002fd4:	e92d4800 	push	{fp, lr}
21002fd8:	e28db004 	add	fp, sp, #4
21002fdc:	e24dd008 	sub	sp, sp, #8
21002fe0:	e50b0008 	str	r0, [fp, #-8]
21002fe4:	e51b0008 	ldr	r0, [fp, #-8]
21002fe8:	e3a01000 	mov	r1, #0
21002fec:	e3a02000 	mov	r2, #0
21002ff0:	e3a03001 	mov	r3, #1
21002ff4:	ebfffbb0 	bl	21001ebc <do_fat_read>
21002ff8:	e1a03000 	mov	r3, r0
21002ffc:	e1a00003 	mov	r0, r3
21003000:	e24bd004 	sub	sp, fp, #4
21003004:	e8bd8800 	pop	{fp, pc}

21003008 <file_fat_read>:
21003008:	e92d4800 	push	{fp, lr}
2100300c:	e28db004 	add	fp, sp, #4
21003010:	e24dd010 	sub	sp, sp, #16
21003014:	e50b0008 	str	r0, [fp, #-8]
21003018:	e50b100c 	str	r1, [fp, #-12]
2100301c:	e50b2010 	str	r2, [fp, #-16]
21003020:	e51b0008 	ldr	r0, [fp, #-8]
21003024:	e51b100c 	ldr	r1, [fp, #-12]
21003028:	e51b2010 	ldr	r2, [fp, #-16]
2100302c:	e3a03000 	mov	r3, #0
21003030:	ebfffba1 	bl	21001ebc <do_fat_read>
21003034:	e1a03000 	mov	r3, r0
21003038:	e1a00003 	mov	r0, r3
2100303c:	e24bd004 	sub	sp, fp, #4
21003040:	e8bd8800 	pop	{fp, pc}

21003044 <block_read>:
21003044:	e92d4800 	push	{fp, lr}
21003048:	e28db004 	add	fp, sp, #4
2100304c:	e24dd018 	sub	sp, sp, #24
21003050:	e50b0010 	str	r0, [fp, #-16]
21003054:	e50b1014 	str	r1, [fp, #-20]
21003058:	e50b2018 	str	r2, [fp, #-24]
2100305c:	e50b301c 	str	r3, [fp, #-28]
21003060:	e59f0048 	ldr	r0, [pc, #72]	; 210030b0 <block_read+0x6c>
21003064:	e51b1014 	ldr	r1, [fp, #-20]
21003068:	e51b2018 	ldr	r2, [fp, #-24]
2100306c:	ebfff4ec 	bl	21000424 <debug>
21003070:	e51b3018 	ldr	r3, [fp, #-24]
21003074:	e6ff2073 	uxth	r2, r3
21003078:	e51b301c 	ldr	r3, [fp, #-28]
2100307c:	e51b0014 	ldr	r0, [fp, #-20]
21003080:	e1a01002 	mov	r1, r2
21003084:	e1a02003 	mov	r2, r3
21003088:	eb000aa0 	bl	21005b10 <SDHC_ReadBlocks>
2100308c:	e1a03000 	mov	r3, r0
21003090:	e50b3008 	str	r3, [fp, #-8]
21003094:	e59f0018 	ldr	r0, [pc, #24]	; 210030b4 <block_read+0x70>
21003098:	e51b1008 	ldr	r1, [fp, #-8]
2100309c:	ebfff4e0 	bl	21000424 <debug>
210030a0:	e51b3008 	ldr	r3, [fp, #-8]
210030a4:	e1a00003 	mov	r0, r3
210030a8:	e24bd004 	sub	sp, fp, #4
210030ac:	e8bd8800 	pop	{fp, pc}
210030b0:	210079cc 	.word	0x210079cc
210030b4:	210079f8 	.word	0x210079f8

210030b8 <fat_init>:
210030b8:	e92d4800 	push	{fp, lr}
210030bc:	e28db004 	add	fp, sp, #4
210030c0:	e24dd078 	sub	sp, sp, #120	; 0x78
210030c4:	e3a03001 	mov	r3, #1
210030c8:	e50b3008 	str	r3, [fp, #-8]
210030cc:	e3a03001 	mov	r3, #1
210030d0:	e50b300c 	str	r3, [fp, #-12]
210030d4:	e59f304c 	ldr	r3, [pc, #76]	; 21003128 <fat_init+0x70>
210030d8:	e50b301c 	str	r3, [fp, #-28]
210030dc:	e24b307c 	sub	r3, fp, #124	; 0x7c
210030e0:	e1a00003 	mov	r0, r3
210030e4:	e51b1008 	ldr	r1, [fp, #-8]
210030e8:	ebfff50a 	bl	21000518 <fat_register_device>
210030ec:	e1a03000 	mov	r3, r0
210030f0:	e3530000 	cmp	r3, #0
210030f4:	0a000006 	beq	21003114 <fat_init+0x5c>
210030f8:	e59f002c 	ldr	r0, [pc, #44]	; 2100312c <fat_init+0x74>
210030fc:	e59f102c 	ldr	r1, [pc, #44]	; 21003130 <fat_init+0x78>
21003100:	e51b200c 	ldr	r2, [fp, #-12]
21003104:	e51b3008 	ldr	r3, [fp, #-8]
21003108:	eb0004fb 	bl	210044fc <printf>
2100310c:	e3a03001 	mov	r3, #1
21003110:	ea000001 	b	2100311c <fat_init+0x64>
21003114:	ebffff74 	bl	21002eec <file_fat_detectfs>
21003118:	e3a03000 	mov	r3, #0
2100311c:	e1a00003 	mov	r0, r3
21003120:	e24bd004 	sub	sp, fp, #4
21003124:	e8bd8800 	pop	{fp, pc}
21003128:	21003044 	.word	0x21003044
2100312c:	21007a04 	.word	0x21007a04
21003130:	21007a30 	.word	0x21007a30

21003134 <lcd_init>:
21003134:	e52db004 	push	{fp}		; (str fp, [sp, #-4]!)
21003138:	e28db000 	add	fp, sp, #0
2100313c:	e59f318c 	ldr	r3, [pc, #396]	; 210032d0 <lcd_init+0x19c>
21003140:	e59f218c 	ldr	r2, [pc, #396]	; 210032d4 <lcd_init+0x1a0>
21003144:	e5832000 	str	r2, [r3]
21003148:	e59f3188 	ldr	r3, [pc, #392]	; 210032d8 <lcd_init+0x1a4>
2100314c:	e59f2180 	ldr	r2, [pc, #384]	; 210032d4 <lcd_init+0x1a0>
21003150:	e5832000 	str	r2, [r3]
21003154:	e59f3180 	ldr	r3, [pc, #384]	; 210032dc <lcd_init+0x1a8>
21003158:	e59f2174 	ldr	r2, [pc, #372]	; 210032d4 <lcd_init+0x1a0>
2100315c:	e5832000 	str	r2, [r3]
21003160:	e59f3178 	ldr	r3, [pc, #376]	; 210032e0 <lcd_init+0x1ac>
21003164:	e59f2168 	ldr	r2, [pc, #360]	; 210032d4 <lcd_init+0x1a0>
21003168:	e5832000 	str	r2, [r3]
2100316c:	e59f3170 	ldr	r3, [pc, #368]	; 210032e4 <lcd_init+0x1b0>
21003170:	e59f216c 	ldr	r2, [pc, #364]	; 210032e4 <lcd_init+0x1b0>
21003174:	e5922000 	ldr	r2, [r2]
21003178:	e3822010 	orr	r2, r2, #16
2100317c:	e5832000 	str	r2, [r3]
21003180:	e59f3160 	ldr	r3, [pc, #352]	; 210032e8 <lcd_init+0x1b4>
21003184:	e59f215c 	ldr	r2, [pc, #348]	; 210032e8 <lcd_init+0x1b4>
21003188:	e5922000 	ldr	r2, [r2]
2100318c:	e3822002 	orr	r2, r2, #2
21003190:	e5832000 	str	r2, [r3]
21003194:	e59f3150 	ldr	r3, [pc, #336]	; 210032ec <lcd_init+0x1b8>
21003198:	e3a02002 	mov	r2, #2
2100319c:	e5832000 	str	r2, [r3]
210031a0:	e3a0333e 	mov	r3, #-134217728	; 0xf8000000
210031a4:	e3a0233e 	mov	r2, #-134217728	; 0xf8000000
210031a8:	e5922000 	ldr	r2, [r2]
210031ac:	e3822003 	orr	r2, r2, #3
210031b0:	e5832000 	str	r2, [r3]
210031b4:	e3a0333e 	mov	r3, #-134217728	; 0xf8000000
210031b8:	e3a0233e 	mov	r2, #-134217728	; 0xf8000000
210031bc:	e5922000 	ldr	r2, [r2]
210031c0:	e3822010 	orr	r2, r2, #16
210031c4:	e5832000 	str	r2, [r3]
210031c8:	e3a0333e 	mov	r3, #-134217728	; 0xf8000000
210031cc:	e3a0233e 	mov	r2, #-134217728	; 0xf8000000
210031d0:	e5922000 	ldr	r2, [r2]
210031d4:	e3822d0e 	orr	r2, r2, #896	; 0x380
210031d8:	e5832000 	str	r2, [r3]
210031dc:	e59f310c 	ldr	r3, [pc, #268]	; 210032f0 <lcd_init+0x1bc>
210031e0:	e59f2108 	ldr	r2, [pc, #264]	; 210032f0 <lcd_init+0x1bc>
210031e4:	e5922000 	ldr	r2, [r2]
210031e8:	e3822060 	orr	r2, r2, #96	; 0x60
210031ec:	e5832000 	str	r2, [r3]
210031f0:	e59f30fc 	ldr	r3, [pc, #252]	; 210032f4 <lcd_init+0x1c0>
210031f4:	e59f20fc 	ldr	r2, [pc, #252]	; 210032f8 <lcd_init+0x1c4>
210031f8:	e5832000 	str	r2, [r3]
210031fc:	e59f30f8 	ldr	r3, [pc, #248]	; 210032fc <lcd_init+0x1c8>
21003200:	e59f20f4 	ldr	r2, [pc, #244]	; 210032fc <lcd_init+0x1c8>
21003204:	e5922000 	ldr	r2, [r2]
21003208:	e3822001 	orr	r2, r2, #1
2100320c:	e5832000 	str	r2, [r3]
21003210:	e59f30e4 	ldr	r3, [pc, #228]	; 210032fc <lcd_init+0x1c8>
21003214:	e59f20e0 	ldr	r2, [pc, #224]	; 210032fc <lcd_init+0x1c8>
21003218:	e5922000 	ldr	r2, [r2]
2100321c:	e382202c 	orr	r2, r2, #44	; 0x2c
21003220:	e5832000 	str	r2, [r3]
21003224:	e59f30d0 	ldr	r3, [pc, #208]	; 210032fc <lcd_init+0x1c8>
21003228:	e59f20cc 	ldr	r2, [pc, #204]	; 210032fc <lcd_init+0x1c8>
2100322c:	e5922000 	ldr	r2, [r2]
21003230:	e3822902 	orr	r2, r2, #32768	; 0x8000
21003234:	e5832000 	str	r2, [r3]
21003238:	e59f30c0 	ldr	r3, [pc, #192]	; 21003300 <lcd_init+0x1cc>
2100323c:	e59f20bc 	ldr	r2, [pc, #188]	; 21003300 <lcd_init+0x1cc>
21003240:	e5922000 	ldr	r2, [r2]
21003244:	e5832000 	str	r2, [r3]
21003248:	e59f30b0 	ldr	r3, [pc, #176]	; 21003300 <lcd_init+0x1cc>
2100324c:	e59f20ac 	ldr	r2, [pc, #172]	; 21003300 <lcd_init+0x1cc>
21003250:	e5922000 	ldr	r2, [r2]
21003254:	e5832000 	str	r2, [r3]
21003258:	e59f20a4 	ldr	r2, [pc, #164]	; 21003304 <lcd_init+0x1d0>
2100325c:	e59f30a0 	ldr	r3, [pc, #160]	; 21003304 <lcd_init+0x1d0>
21003260:	e5933000 	ldr	r3, [r3]
21003264:	e3833aef 	orr	r3, r3, #978944	; 0xef000
21003268:	e3833b02 	orr	r3, r3, #2048	; 0x800
2100326c:	e5823000 	str	r3, [r2]
21003270:	e59f208c 	ldr	r2, [pc, #140]	; 21003304 <lcd_init+0x1d0>
21003274:	e59f3088 	ldr	r3, [pc, #136]	; 21003304 <lcd_init+0x1d0>
21003278:	e5933000 	ldr	r3, [r3]
2100327c:	e3833f43 	orr	r3, r3, #268	; 0x10c
21003280:	e3833003 	orr	r3, r3, #3
21003284:	e5823000 	str	r3, [r2]
21003288:	e59f3078 	ldr	r3, [pc, #120]	; 21003308 <lcd_init+0x1d4>
2100328c:	e3a02422 	mov	r2, #570425344	; 0x22000000
21003290:	e5832000 	str	r2, [r3]
21003294:	e59f3070 	ldr	r3, [pc, #112]	; 2100330c <lcd_init+0x1d8>
21003298:	e59f2070 	ldr	r2, [pc, #112]	; 21003310 <lcd_init+0x1dc>
2100329c:	e5832000 	str	r2, [r3]
210032a0:	e59f306c 	ldr	r3, [pc, #108]	; 21003314 <lcd_init+0x1e0>
210032a4:	e59f206c 	ldr	r2, [pc, #108]	; 21003318 <lcd_init+0x1e4>
210032a8:	e5832000 	str	r2, [r3]
210032ac:	e59f3068 	ldr	r3, [pc, #104]	; 2100331c <lcd_init+0x1e8>
210032b0:	e59f2068 	ldr	r2, [pc, #104]	; 21003320 <lcd_init+0x1ec>
210032b4:	e5832000 	str	r2, [r3]
210032b8:	e59f3064 	ldr	r3, [pc, #100]	; 21003324 <lcd_init+0x1f0>
210032bc:	e3a02001 	mov	r2, #1
210032c0:	e5832000 	str	r2, [r3]
210032c4:	e28bd000 	add	sp, fp, #0
210032c8:	e8bd0800 	pop	{fp}
210032cc:	e12fff1e 	bx	lr
210032d0:	e0200120 	.word	0xe0200120
210032d4:	22222222 	.word	0x22222222
210032d8:	e0200140 	.word	0xe0200140
210032dc:	e0200160 	.word	0xe0200160
210032e0:	e0200180 	.word	0xe0200180
210032e4:	e02000a0 	.word	0xe02000a0
210032e8:	e02000a4 	.word	0xe02000a4
210032ec:	e0107008 	.word	0xe0107008
210032f0:	f8000004 	.word	0xf8000004
210032f4:	f8000018 	.word	0xf8000018
210032f8:	000879df 	.word	0x000879df
210032fc:	f8000020 	.word	0xf8000020
21003300:	f8000040 	.word	0xf8000040
21003304:	f8000044 	.word	0xf8000044
21003308:	f80000a0 	.word	0xf80000a0
2100330c:	f80000d0 	.word	0xf80000d0
21003310:	2207f800 	.word	0x2207f800
21003314:	f8000010 	.word	0xf8000010
21003318:	00070107 	.word	0x00070107
2100331c:	f8000014 	.word	0xf8000014
21003320:	00040127 	.word	0x00040127
21003324:	f8000034 	.word	0xf8000034

21003328 <lcd_clear_screen>:
21003328:	e52db004 	push	{fp}		; (str fp, [sp, #-4]!)
2100332c:	e28db000 	add	fp, sp, #0
21003330:	e24dd014 	sub	sp, sp, #20
21003334:	e50b0010 	str	r0, [fp, #-16]
21003338:	e3a03000 	mov	r3, #0
2100333c:	e50b3008 	str	r3, [fp, #-8]
21003340:	ea000018 	b	210033a8 <lcd_clear_screen+0x80>
21003344:	e3a03000 	mov	r3, #0
21003348:	e50b300c 	str	r3, [fp, #-12]
2100334c:	ea00000e 	b	2100338c <lcd_clear_screen+0x64>
21003350:	e51b2008 	ldr	r2, [fp, #-8]
21003354:	e1a03002 	mov	r3, r2
21003358:	e1a03203 	lsl	r3, r3, #4
2100335c:	e0623003 	rsb	r3, r2, r3
21003360:	e1a03283 	lsl	r3, r3, #5
21003364:	e1a02003 	mov	r2, r3
21003368:	e51b300c 	ldr	r3, [fp, #-12]
2100336c:	e0823003 	add	r3, r2, r3
21003370:	e1a03103 	lsl	r3, r3, #2
21003374:	e2833422 	add	r3, r3, #570425344	; 0x22000000
21003378:	e51b2010 	ldr	r2, [fp, #-16]
2100337c:	e5832000 	str	r2, [r3]
21003380:	e51b300c 	ldr	r3, [fp, #-12]
21003384:	e2833001 	add	r3, r3, #1
21003388:	e50b300c 	str	r3, [fp, #-12]
2100338c:	e51b200c 	ldr	r2, [fp, #-12]
21003390:	e59f302c 	ldr	r3, [pc, #44]	; 210033c4 <lcd_clear_screen+0x9c>
21003394:	e1520003 	cmp	r2, r3
21003398:	daffffec 	ble	21003350 <lcd_clear_screen+0x28>
2100339c:	e51b3008 	ldr	r3, [fp, #-8]
210033a0:	e2833001 	add	r3, r3, #1
210033a4:	e50b3008 	str	r3, [fp, #-8]
210033a8:	e51b2008 	ldr	r2, [fp, #-8]
210033ac:	e59f3014 	ldr	r3, [pc, #20]	; 210033c8 <lcd_clear_screen+0xa0>
210033b0:	e1520003 	cmp	r2, r3
210033b4:	daffffe2 	ble	21003344 <lcd_clear_screen+0x1c>
210033b8:	e28bd000 	add	sp, fp, #0
210033bc:	e8bd0800 	pop	{fp}
210033c0:	e12fff1e 	bx	lr
210033c4:	000001df 	.word	0x000001df
210033c8:	0000010f 	.word	0x0000010f

210033cc <lcd_draw_hline>:
210033cc:	e52db004 	push	{fp}		; (str fp, [sp, #-4]!)
210033d0:	e28db000 	add	fp, sp, #0
210033d4:	e24dd01c 	sub	sp, sp, #28
210033d8:	e50b0010 	str	r0, [fp, #-16]
210033dc:	e50b1014 	str	r1, [fp, #-20]
210033e0:	e50b2018 	str	r2, [fp, #-24]
210033e4:	e50b301c 	str	r3, [fp, #-28]
210033e8:	e51b3014 	ldr	r3, [fp, #-20]
210033ec:	e50b3008 	str	r3, [fp, #-8]
210033f0:	ea00000e 	b	21003430 <lcd_draw_hline+0x64>
210033f4:	e51b2010 	ldr	r2, [fp, #-16]
210033f8:	e1a03002 	mov	r3, r2
210033fc:	e1a03203 	lsl	r3, r3, #4
21003400:	e0623003 	rsb	r3, r2, r3
21003404:	e1a03283 	lsl	r3, r3, #5
21003408:	e1a02003 	mov	r2, r3
2100340c:	e51b3008 	ldr	r3, [fp, #-8]
21003410:	e0823003 	add	r3, r2, r3
21003414:	e1a03103 	lsl	r3, r3, #2
21003418:	e2833422 	add	r3, r3, #570425344	; 0x22000000
2100341c:	e51b201c 	ldr	r2, [fp, #-28]
21003420:	e5832000 	str	r2, [r3]
21003424:	e51b3008 	ldr	r3, [fp, #-8]
21003428:	e2833001 	add	r3, r3, #1
2100342c:	e50b3008 	str	r3, [fp, #-8]
21003430:	e51b2008 	ldr	r2, [fp, #-8]
21003434:	e51b3018 	ldr	r3, [fp, #-24]
21003438:	e1520003 	cmp	r2, r3
2100343c:	daffffec 	ble	210033f4 <lcd_draw_hline+0x28>
21003440:	e28bd000 	add	sp, fp, #0
21003444:	e8bd0800 	pop	{fp}
21003448:	e12fff1e 	bx	lr

2100344c <lcd_draw_vline>:
2100344c:	e52db004 	push	{fp}		; (str fp, [sp, #-4]!)
21003450:	e28db000 	add	fp, sp, #0
21003454:	e24dd01c 	sub	sp, sp, #28
21003458:	e50b0010 	str	r0, [fp, #-16]
2100345c:	e50b1014 	str	r1, [fp, #-20]
21003460:	e50b2018 	str	r2, [fp, #-24]
21003464:	e50b301c 	str	r3, [fp, #-28]
21003468:	e51b3014 	ldr	r3, [fp, #-20]
2100346c:	e50b3008 	str	r3, [fp, #-8]
21003470:	ea00000e 	b	210034b0 <lcd_draw_vline+0x64>
21003474:	e51b2008 	ldr	r2, [fp, #-8]
21003478:	e1a03002 	mov	r3, r2
2100347c:	e1a03203 	lsl	r3, r3, #4
21003480:	e0623003 	rsb	r3, r2, r3
21003484:	e1a03283 	lsl	r3, r3, #5
21003488:	e1a02003 	mov	r2, r3
2100348c:	e51b3010 	ldr	r3, [fp, #-16]
21003490:	e0823003 	add	r3, r2, r3
21003494:	e1a03103 	lsl	r3, r3, #2
21003498:	e2833422 	add	r3, r3, #570425344	; 0x22000000
2100349c:	e51b201c 	ldr	r2, [fp, #-28]
210034a0:	e5832000 	str	r2, [r3]
210034a4:	e51b3008 	ldr	r3, [fp, #-8]
210034a8:	e2833001 	add	r3, r3, #1
210034ac:	e50b3008 	str	r3, [fp, #-8]
210034b0:	e51b2008 	ldr	r2, [fp, #-8]
210034b4:	e51b3018 	ldr	r3, [fp, #-24]
210034b8:	e1520003 	cmp	r2, r3
210034bc:	daffffec 	ble	21003474 <lcd_draw_vline+0x28>
210034c0:	e28bd000 	add	sp, fp, #0
210034c4:	e8bd0800 	pop	{fp}
210034c8:	e12fff1e 	bx	lr

210034cc <lcd_draw_cross>:
210034cc:	e92d4800 	push	{fp, lr}
210034d0:	e28db004 	add	fp, sp, #4
210034d4:	e24dd010 	sub	sp, sp, #16
210034d8:	e50b0008 	str	r0, [fp, #-8]
210034dc:	e50b100c 	str	r1, [fp, #-12]
210034e0:	e50b2010 	str	r2, [fp, #-16]
210034e4:	e50b3014 	str	r3, [fp, #-20]
210034e8:	e51b200c 	ldr	r2, [fp, #-12]
210034ec:	e51b3010 	ldr	r3, [fp, #-16]
210034f0:	e0632002 	rsb	r2, r3, r2
210034f4:	e51b100c 	ldr	r1, [fp, #-12]
210034f8:	e51b3010 	ldr	r3, [fp, #-16]
210034fc:	e0813003 	add	r3, r1, r3
21003500:	e51b0008 	ldr	r0, [fp, #-8]
21003504:	e1a01002 	mov	r1, r2
21003508:	e1a02003 	mov	r2, r3
2100350c:	e51b3014 	ldr	r3, [fp, #-20]
21003510:	ebffffad 	bl	210033cc <lcd_draw_hline>
21003514:	e51b2008 	ldr	r2, [fp, #-8]
21003518:	e51b3010 	ldr	r3, [fp, #-16]
2100351c:	e0632002 	rsb	r2, r3, r2
21003520:	e51b1008 	ldr	r1, [fp, #-8]
21003524:	e51b3010 	ldr	r3, [fp, #-16]
21003528:	e0813003 	add	r3, r1, r3
2100352c:	e51b000c 	ldr	r0, [fp, #-12]
21003530:	e1a01002 	mov	r1, r2
21003534:	e1a02003 	mov	r2, r3
21003538:	e51b3014 	ldr	r3, [fp, #-20]
2100353c:	ebffffc2 	bl	2100344c <lcd_draw_vline>
21003540:	e24bd004 	sub	sp, fp, #4
21003544:	e8bd8800 	pop	{fp, pc}

21003548 <lcd_draw_bmp>:
21003548:	e52db004 	push	{fp}		; (str fp, [sp, #-4]!)
2100354c:	e28db000 	add	fp, sp, #0
21003550:	e24dd02c 	sub	sp, sp, #44	; 0x2c
21003554:	e50b0028 	str	r0, [fp, #-40]	; 0x28
21003558:	e51b3028 	ldr	r3, [fp, #-40]	; 0x28
2100355c:	e50b3010 	str	r3, [fp, #-16]
21003560:	e51b3010 	ldr	r3, [fp, #-16]
21003564:	e2833036 	add	r3, r3, #54	; 0x36
21003568:	e50b3010 	str	r3, [fp, #-16]
2100356c:	e3a03000 	mov	r3, #0
21003570:	e50b3008 	str	r3, [fp, #-8]
21003574:	ea000034 	b	2100364c <lcd_draw_bmp+0x104>
21003578:	e3a03000 	mov	r3, #0
2100357c:	e50b300c 	str	r3, [fp, #-12]
21003580:	ea00002a 	b	21003630 <lcd_draw_bmp+0xe8>
21003584:	e51b3010 	ldr	r3, [fp, #-16]
21003588:	e5d33000 	ldrb	r3, [r3]
2100358c:	e50b3014 	str	r3, [fp, #-20]
21003590:	e51b3010 	ldr	r3, [fp, #-16]
21003594:	e2833001 	add	r3, r3, #1
21003598:	e50b3010 	str	r3, [fp, #-16]
2100359c:	e51b3010 	ldr	r3, [fp, #-16]
210035a0:	e5d33000 	ldrb	r3, [r3]
210035a4:	e50b3018 	str	r3, [fp, #-24]
210035a8:	e51b3010 	ldr	r3, [fp, #-16]
210035ac:	e2833001 	add	r3, r3, #1
210035b0:	e50b3010 	str	r3, [fp, #-16]
210035b4:	e51b3010 	ldr	r3, [fp, #-16]
210035b8:	e5d33000 	ldrb	r3, [r3]
210035bc:	e50b301c 	str	r3, [fp, #-28]
210035c0:	e51b3010 	ldr	r3, [fp, #-16]
210035c4:	e2833001 	add	r3, r3, #1
210035c8:	e50b3010 	str	r3, [fp, #-16]
210035cc:	e51b301c 	ldr	r3, [fp, #-28]
210035d0:	e1a02803 	lsl	r2, r3, #16
210035d4:	e51b3018 	ldr	r3, [fp, #-24]
210035d8:	e1a03403 	lsl	r3, r3, #8
210035dc:	e1822003 	orr	r2, r2, r3
210035e0:	e51b3014 	ldr	r3, [fp, #-20]
210035e4:	e1823003 	orr	r3, r2, r3
210035e8:	e50b3020 	str	r3, [fp, #-32]
210035ec:	e51b2008 	ldr	r2, [fp, #-8]
210035f0:	e1a03002 	mov	r3, r2
210035f4:	e1a02202 	lsl	r2, r2, #4
210035f8:	e0623003 	rsb	r3, r2, r3
210035fc:	e1a03283 	lsl	r3, r3, #5
21003600:	e1a02003 	mov	r2, r3
21003604:	e51b300c 	ldr	r3, [fp, #-12]
21003608:	e0823003 	add	r3, r2, r3
2100360c:	e2833b7f 	add	r3, r3, #130048	; 0x1fc00
21003610:	e2833020 	add	r3, r3, #32
21003614:	e1a03103 	lsl	r3, r3, #2
21003618:	e2833422 	add	r3, r3, #570425344	; 0x22000000
2100361c:	e51b2020 	ldr	r2, [fp, #-32]
21003620:	e5832000 	str	r2, [r3]
21003624:	e51b300c 	ldr	r3, [fp, #-12]
21003628:	e2833001 	add	r3, r3, #1
2100362c:	e50b300c 	str	r3, [fp, #-12]
21003630:	e51b200c 	ldr	r2, [fp, #-12]
21003634:	e59f302c 	ldr	r3, [pc, #44]	; 21003668 <lcd_draw_bmp+0x120>
21003638:	e1520003 	cmp	r2, r3
2100363c:	daffffd0 	ble	21003584 <lcd_draw_bmp+0x3c>
21003640:	e51b3008 	ldr	r3, [fp, #-8]
21003644:	e2833001 	add	r3, r3, #1
21003648:	e50b3008 	str	r3, [fp, #-8]
2100364c:	e51b2008 	ldr	r2, [fp, #-8]
21003650:	e59f3014 	ldr	r3, [pc, #20]	; 2100366c <lcd_draw_bmp+0x124>
21003654:	e1520003 	cmp	r2, r3
21003658:	daffffc6 	ble	21003578 <lcd_draw_bmp+0x30>
2100365c:	e28bd000 	add	sp, fp, #0
21003660:	e8bd0800 	pop	{fp}
21003664:	e12fff1e 	bx	lr
21003668:	000001df 	.word	0x000001df
2100366c:	0000010f 	.word	0x0000010f

21003670 <ndelay>:
21003670:	e52db004 	push	{fp}		; (str fp, [sp, #-4]!)
21003674:	e28db000 	add	fp, sp, #0
21003678:	e24dd014 	sub	sp, sp, #20
2100367c:	e50b0010 	str	r0, [fp, #-16]
21003680:	e3a03000 	mov	r3, #0
21003684:	e50b3008 	str	r3, [fp, #-8]
21003688:	ea000002 	b	21003698 <ndelay+0x28>
2100368c:	e51b3008 	ldr	r3, [fp, #-8]
21003690:	e2833001 	add	r3, r3, #1
21003694:	e50b3008 	str	r3, [fp, #-8]
21003698:	e51b2008 	ldr	r2, [fp, #-8]
2100369c:	e51b3010 	ldr	r3, [fp, #-16]
210036a0:	e1520003 	cmp	r2, r3
210036a4:	bafffff8 	blt	2100368c <ndelay+0x1c>
210036a8:	e28bd000 	add	sp, fp, #0
210036ac:	e8bd0800 	pop	{fp}
210036b0:	e12fff1e 	bx	lr

210036b4 <delay>:
210036b4:	e52db004 	push	{fp}		; (str fp, [sp, #-4]!)
210036b8:	e28db000 	add	fp, sp, #0
210036bc:	e24dd00c 	sub	sp, sp, #12
210036c0:	e3a03000 	mov	r3, #0
210036c4:	e50b3008 	str	r3, [fp, #-8]
210036c8:	ea000002 	b	210036d8 <delay+0x24>
210036cc:	e51b3008 	ldr	r3, [fp, #-8]
210036d0:	e2833001 	add	r3, r3, #1
210036d4:	e50b3008 	str	r3, [fp, #-8]
210036d8:	e51b2008 	ldr	r2, [fp, #-8]
210036dc:	e3e034ff 	mvn	r3, #-16777216	; 0xff000000
210036e0:	e1520003 	cmp	r2, r3
210036e4:	dafffff8 	ble	210036cc <delay+0x18>
210036e8:	e28bd000 	add	sp, fp, #0
210036ec:	e8bd0800 	pop	{fp}
210036f0:	e12fff1e 	bx	lr

210036f4 <atoi>:
210036f4:	e52db004 	push	{fp}		; (str fp, [sp, #-4]!)
210036f8:	e28db000 	add	fp, sp, #0
210036fc:	e24dd01c 	sub	sp, sp, #28
21003700:	e50b0018 	str	r0, [fp, #-24]
21003704:	e3a03000 	mov	r3, #0
21003708:	e50b3008 	str	r3, [fp, #-8]
2100370c:	e3a0300a 	mov	r3, #10
21003710:	e50b300c 	str	r3, [fp, #-12]
21003714:	e3a03000 	mov	r3, #0
21003718:	e50b3010 	str	r3, [fp, #-16]
2100371c:	e51b3018 	ldr	r3, [fp, #-24]
21003720:	e5d33000 	ldrb	r3, [r3]
21003724:	e3530030 	cmp	r3, #48	; 0x30
21003728:	1a00002c 	bne	210037e0 <atoi+0xec>
2100372c:	e51b3018 	ldr	r3, [fp, #-24]
21003730:	e2833001 	add	r3, r3, #1
21003734:	e5d33000 	ldrb	r3, [r3]
21003738:	e3530078 	cmp	r3, #120	; 0x78
2100373c:	1a000029 	bne	210037e8 <atoi+0xf4>
21003740:	e3a03010 	mov	r3, #16
21003744:	e50b300c 	str	r3, [fp, #-12]
21003748:	e3a03002 	mov	r3, #2
2100374c:	e50b3010 	str	r3, [fp, #-16]
21003750:	ea000025 	b	210037ec <atoi+0xf8>
21003754:	e51b3010 	ldr	r3, [fp, #-16]
21003758:	e51b2018 	ldr	r2, [fp, #-24]
2100375c:	e0823003 	add	r3, r2, r3
21003760:	e5d33000 	ldrb	r3, [r3]
21003764:	e3530039 	cmp	r3, #57	; 0x39
21003768:	8a00000c 	bhi	210037a0 <atoi+0xac>
2100376c:	e51b3010 	ldr	r3, [fp, #-16]
21003770:	e51b2018 	ldr	r2, [fp, #-24]
21003774:	e0823003 	add	r3, r2, r3
21003778:	e5d33000 	ldrb	r3, [r3]
2100377c:	e353002f 	cmp	r3, #47	; 0x2f
21003780:	9a000006 	bls	210037a0 <atoi+0xac>
21003784:	e51b3010 	ldr	r3, [fp, #-16]
21003788:	e51b2018 	ldr	r2, [fp, #-24]
2100378c:	e0823003 	add	r3, r2, r3
21003790:	e5d33000 	ldrb	r3, [r3]
21003794:	e2433030 	sub	r3, r3, #48	; 0x30
21003798:	e50b3014 	str	r3, [fp, #-20]
2100379c:	ea000005 	b	210037b8 <atoi+0xc4>
210037a0:	e51b3010 	ldr	r3, [fp, #-16]
210037a4:	e51b2018 	ldr	r2, [fp, #-24]
210037a8:	e0823003 	add	r3, r2, r3
210037ac:	e5d33000 	ldrb	r3, [r3]
210037b0:	e2433057 	sub	r3, r3, #87	; 0x57
210037b4:	e50b3014 	str	r3, [fp, #-20]
210037b8:	e51b3008 	ldr	r3, [fp, #-8]
210037bc:	e51b200c 	ldr	r2, [fp, #-12]
210037c0:	e0020392 	mul	r2, r2, r3
210037c4:	e51b3014 	ldr	r3, [fp, #-20]
210037c8:	e0823003 	add	r3, r2, r3
210037cc:	e50b3008 	str	r3, [fp, #-8]
210037d0:	e51b3010 	ldr	r3, [fp, #-16]
210037d4:	e2833001 	add	r3, r3, #1
210037d8:	e50b3010 	str	r3, [fp, #-16]
210037dc:	ea000002 	b	210037ec <atoi+0xf8>
210037e0:	e1a00000 	nop			; (mov r0, r0)
210037e4:	ea000000 	b	210037ec <atoi+0xf8>
210037e8:	e1a00000 	nop			; (mov r0, r0)
210037ec:	e51b3010 	ldr	r3, [fp, #-16]
210037f0:	e51b2018 	ldr	r2, [fp, #-24]
210037f4:	e0823003 	add	r3, r2, r3
210037f8:	e5d33000 	ldrb	r3, [r3]
210037fc:	e3530000 	cmp	r3, #0
21003800:	1affffd3 	bne	21003754 <atoi+0x60>
21003804:	e51b3008 	ldr	r3, [fp, #-8]
21003808:	e1a00003 	mov	r0, r3
2100380c:	e28bd000 	add	sp, fp, #0
21003810:	e8bd0800 	pop	{fp}
21003814:	e12fff1e 	bx	lr

21003818 <strcmp>:
21003818:	e52db004 	push	{fp}		; (str fp, [sp, #-4]!)
2100381c:	e28db000 	add	fp, sp, #0
21003820:	e24dd00c 	sub	sp, sp, #12
21003824:	e50b0008 	str	r0, [fp, #-8]
21003828:	e50b100c 	str	r1, [fp, #-12]
2100382c:	ea00000b 	b	21003860 <strcmp+0x48>
21003830:	e51b3008 	ldr	r3, [fp, #-8]
21003834:	e5d33000 	ldrb	r3, [r3]
21003838:	e3530000 	cmp	r3, #0
2100383c:	1a000001 	bne	21003848 <strcmp+0x30>
21003840:	e3a03000 	mov	r3, #0
21003844:	ea000011 	b	21003890 <strcmp+0x78>
21003848:	e51b3008 	ldr	r3, [fp, #-8]
2100384c:	e2833001 	add	r3, r3, #1
21003850:	e50b3008 	str	r3, [fp, #-8]
21003854:	e51b300c 	ldr	r3, [fp, #-12]
21003858:	e2833001 	add	r3, r3, #1
2100385c:	e50b300c 	str	r3, [fp, #-12]
21003860:	e51b3008 	ldr	r3, [fp, #-8]
21003864:	e5d32000 	ldrb	r2, [r3]
21003868:	e51b300c 	ldr	r3, [fp, #-12]
2100386c:	e5d33000 	ldrb	r3, [r3]
21003870:	e1520003 	cmp	r2, r3
21003874:	0affffed 	beq	21003830 <strcmp+0x18>
21003878:	e51b3008 	ldr	r3, [fp, #-8]
2100387c:	e5d33000 	ldrb	r3, [r3]
21003880:	e1a02003 	mov	r2, r3
21003884:	e51b300c 	ldr	r3, [fp, #-12]
21003888:	e5d33000 	ldrb	r3, [r3]
2100388c:	e0633002 	rsb	r3, r3, r2
21003890:	e1a00003 	mov	r0, r3
21003894:	e28bd000 	add	sp, fp, #0
21003898:	e8bd0800 	pop	{fp}
2100389c:	e12fff1e 	bx	lr

210038a0 <strncmp>:
210038a0:	e52db004 	push	{fp}		; (str fp, [sp, #-4]!)
210038a4:	e28db000 	add	fp, sp, #0
210038a8:	e24dd014 	sub	sp, sp, #20
210038ac:	e50b0008 	str	r0, [fp, #-8]
210038b0:	e50b100c 	str	r1, [fp, #-12]
210038b4:	e50b2010 	str	r2, [fp, #-16]
210038b8:	e51b3010 	ldr	r3, [fp, #-16]
210038bc:	e3530000 	cmp	r3, #0
210038c0:	1a000007 	bne	210038e4 <strncmp+0x44>
210038c4:	e3a03000 	mov	r3, #0
210038c8:	ea00001b 	b	2100393c <strncmp+0x9c>
210038cc:	e51b3008 	ldr	r3, [fp, #-8]
210038d0:	e2833001 	add	r3, r3, #1
210038d4:	e50b3008 	str	r3, [fp, #-8]
210038d8:	e51b300c 	ldr	r3, [fp, #-12]
210038dc:	e2833001 	add	r3, r3, #1
210038e0:	e50b300c 	str	r3, [fp, #-12]
210038e4:	e51b3010 	ldr	r3, [fp, #-16]
210038e8:	e2433001 	sub	r3, r3, #1
210038ec:	e50b3010 	str	r3, [fp, #-16]
210038f0:	e51b3010 	ldr	r3, [fp, #-16]
210038f4:	e3530000 	cmp	r3, #0
210038f8:	0a000009 	beq	21003924 <strncmp+0x84>
210038fc:	e51b3008 	ldr	r3, [fp, #-8]
21003900:	e5d33000 	ldrb	r3, [r3]
21003904:	e3530000 	cmp	r3, #0
21003908:	0a000005 	beq	21003924 <strncmp+0x84>
2100390c:	e51b3008 	ldr	r3, [fp, #-8]
21003910:	e5d32000 	ldrb	r2, [r3]
21003914:	e51b300c 	ldr	r3, [fp, #-12]
21003918:	e5d33000 	ldrb	r3, [r3]
2100391c:	e1520003 	cmp	r2, r3
21003920:	0affffe9 	beq	210038cc <strncmp+0x2c>
21003924:	e51b3008 	ldr	r3, [fp, #-8]
21003928:	e5d33000 	ldrb	r3, [r3]
2100392c:	e1a02003 	mov	r2, r3
21003930:	e51b300c 	ldr	r3, [fp, #-12]
21003934:	e5d33000 	ldrb	r3, [r3]
21003938:	e0633002 	rsb	r3, r3, r2
2100393c:	e1a00003 	mov	r0, r3
21003940:	e28bd000 	add	sp, fp, #0
21003944:	e8bd0800 	pop	{fp}
21003948:	e12fff1e 	bx	lr

2100394c <strcpy>:
2100394c:	e52db004 	push	{fp}		; (str fp, [sp, #-4]!)
21003950:	e28db000 	add	fp, sp, #0
21003954:	e24dd014 	sub	sp, sp, #20
21003958:	e50b0010 	str	r0, [fp, #-16]
2100395c:	e50b1014 	str	r1, [fp, #-20]
21003960:	e51b3010 	ldr	r3, [fp, #-16]
21003964:	e50b3008 	str	r3, [fp, #-8]
21003968:	e1a00000 	nop			; (mov r0, r0)
2100396c:	e51b3014 	ldr	r3, [fp, #-20]
21003970:	e5d32000 	ldrb	r2, [r3]
21003974:	e51b3008 	ldr	r3, [fp, #-8]
21003978:	e5c32000 	strb	r2, [r3]
2100397c:	e51b3008 	ldr	r3, [fp, #-8]
21003980:	e5d33000 	ldrb	r3, [r3]
21003984:	e3530000 	cmp	r3, #0
21003988:	03a03000 	moveq	r3, #0
2100398c:	13a03001 	movne	r3, #1
21003990:	e6ef3073 	uxtb	r3, r3
21003994:	e51b2008 	ldr	r2, [fp, #-8]
21003998:	e2822001 	add	r2, r2, #1
2100399c:	e50b2008 	str	r2, [fp, #-8]
210039a0:	e51b2014 	ldr	r2, [fp, #-20]
210039a4:	e2822001 	add	r2, r2, #1
210039a8:	e50b2014 	str	r2, [fp, #-20]
210039ac:	e3530000 	cmp	r3, #0
210039b0:	1affffed 	bne	2100396c <strcpy+0x20>
210039b4:	e51b3010 	ldr	r3, [fp, #-16]
210039b8:	e1a00003 	mov	r0, r3
210039bc:	e28bd000 	add	sp, fp, #0
210039c0:	e8bd0800 	pop	{fp}
210039c4:	e12fff1e 	bx	lr

210039c8 <strncpy>:
210039c8:	e52db004 	push	{fp}		; (str fp, [sp, #-4]!)
210039cc:	e28db000 	add	fp, sp, #0
210039d0:	e24dd01c 	sub	sp, sp, #28
210039d4:	e50b0010 	str	r0, [fp, #-16]
210039d8:	e50b1014 	str	r1, [fp, #-20]
210039dc:	e50b2018 	str	r2, [fp, #-24]
210039e0:	e51b3010 	ldr	r3, [fp, #-16]
210039e4:	e50b3008 	str	r3, [fp, #-8]
210039e8:	ea000002 	b	210039f8 <strncpy+0x30>
210039ec:	e51b3018 	ldr	r3, [fp, #-24]
210039f0:	e2433001 	sub	r3, r3, #1
210039f4:	e50b3018 	str	r3, [fp, #-24]
210039f8:	e51b3018 	ldr	r3, [fp, #-24]
210039fc:	e3530000 	cmp	r3, #0
21003a00:	0a000011 	beq	21003a4c <strncpy+0x84>
21003a04:	e51b3014 	ldr	r3, [fp, #-20]
21003a08:	e5d32000 	ldrb	r2, [r3]
21003a0c:	e51b3010 	ldr	r3, [fp, #-16]
21003a10:	e5c32000 	strb	r2, [r3]
21003a14:	e51b3010 	ldr	r3, [fp, #-16]
21003a18:	e5d33000 	ldrb	r3, [r3]
21003a1c:	e3530000 	cmp	r3, #0
21003a20:	03a03000 	moveq	r3, #0
21003a24:	13a03001 	movne	r3, #1
21003a28:	e6ef3073 	uxtb	r3, r3
21003a2c:	e51b2010 	ldr	r2, [fp, #-16]
21003a30:	e2822001 	add	r2, r2, #1
21003a34:	e50b2010 	str	r2, [fp, #-16]
21003a38:	e51b2014 	ldr	r2, [fp, #-20]
21003a3c:	e2822001 	add	r2, r2, #1
21003a40:	e50b2014 	str	r2, [fp, #-20]
21003a44:	e3530000 	cmp	r3, #0
21003a48:	1affffe7 	bne	210039ec <strncpy+0x24>
21003a4c:	e51b3018 	ldr	r3, [fp, #-24]
21003a50:	e3530000 	cmp	r3, #0
21003a54:	0a00000c 	beq	21003a8c <strncpy+0xc4>
21003a58:	ea000005 	b	21003a74 <strncpy+0xac>
21003a5c:	e51b3010 	ldr	r3, [fp, #-16]
21003a60:	e3a02000 	mov	r2, #0
21003a64:	e5c32000 	strb	r2, [r3]
21003a68:	e51b3010 	ldr	r3, [fp, #-16]
21003a6c:	e2833001 	add	r3, r3, #1
21003a70:	e50b3010 	str	r3, [fp, #-16]
21003a74:	e51b3018 	ldr	r3, [fp, #-24]
21003a78:	e2433001 	sub	r3, r3, #1
21003a7c:	e50b3018 	str	r3, [fp, #-24]
21003a80:	e51b3018 	ldr	r3, [fp, #-24]
21003a84:	e3530000 	cmp	r3, #0
21003a88:	1afffff3 	bne	21003a5c <strncpy+0x94>
21003a8c:	e51b3008 	ldr	r3, [fp, #-8]
21003a90:	e1a00003 	mov	r0, r3
21003a94:	e28bd000 	add	sp, fp, #0
21003a98:	e8bd0800 	pop	{fp}
21003a9c:	e12fff1e 	bx	lr

21003aa0 <memcpy>:
21003aa0:	e52db004 	push	{fp}		; (str fp, [sp, #-4]!)
21003aa4:	e28db000 	add	fp, sp, #0
21003aa8:	e24dd01c 	sub	sp, sp, #28
21003aac:	e50b0010 	str	r0, [fp, #-16]
21003ab0:	e50b1014 	str	r1, [fp, #-20]
21003ab4:	e50b2018 	str	r2, [fp, #-24]
21003ab8:	e51b3010 	ldr	r3, [fp, #-16]
21003abc:	e50b3008 	str	r3, [fp, #-8]
21003ac0:	e51b3014 	ldr	r3, [fp, #-20]
21003ac4:	e50b300c 	str	r3, [fp, #-12]
21003ac8:	ea000009 	b	21003af4 <memcpy+0x54>
21003acc:	e51b300c 	ldr	r3, [fp, #-12]
21003ad0:	e5d32000 	ldrb	r2, [r3]
21003ad4:	e51b3008 	ldr	r3, [fp, #-8]
21003ad8:	e5c32000 	strb	r2, [r3]
21003adc:	e51b3008 	ldr	r3, [fp, #-8]
21003ae0:	e2833001 	add	r3, r3, #1
21003ae4:	e50b3008 	str	r3, [fp, #-8]
21003ae8:	e51b300c 	ldr	r3, [fp, #-12]
21003aec:	e2833001 	add	r3, r3, #1
21003af0:	e50b300c 	str	r3, [fp, #-12]
21003af4:	e51b3018 	ldr	r3, [fp, #-24]
21003af8:	e3530000 	cmp	r3, #0
21003afc:	03a03000 	moveq	r3, #0
21003b00:	13a03001 	movne	r3, #1
21003b04:	e6ef3073 	uxtb	r3, r3
21003b08:	e51b2018 	ldr	r2, [fp, #-24]
21003b0c:	e2422001 	sub	r2, r2, #1
21003b10:	e50b2018 	str	r2, [fp, #-24]
21003b14:	e3530000 	cmp	r3, #0
21003b18:	1affffeb 	bne	21003acc <memcpy+0x2c>
21003b1c:	e51b3010 	ldr	r3, [fp, #-16]
21003b20:	e1a00003 	mov	r0, r3
21003b24:	e28bd000 	add	sp, fp, #0
21003b28:	e8bd0800 	pop	{fp}
21003b2c:	e12fff1e 	bx	lr

21003b30 <isdigit>:
21003b30:	e52db004 	push	{fp}		; (str fp, [sp, #-4]!)
21003b34:	e28db000 	add	fp, sp, #0
21003b38:	e24dd00c 	sub	sp, sp, #12
21003b3c:	e50b0008 	str	r0, [fp, #-8]
21003b40:	e51b3008 	ldr	r3, [fp, #-8]
21003b44:	e353002f 	cmp	r3, #47	; 0x2f
21003b48:	da000004 	ble	21003b60 <isdigit+0x30>
21003b4c:	e51b3008 	ldr	r3, [fp, #-8]
21003b50:	e3530039 	cmp	r3, #57	; 0x39
21003b54:	ca000001 	bgt	21003b60 <isdigit+0x30>
21003b58:	e3a03001 	mov	r3, #1
21003b5c:	ea000000 	b	21003b64 <isdigit+0x34>
21003b60:	e3a03000 	mov	r3, #0
21003b64:	e1a00003 	mov	r0, r3
21003b68:	e28bd000 	add	sp, fp, #0
21003b6c:	e8bd0800 	pop	{fp}
21003b70:	e12fff1e 	bx	lr

21003b74 <isalpha>:
21003b74:	e52db004 	push	{fp}		; (str fp, [sp, #-4]!)
21003b78:	e28db000 	add	fp, sp, #0
21003b7c:	e24dd00c 	sub	sp, sp, #12
21003b80:	e50b0008 	str	r0, [fp, #-8]
21003b84:	e51b3008 	ldr	r3, [fp, #-8]
21003b88:	e3530060 	cmp	r3, #96	; 0x60
21003b8c:	da000002 	ble	21003b9c <isalpha+0x28>
21003b90:	e51b3008 	ldr	r3, [fp, #-8]
21003b94:	e353007a 	cmp	r3, #122	; 0x7a
21003b98:	da000005 	ble	21003bb4 <isalpha+0x40>
21003b9c:	e51b3008 	ldr	r3, [fp, #-8]
21003ba0:	e3530040 	cmp	r3, #64	; 0x40
21003ba4:	da000004 	ble	21003bbc <isalpha+0x48>
21003ba8:	e51b3008 	ldr	r3, [fp, #-8]
21003bac:	e353005a 	cmp	r3, #90	; 0x5a
21003bb0:	ca000001 	bgt	21003bbc <isalpha+0x48>
21003bb4:	e3a03001 	mov	r3, #1
21003bb8:	ea000000 	b	21003bc0 <isalpha+0x4c>
21003bbc:	e3a03000 	mov	r3, #0
21003bc0:	e1a00003 	mov	r0, r3
21003bc4:	e28bd000 	add	sp, fp, #0
21003bc8:	e8bd0800 	pop	{fp}
21003bcc:	e12fff1e 	bx	lr

21003bd0 <isname>:
21003bd0:	e92d4800 	push	{fp, lr}
21003bd4:	e28db004 	add	fp, sp, #4
21003bd8:	e24dd008 	sub	sp, sp, #8
21003bdc:	e1a03000 	mov	r3, r0
21003be0:	e54b3005 	strb	r3, [fp, #-5]
21003be4:	e55b3005 	ldrb	r3, [fp, #-5]
21003be8:	e2433030 	sub	r3, r3, #48	; 0x30
21003bec:	e3530009 	cmp	r3, #9
21003bf0:	9a00000b 	bls	21003c24 <isname+0x54>
21003bf4:	e55b3005 	ldrb	r3, [fp, #-5]
21003bf8:	e1a00003 	mov	r0, r3
21003bfc:	ebffffdc 	bl	21003b74 <isalpha>
21003c00:	e1a03000 	mov	r3, r0
21003c04:	e3530000 	cmp	r3, #0
21003c08:	1a000005 	bne	21003c24 <isname+0x54>
21003c0c:	e55b3005 	ldrb	r3, [fp, #-5]
21003c10:	e353002e 	cmp	r3, #46	; 0x2e
21003c14:	0a000002 	beq	21003c24 <isname+0x54>
21003c18:	e55b3005 	ldrb	r3, [fp, #-5]
21003c1c:	e353002d 	cmp	r3, #45	; 0x2d
21003c20:	1a000001 	bne	21003c2c <isname+0x5c>
21003c24:	e3a03001 	mov	r3, #1
21003c28:	ea000000 	b	21003c30 <isname+0x60>
21003c2c:	e3a03000 	mov	r3, #0
21003c30:	e1a00003 	mov	r0, r3
21003c34:	e24bd004 	sub	sp, fp, #4
21003c38:	e8bd8800 	pop	{fp, pc}

21003c3c <get_key_value>:
21003c3c:	e92d4800 	push	{fp, lr}
21003c40:	e28db004 	add	fp, sp, #4
21003c44:	e24dd038 	sub	sp, sp, #56	; 0x38
21003c48:	e50b0030 	str	r0, [fp, #-48]	; 0x30
21003c4c:	e50b1034 	str	r1, [fp, #-52]	; 0x34
21003c50:	e50b2038 	str	r2, [fp, #-56]	; 0x38
21003c54:	e3a03000 	mov	r3, #0
21003c58:	e50b3008 	str	r3, [fp, #-8]
21003c5c:	e3a03000 	mov	r3, #0
21003c60:	e50b300c 	str	r3, [fp, #-12]
21003c64:	e3a03000 	mov	r3, #0
21003c68:	e50b3010 	str	r3, [fp, #-16]
21003c6c:	e3a03000 	mov	r3, #0
21003c70:	e50b3014 	str	r3, [fp, #-20]
21003c74:	ea000097 	b	21003ed8 <get_key_value+0x29c>
21003c78:	e51b300c 	ldr	r3, [fp, #-12]
21003c7c:	e51b2034 	ldr	r2, [fp, #-52]	; 0x34
21003c80:	e0823003 	add	r3, r2, r3
21003c84:	e5d33000 	ldrb	r3, [r3]
21003c88:	e54b3015 	strb	r3, [fp, #-21]
21003c8c:	e51b3008 	ldr	r3, [fp, #-8]
21003c90:	e3530000 	cmp	r3, #0
21003c94:	0a000002 	beq	21003ca4 <get_key_value+0x68>
21003c98:	e51b3008 	ldr	r3, [fp, #-8]
21003c9c:	e3530001 	cmp	r3, #1
21003ca0:	1a000015 	bne	21003cfc <get_key_value+0xc0>
21003ca4:	e55b3015 	ldrb	r3, [fp, #-21]
21003ca8:	e1a00003 	mov	r0, r3
21003cac:	ebffffb0 	bl	21003b74 <isalpha>
21003cb0:	e1a03000 	mov	r3, r0
21003cb4:	e3530000 	cmp	r3, #0
21003cb8:	1a000002 	bne	21003cc8 <get_key_value+0x8c>
21003cbc:	e55b3015 	ldrb	r3, [fp, #-21]
21003cc0:	e3530023 	cmp	r3, #35	; 0x23
21003cc4:	1a00000c 	bne	21003cfc <get_key_value+0xc0>
21003cc8:	e3e03023 	mvn	r3, #35	; 0x23
21003ccc:	e51b2010 	ldr	r2, [fp, #-16]
21003cd0:	e24b1004 	sub	r1, fp, #4
21003cd4:	e0812002 	add	r2, r1, r2
21003cd8:	e0823003 	add	r3, r2, r3
21003cdc:	e55b2015 	ldrb	r2, [fp, #-21]
21003ce0:	e5c32000 	strb	r2, [r3]
21003ce4:	e51b3010 	ldr	r3, [fp, #-16]
21003ce8:	e2833001 	add	r3, r3, #1
21003cec:	e50b3010 	str	r3, [fp, #-16]
21003cf0:	e3a03001 	mov	r3, #1
21003cf4:	e50b3008 	str	r3, [fp, #-8]
21003cf8:	ea000073 	b	21003ecc <get_key_value+0x290>
21003cfc:	e51b3008 	ldr	r3, [fp, #-8]
21003d00:	e3530001 	cmp	r3, #1
21003d04:	1a00000c 	bne	21003d3c <get_key_value+0x100>
21003d08:	e55b3015 	ldrb	r3, [fp, #-21]
21003d0c:	e3530020 	cmp	r3, #32
21003d10:	1a000009 	bne	21003d3c <get_key_value+0x100>
21003d14:	e3e03023 	mvn	r3, #35	; 0x23
21003d18:	e51b2010 	ldr	r2, [fp, #-16]
21003d1c:	e24b1004 	sub	r1, fp, #4
21003d20:	e0812002 	add	r2, r1, r2
21003d24:	e0823003 	add	r3, r2, r3
21003d28:	e3a02000 	mov	r2, #0
21003d2c:	e5c32000 	strb	r2, [r3]
21003d30:	e3a03002 	mov	r3, #2
21003d34:	e50b3008 	str	r3, [fp, #-8]
21003d38:	ea000063 	b	21003ecc <get_key_value+0x290>
21003d3c:	e51b3008 	ldr	r3, [fp, #-8]
21003d40:	e3530001 	cmp	r3, #1
21003d44:	0a000002 	beq	21003d54 <get_key_value+0x118>
21003d48:	e51b3008 	ldr	r3, [fp, #-8]
21003d4c:	e3530002 	cmp	r3, #2
21003d50:	1a00000c 	bne	21003d88 <get_key_value+0x14c>
21003d54:	e55b3015 	ldrb	r3, [fp, #-21]
21003d58:	e353003d 	cmp	r3, #61	; 0x3d
21003d5c:	1a000009 	bne	21003d88 <get_key_value+0x14c>
21003d60:	e3e03023 	mvn	r3, #35	; 0x23
21003d64:	e51b2010 	ldr	r2, [fp, #-16]
21003d68:	e24b1004 	sub	r1, fp, #4
21003d6c:	e0812002 	add	r2, r1, r2
21003d70:	e0823003 	add	r3, r2, r3
21003d74:	e3a02000 	mov	r2, #0
21003d78:	e5c32000 	strb	r2, [r3]
21003d7c:	e3a03003 	mov	r3, #3
21003d80:	e50b3008 	str	r3, [fp, #-8]
21003d84:	ea000050 	b	21003ecc <get_key_value+0x290>
21003d88:	e51b3008 	ldr	r3, [fp, #-8]
21003d8c:	e3530003 	cmp	r3, #3
21003d90:	1a000005 	bne	21003dac <get_key_value+0x170>
21003d94:	e55b3015 	ldrb	r3, [fp, #-21]
21003d98:	e3530020 	cmp	r3, #32
21003d9c:	1a000002 	bne	21003dac <get_key_value+0x170>
21003da0:	e3a03004 	mov	r3, #4
21003da4:	e50b3008 	str	r3, [fp, #-8]
21003da8:	ea000047 	b	21003ecc <get_key_value+0x290>
21003dac:	e51b3008 	ldr	r3, [fp, #-8]
21003db0:	e3530003 	cmp	r3, #3
21003db4:	0a000002 	beq	21003dc4 <get_key_value+0x188>
21003db8:	e51b3008 	ldr	r3, [fp, #-8]
21003dbc:	e3530004 	cmp	r3, #4
21003dc0:	1a000010 	bne	21003e08 <get_key_value+0x1cc>
21003dc4:	e55b3015 	ldrb	r3, [fp, #-21]
21003dc8:	e1a00003 	mov	r0, r3
21003dcc:	ebffff7f 	bl	21003bd0 <isname>
21003dd0:	e1a03000 	mov	r3, r0
21003dd4:	e3530000 	cmp	r3, #0
21003dd8:	0a00000a 	beq	21003e08 <get_key_value+0x1cc>
21003ddc:	e51b3014 	ldr	r3, [fp, #-20]
21003de0:	e51b2038 	ldr	r2, [fp, #-56]	; 0x38
21003de4:	e0823003 	add	r3, r2, r3
21003de8:	e55b2015 	ldrb	r2, [fp, #-21]
21003dec:	e5c32000 	strb	r2, [r3]
21003df0:	e51b3014 	ldr	r3, [fp, #-20]
21003df4:	e2833001 	add	r3, r3, #1
21003df8:	e50b3014 	str	r3, [fp, #-20]
21003dfc:	e3a03005 	mov	r3, #5
21003e00:	e50b3008 	str	r3, [fp, #-8]
21003e04:	ea000030 	b	21003ecc <get_key_value+0x290>
21003e08:	e51b3008 	ldr	r3, [fp, #-8]
21003e0c:	e3530005 	cmp	r3, #5
21003e10:	1a000013 	bne	21003e64 <get_key_value+0x228>
21003e14:	e55b3015 	ldrb	r3, [fp, #-21]
21003e18:	e1a00003 	mov	r0, r3
21003e1c:	ebffff6b 	bl	21003bd0 <isname>
21003e20:	e1a03000 	mov	r3, r0
21003e24:	e3530000 	cmp	r3, #0
21003e28:	1a000002 	bne	21003e38 <get_key_value+0x1fc>
21003e2c:	e55b3015 	ldrb	r3, [fp, #-21]
21003e30:	e3530020 	cmp	r3, #32
21003e34:	1a00000a 	bne	21003e64 <get_key_value+0x228>
21003e38:	e51b3014 	ldr	r3, [fp, #-20]
21003e3c:	e51b2038 	ldr	r2, [fp, #-56]	; 0x38
21003e40:	e0823003 	add	r3, r2, r3
21003e44:	e55b2015 	ldrb	r2, [fp, #-21]
21003e48:	e5c32000 	strb	r2, [r3]
21003e4c:	e51b3014 	ldr	r3, [fp, #-20]
21003e50:	e2833001 	add	r3, r3, #1
21003e54:	e50b3014 	str	r3, [fp, #-20]
21003e58:	e3a03005 	mov	r3, #5
21003e5c:	e50b3008 	str	r3, [fp, #-8]
21003e60:	ea000019 	b	21003ecc <get_key_value+0x290>
21003e64:	e51b3008 	ldr	r3, [fp, #-8]
21003e68:	e3530005 	cmp	r3, #5
21003e6c:	1a000016 	bne	21003ecc <get_key_value+0x290>
21003e70:	e55b3015 	ldrb	r3, [fp, #-21]
21003e74:	e353000a 	cmp	r3, #10
21003e78:	1a000013 	bne	21003ecc <get_key_value+0x290>
21003e7c:	e51b3014 	ldr	r3, [fp, #-20]
21003e80:	e51b2038 	ldr	r2, [fp, #-56]	; 0x38
21003e84:	e0823003 	add	r3, r2, r3
21003e88:	e3a02000 	mov	r2, #0
21003e8c:	e5c32000 	strb	r2, [r3]
21003e90:	e3a03000 	mov	r3, #0
21003e94:	e50b3008 	str	r3, [fp, #-8]
21003e98:	e3a03000 	mov	r3, #0
21003e9c:	e50b3010 	str	r3, [fp, #-16]
21003ea0:	e3a03000 	mov	r3, #0
21003ea4:	e50b3014 	str	r3, [fp, #-20]
21003ea8:	e24b3028 	sub	r3, fp, #40	; 0x28
21003eac:	e1a00003 	mov	r0, r3
21003eb0:	e51b1030 	ldr	r1, [fp, #-48]	; 0x30
21003eb4:	ebfffe57 	bl	21003818 <strcmp>
21003eb8:	e1a03000 	mov	r3, r0
21003ebc:	e3530000 	cmp	r3, #0
21003ec0:	1a000001 	bne	21003ecc <get_key_value+0x290>
21003ec4:	e51b3038 	ldr	r3, [fp, #-56]	; 0x38
21003ec8:	ea000009 	b	21003ef4 <get_key_value+0x2b8>
21003ecc:	e51b300c 	ldr	r3, [fp, #-12]
21003ed0:	e2833001 	add	r3, r3, #1
21003ed4:	e50b300c 	str	r3, [fp, #-12]
21003ed8:	e51b300c 	ldr	r3, [fp, #-12]
21003edc:	e51b2034 	ldr	r2, [fp, #-52]	; 0x34
21003ee0:	e0823003 	add	r3, r2, r3
21003ee4:	e5d33000 	ldrb	r3, [r3]
21003ee8:	e3530000 	cmp	r3, #0
21003eec:	1affff61 	bne	21003c78 <get_key_value+0x3c>
21003ef0:	e51b3038 	ldr	r3, [fp, #-56]	; 0x38
21003ef4:	e1a00003 	mov	r0, r3
21003ef8:	e24bd004 	sub	sp, fp, #4
21003efc:	e8bd8800 	pop	{fp, pc}

21003f00 <user_irq_handler>:
21003f00:	e92d4800 	push	{fp, lr}
21003f04:	e28db004 	add	fp, sp, #4
21003f08:	e24dd008 	sub	sp, sp, #8
21003f0c:	e59f00d0 	ldr	r0, [pc, #208]	; 21003fe4 <user_irq_handler+0xe4>
21003f10:	eb000c42 	bl	21007020 <puts>
21003f14:	e59f30cc 	ldr	r3, [pc, #204]	; 21003fe8 <user_irq_handler+0xe8>
21003f18:	e5933000 	ldr	r3, [r3]
21003f1c:	e59f00c8 	ldr	r0, [pc, #200]	; 21003fec <user_irq_handler+0xec>
21003f20:	e1a01003 	mov	r1, r3
21003f24:	eb000174 	bl	210044fc <printf>
21003f28:	e59f30c0 	ldr	r3, [pc, #192]	; 21003ff0 <user_irq_handler+0xf0>
21003f2c:	e59f00c0 	ldr	r0, [pc, #192]	; 21003ff4 <user_irq_handler+0xf4>
21003f30:	e1a01003 	mov	r1, r3
21003f34:	eb000170 	bl	210044fc <printf>
21003f38:	e59f30b8 	ldr	r3, [pc, #184]	; 21003ff8 <user_irq_handler+0xf8>
21003f3c:	e5933000 	ldr	r3, [r3]
21003f40:	e59f00b4 	ldr	r0, [pc, #180]	; 21003ffc <user_irq_handler+0xfc>
21003f44:	e1a01003 	mov	r1, r3
21003f48:	eb00016b 	bl	210044fc <printf>
21003f4c:	e59f30a4 	ldr	r3, [pc, #164]	; 21003ff8 <user_irq_handler+0xf8>
21003f50:	e5932000 	ldr	r2, [r3]
21003f54:	e59f3094 	ldr	r3, [pc, #148]	; 21003ff0 <user_irq_handler+0xf0>
21003f58:	e7933102 	ldr	r3, [r3, r2, lsl #2]
21003f5c:	e59f009c 	ldr	r0, [pc, #156]	; 21004000 <user_irq_handler+0x100>
21003f60:	e1a01003 	mov	r1, r3
21003f64:	eb000164 	bl	210044fc <printf>
21003f68:	e59f3088 	ldr	r3, [pc, #136]	; 21003ff8 <user_irq_handler+0xf8>
21003f6c:	e5933000 	ldr	r3, [r3]
21003f70:	e2833e43 	add	r3, r3, #1072	; 0x430
21003f74:	e1a03983 	lsl	r3, r3, #19
21003f78:	e50b3008 	str	r3, [fp, #-8]
21003f7c:	e59f3074 	ldr	r3, [pc, #116]	; 21003ff8 <user_irq_handler+0xf8>
21003f80:	e5933000 	ldr	r3, [r3]
21003f84:	e59f0078 	ldr	r0, [pc, #120]	; 21004004 <user_irq_handler+0x104>
21003f88:	e1a01003 	mov	r1, r3
21003f8c:	eb00015a 	bl	210044fc <printf>
21003f90:	e51b3008 	ldr	r3, [fp, #-8]
21003f94:	e1a00003 	mov	r0, r3
21003f98:	ebfffd6a 	bl	21003548 <lcd_draw_bmp>
21003f9c:	e59f0064 	ldr	r0, [pc, #100]	; 21004008 <user_irq_handler+0x108>
21003fa0:	eb000c1e 	bl	21007020 <puts>
21003fa4:	e59f304c 	ldr	r3, [pc, #76]	; 21003ff8 <user_irq_handler+0xf8>
21003fa8:	e5933000 	ldr	r3, [r3]
21003fac:	e2832001 	add	r2, r3, #1
21003fb0:	e59f3040 	ldr	r3, [pc, #64]	; 21003ff8 <user_irq_handler+0xf8>
21003fb4:	e5832000 	str	r2, [r3]
21003fb8:	e59f3038 	ldr	r3, [pc, #56]	; 21003ff8 <user_irq_handler+0xf8>
21003fbc:	e5932000 	ldr	r2, [r3]
21003fc0:	e59f3020 	ldr	r3, [pc, #32]	; 21003fe8 <user_irq_handler+0xe8>
21003fc4:	e5933000 	ldr	r3, [r3]
21003fc8:	e1520003 	cmp	r2, r3
21003fcc:	1a000002 	bne	21003fdc <user_irq_handler+0xdc>
21003fd0:	e59f3020 	ldr	r3, [pc, #32]	; 21003ff8 <user_irq_handler+0xf8>
21003fd4:	e3a02000 	mov	r2, #0
21003fd8:	e5832000 	str	r2, [r3]
21003fdc:	e24bd004 	sub	sp, fp, #4
21003fe0:	e8bd8800 	pop	{fp, pc}
21003fe4:	21007a34 	.word	0x21007a34
21003fe8:	2100800c 	.word	0x2100800c
21003fec:	21007a48 	.word	0x21007a48
21003ff0:	21038018 	.word	0x21038018
21003ff4:	21007a58 	.word	0x21007a58
21003ff8:	21008010 	.word	0x21008010
21003ffc:	21007a68 	.word	0x21007a68
21004000:	21007a78 	.word	0x21007a78
21004004:	21007a8c 	.word	0x21007a8c
21004008:	21007aa0 	.word	0x21007aa0

2100400c <mymain>:
2100400c:	e92d4800 	push	{fp, lr}
21004010:	e28db004 	add	fp, sp, #4
21004014:	e24dd010 	sub	sp, sp, #16
21004018:	e3a03000 	mov	r3, #0
2100401c:	e50b3010 	str	r3, [fp, #-16]
21004020:	e3a03000 	mov	r3, #0
21004024:	e50b300c 	str	r3, [fp, #-12]
21004028:	e59f01d8 	ldr	r0, [pc, #472]	; 21004208 <mymain+0x1fc>
2100402c:	eb000bfb 	bl	21007020 <puts>
21004030:	eb000400 	bl	21005038 <SDHC_Init>
21004034:	ebfffc1f 	bl	210030b8 <fat_init>
21004038:	e59f01cc 	ldr	r0, [pc, #460]	; 2100420c <mymain+0x200>
2100403c:	eb000bf7 	bl	21007020 <puts>
21004040:	ebfffc3b 	bl	21003134 <lcd_init>
21004044:	e3a008ff 	mov	r0, #16711680	; 0xff0000
21004048:	ebfffcb6 	bl	21003328 <lcd_clear_screen>
2100404c:	e59f01bc 	ldr	r0, [pc, #444]	; 21004210 <mymain+0x204>
21004050:	eb000bf2 	bl	21007020 <puts>
21004054:	ebffeff4 	bl	2100002c <IIS_init>
21004058:	e59f01b4 	ldr	r0, [pc, #436]	; 21004214 <mymain+0x208>
2100405c:	eb000bef 	bl	21007020 <puts>
21004060:	ebfff072 	bl	21000230 <IIC_init>
21004064:	e59f01ac 	ldr	r0, [pc, #428]	; 21004218 <mymain+0x20c>
21004068:	eb000bec 	bl	21007020 <puts>
2100406c:	ebfff088 	bl	21000294 <WM8960_init>
21004070:	e59f01a4 	ldr	r0, [pc, #420]	; 2100421c <mymain+0x210>
21004074:	eb000be9 	bl	21007020 <puts>
21004078:	e59f01a0 	ldr	r0, [pc, #416]	; 21004220 <mymain+0x214>
2100407c:	e59f11a0 	ldr	r1, [pc, #416]	; 21004224 <mymain+0x218>
21004080:	e3a02b01 	mov	r2, #1024	; 0x400
21004084:	ebfffbdf 	bl	21003008 <file_fat_read>
21004088:	e50b0010 	str	r0, [fp, #-16]
2100408c:	e59f2190 	ldr	r2, [pc, #400]	; 21004224 <mymain+0x218>
21004090:	e51b3010 	ldr	r3, [fp, #-16]
21004094:	e0823003 	add	r3, r2, r3
21004098:	e3a02000 	mov	r2, #0
2100409c:	e5c32000 	strb	r2, [r3]
210040a0:	e59f0180 	ldr	r0, [pc, #384]	; 21004228 <mymain+0x21c>
210040a4:	eb000bdd 	bl	21007020 <puts>
210040a8:	e59f017c 	ldr	r0, [pc, #380]	; 2100422c <mymain+0x220>
210040ac:	eb000bdb 	bl	21007020 <puts>
210040b0:	e59f016c 	ldr	r0, [pc, #364]	; 21004224 <mymain+0x218>
210040b4:	eb000bd9 	bl	21007020 <puts>
210040b8:	e59f016c 	ldr	r0, [pc, #364]	; 2100422c <mymain+0x220>
210040bc:	eb000bd7 	bl	21007020 <puts>
210040c0:	e59f0168 	ldr	r0, [pc, #360]	; 21004230 <mymain+0x224>
210040c4:	e51b1010 	ldr	r1, [fp, #-16]
210040c8:	eb00010b 	bl	210044fc <printf>
210040cc:	e59f0160 	ldr	r0, [pc, #352]	; 21004234 <mymain+0x228>
210040d0:	e59f114c 	ldr	r1, [pc, #332]	; 21004224 <mymain+0x218>
210040d4:	e59f215c 	ldr	r2, [pc, #348]	; 21004238 <mymain+0x22c>
210040d8:	ebfffed7 	bl	21003c3c <get_key_value>
210040dc:	e59f0158 	ldr	r0, [pc, #344]	; 2100423c <mymain+0x230>
210040e0:	e59f1150 	ldr	r1, [pc, #336]	; 21004238 <mymain+0x22c>
210040e4:	eb000104 	bl	210044fc <printf>
210040e8:	e59f0148 	ldr	r0, [pc, #328]	; 21004238 <mymain+0x22c>
210040ec:	e59f114c 	ldr	r1, [pc, #332]	; 21004240 <mymain+0x234>
210040f0:	eb000b74 	bl	21006ec8 <shell_parse>
210040f4:	e1a02000 	mov	r2, r0
210040f8:	e59f3144 	ldr	r3, [pc, #324]	; 21004244 <mymain+0x238>
210040fc:	e5832000 	str	r2, [r3]
21004100:	e3a03586 	mov	r3, #562036736	; 0x21800000
21004104:	e50b3008 	str	r3, [fp, #-8]
21004108:	e3a03000 	mov	r3, #0
2100410c:	e50b300c 	str	r3, [fp, #-12]
21004110:	ea000014 	b	21004168 <mymain+0x15c>
21004114:	e59f3124 	ldr	r3, [pc, #292]	; 21004240 <mymain+0x234>
21004118:	e51b200c 	ldr	r2, [fp, #-12]
2100411c:	e7933102 	ldr	r3, [r3, r2, lsl #2]
21004120:	e59f0120 	ldr	r0, [pc, #288]	; 21004248 <mymain+0x23c>
21004124:	e51b100c 	ldr	r1, [fp, #-12]
21004128:	e1a02003 	mov	r2, r3
2100412c:	eb0000f2 	bl	210044fc <printf>
21004130:	e59f3108 	ldr	r3, [pc, #264]	; 21004240 <mymain+0x234>
21004134:	e51b200c 	ldr	r2, [fp, #-12]
21004138:	e7933102 	ldr	r3, [r3, r2, lsl #2]
2100413c:	e1a00003 	mov	r0, r3
21004140:	e51b1008 	ldr	r1, [fp, #-8]
21004144:	e3a02601 	mov	r2, #1048576	; 0x100000
21004148:	ebfffbae 	bl	21003008 <file_fat_read>
2100414c:	e50b0010 	str	r0, [fp, #-16]
21004150:	e51b3008 	ldr	r3, [fp, #-8]
21004154:	e2833702 	add	r3, r3, #524288	; 0x80000
21004158:	e50b3008 	str	r3, [fp, #-8]
2100415c:	e51b300c 	ldr	r3, [fp, #-12]
21004160:	e2833001 	add	r3, r3, #1
21004164:	e50b300c 	str	r3, [fp, #-12]
21004168:	e59f30d4 	ldr	r3, [pc, #212]	; 21004244 <mymain+0x238>
2100416c:	e5933000 	ldr	r3, [r3]
21004170:	e51b200c 	ldr	r2, [fp, #-12]
21004174:	e1520003 	cmp	r2, r3
21004178:	baffffe5 	blt	21004114 <mymain+0x108>
2100417c:	e3a03423 	mov	r3, #587202560	; 0x23000000
21004180:	e50b3008 	str	r3, [fp, #-8]
21004184:	e59f00c0 	ldr	r0, [pc, #192]	; 2100424c <mymain+0x240>
21004188:	e59f1094 	ldr	r1, [pc, #148]	; 21004224 <mymain+0x218>
2100418c:	e59f20bc 	ldr	r2, [pc, #188]	; 21004250 <mymain+0x244>
21004190:	ebfffea9 	bl	21003c3c <get_key_value>
21004194:	e59f00b8 	ldr	r0, [pc, #184]	; 21004254 <mymain+0x248>
21004198:	e59f10b0 	ldr	r1, [pc, #176]	; 21004250 <mymain+0x244>
2100419c:	eb0000d6 	bl	210044fc <printf>
210041a0:	e59f00a8 	ldr	r0, [pc, #168]	; 21004250 <mymain+0x244>
210041a4:	e51b1008 	ldr	r1, [fp, #-8]
210041a8:	e3a02519 	mov	r2, #104857600	; 0x6400000
210041ac:	ebfffb95 	bl	21003008 <file_fat_read>
210041b0:	e50b0010 	str	r0, [fp, #-16]
210041b4:	e59f009c 	ldr	r0, [pc, #156]	; 21004258 <mymain+0x24c>
210041b8:	e59f1090 	ldr	r1, [pc, #144]	; 21004250 <mymain+0x244>
210041bc:	e51b2010 	ldr	r2, [fp, #-16]
210041c0:	eb0000cd 	bl	210044fc <printf>
210041c4:	e59f3090 	ldr	r3, [pc, #144]	; 2100425c <mymain+0x250>
210041c8:	e3a02000 	mov	r2, #0
210041cc:	e5832000 	str	r2, [r3]
210041d0:	eb000bb6 	bl	210070b0 <timer_init>
210041d4:	e59f0084 	ldr	r0, [pc, #132]	; 21004260 <mymain+0x254>
210041d8:	eb000b90 	bl	21007020 <puts>
210041dc:	e59f0080 	ldr	r0, [pc, #128]	; 21004264 <mymain+0x258>
210041e0:	eb0000c5 	bl	210044fc <printf>
210041e4:	e51b3008 	ldr	r3, [fp, #-8]
210041e8:	e1a00003 	mov	r0, r3
210041ec:	e51b1010 	ldr	r1, [fp, #-16]
210041f0:	ebfff05f 	bl	21000374 <audio_play_wav>
210041f4:	e59f006c 	ldr	r0, [pc, #108]	; 21004268 <mymain+0x25c>
210041f8:	eb000b88 	bl	21007020 <puts>
210041fc:	e59f0068 	ldr	r0, [pc, #104]	; 2100426c <mymain+0x260>
21004200:	ebfffd1a 	bl	21003670 <ndelay>
21004204:	eafffff4 	b	210041dc <mymain+0x1d0>
21004208:	21007aa8 	.word	0x21007aa8
2100420c:	21007ab4 	.word	0x21007ab4
21004210:	21007ac8 	.word	0x21007ac8
21004214:	21007ad4 	.word	0x21007ad4
21004218:	21007ae4 	.word	0x21007ae4
2100421c:	21007af0 	.word	0x21007af0
21004220:	21007b00 	.word	0x21007b00
21004224:	210382d8 	.word	0x210382d8
21004228:	21007b0c 	.word	0x21007b0c
2100422c:	21007b18 	.word	0x21007b18
21004230:	21007b1c 	.word	0x21007b1c
21004234:	21007b38 	.word	0x21007b38
21004238:	21038098 	.word	0x21038098
2100423c:	21007b3c 	.word	0x21007b3c
21004240:	21038018 	.word	0x21038018
21004244:	2100800c 	.word	0x2100800c
21004248:	21007b48 	.word	0x21007b48
2100424c:	21007b58 	.word	0x21007b58
21004250:	21038298 	.word	0x21038298
21004254:	21007b5c 	.word	0x21007b5c
21004258:	21007b68 	.word	0x21007b68
2100425c:	21008010 	.word	0x21008010
21004260:	21007b78 	.word	0x21007b78
21004264:	21007b88 	.word	0x21007b88
21004268:	21007b98 	.word	0x21007b98
2100426c:	000186a0 	.word	0x000186a0

21004270 <putchar_hex>:
21004270:	e92d4800 	push	{fp, lr}
21004274:	e28db004 	add	fp, sp, #4
21004278:	e24dd010 	sub	sp, sp, #16
2100427c:	e1a03000 	mov	r3, r0
21004280:	e54b300d 	strb	r3, [fp, #-13]
21004284:	e59f3044 	ldr	r3, [pc, #68]	; 210042d0 <putchar_hex+0x60>
21004288:	e50b3008 	str	r3, [fp, #-8]
2100428c:	e55b300d 	ldrb	r3, [fp, #-13]
21004290:	e1a03223 	lsr	r3, r3, #4
21004294:	e6ef3073 	uxtb	r3, r3
21004298:	e51b2008 	ldr	r2, [fp, #-8]
2100429c:	e0823003 	add	r3, r2, r3
210042a0:	e5d33000 	ldrb	r3, [r3]
210042a4:	e1a00003 	mov	r0, r3
210042a8:	eb000b3a 	bl	21006f98 <putchar>
210042ac:	e55b300d 	ldrb	r3, [fp, #-13]
210042b0:	e203300f 	and	r3, r3, #15
210042b4:	e51b2008 	ldr	r2, [fp, #-8]
210042b8:	e0823003 	add	r3, r2, r3
210042bc:	e5d33000 	ldrb	r3, [r3]
210042c0:	e1a00003 	mov	r0, r3
210042c4:	eb000b33 	bl	21006f98 <putchar>
210042c8:	e24bd004 	sub	sp, fp, #4
210042cc:	e8bd8800 	pop	{fp, pc}
210042d0:	21007ba4 	.word	0x21007ba4

210042d4 <putint_hex>:
210042d4:	e92d4800 	push	{fp, lr}
210042d8:	e28db004 	add	fp, sp, #4
210042dc:	e24dd008 	sub	sp, sp, #8
210042e0:	e50b0008 	str	r0, [fp, #-8]
210042e4:	e51b3008 	ldr	r3, [fp, #-8]
210042e8:	e1a03c23 	lsr	r3, r3, #24
210042ec:	e6ef3073 	uxtb	r3, r3
210042f0:	e1a00003 	mov	r0, r3
210042f4:	ebffffdd 	bl	21004270 <putchar_hex>
210042f8:	e51b3008 	ldr	r3, [fp, #-8]
210042fc:	e1a03843 	asr	r3, r3, #16
21004300:	e6ef3073 	uxtb	r3, r3
21004304:	e1a00003 	mov	r0, r3
21004308:	ebffffd8 	bl	21004270 <putchar_hex>
2100430c:	e51b3008 	ldr	r3, [fp, #-8]
21004310:	e1a03443 	asr	r3, r3, #8
21004314:	e6ef3073 	uxtb	r3, r3
21004318:	e1a00003 	mov	r0, r3
2100431c:	ebffffd3 	bl	21004270 <putchar_hex>
21004320:	e51b3008 	ldr	r3, [fp, #-8]
21004324:	e6ef3073 	uxtb	r3, r3
21004328:	e1a00003 	mov	r0, r3
2100432c:	ebffffcf 	bl	21004270 <putchar_hex>
21004330:	e24bd004 	sub	sp, fp, #4
21004334:	e8bd8800 	pop	{fp, pc}

21004338 <itoa>:
21004338:	e52db004 	push	{fp}		; (str fp, [sp, #-4]!)
2100433c:	e28db000 	add	fp, sp, #0
21004340:	e24dd01c 	sub	sp, sp, #28
21004344:	e50b0018 	str	r0, [fp, #-24]
21004348:	e50b101c 	str	r1, [fp, #-28]
2100434c:	e51b3018 	ldr	r3, [fp, #-24]
21004350:	e50b3008 	str	r3, [fp, #-8]
21004354:	e3a03000 	mov	r3, #0
21004358:	e50b300c 	str	r3, [fp, #-12]
2100435c:	e3a03000 	mov	r3, #0
21004360:	e50b3010 	str	r3, [fp, #-16]
21004364:	e51b300c 	ldr	r3, [fp, #-12]
21004368:	e51b201c 	ldr	r2, [fp, #-28]
2100436c:	e0820003 	add	r0, r2, r3
21004370:	e51b1008 	ldr	r1, [fp, #-8]
21004374:	e59f312c 	ldr	r3, [pc, #300]	; 210044a8 <itoa+0x170>
21004378:	e0c32193 	smull	r2, r3, r3, r1
2100437c:	e1a02143 	asr	r2, r3, #2
21004380:	e1a03fc1 	asr	r3, r1, #31
21004384:	e0632002 	rsb	r2, r3, r2
21004388:	e1a03002 	mov	r3, r2
2100438c:	e1a03103 	lsl	r3, r3, #2
21004390:	e0833002 	add	r3, r3, r2
21004394:	e1a03083 	lsl	r3, r3, #1
21004398:	e0632001 	rsb	r2, r3, r1
2100439c:	e6ef3072 	uxtb	r3, r2
210043a0:	e2833030 	add	r3, r3, #48	; 0x30
210043a4:	e6ef3073 	uxtb	r3, r3
210043a8:	e5c03000 	strb	r3, [r0]
210043ac:	e51b300c 	ldr	r3, [fp, #-12]
210043b0:	e2833001 	add	r3, r3, #1
210043b4:	e50b300c 	str	r3, [fp, #-12]
210043b8:	e51b3008 	ldr	r3, [fp, #-8]
210043bc:	e59f20e4 	ldr	r2, [pc, #228]	; 210044a8 <itoa+0x170>
210043c0:	e0c21392 	smull	r1, r2, r2, r3
210043c4:	e1a02142 	asr	r2, r2, #2
210043c8:	e1a03fc3 	asr	r3, r3, #31
210043cc:	e0633002 	rsb	r3, r3, r2
210043d0:	e50b3008 	str	r3, [fp, #-8]
210043d4:	e51b3008 	ldr	r3, [fp, #-8]
210043d8:	e3530000 	cmp	r3, #0
210043dc:	1affffe0 	bne	21004364 <itoa+0x2c>
210043e0:	e51b300c 	ldr	r3, [fp, #-12]
210043e4:	e51b201c 	ldr	r2, [fp, #-28]
210043e8:	e0823003 	add	r3, r2, r3
210043ec:	e3a02000 	mov	r2, #0
210043f0:	e5c32000 	strb	r2, [r3]
210043f4:	e51b300c 	ldr	r3, [fp, #-12]
210043f8:	e50b3010 	str	r3, [fp, #-16]
210043fc:	e3a03000 	mov	r3, #0
21004400:	e50b300c 	str	r3, [fp, #-12]
21004404:	ea00001a 	b	21004474 <itoa+0x13c>
21004408:	e51b300c 	ldr	r3, [fp, #-12]
2100440c:	e51b201c 	ldr	r2, [fp, #-28]
21004410:	e0823003 	add	r3, r2, r3
21004414:	e5d33000 	ldrb	r3, [r3]
21004418:	e54b3011 	strb	r3, [fp, #-17]
2100441c:	e51b300c 	ldr	r3, [fp, #-12]
21004420:	e51b201c 	ldr	r2, [fp, #-28]
21004424:	e0823003 	add	r3, r2, r3
21004428:	e51b1010 	ldr	r1, [fp, #-16]
2100442c:	e51b200c 	ldr	r2, [fp, #-12]
21004430:	e0622001 	rsb	r2, r2, r1
21004434:	e2422001 	sub	r2, r2, #1
21004438:	e51b101c 	ldr	r1, [fp, #-28]
2100443c:	e0812002 	add	r2, r1, r2
21004440:	e5d22000 	ldrb	r2, [r2]
21004444:	e5c32000 	strb	r2, [r3]
21004448:	e51b2010 	ldr	r2, [fp, #-16]
2100444c:	e51b300c 	ldr	r3, [fp, #-12]
21004450:	e0633002 	rsb	r3, r3, r2
21004454:	e2433001 	sub	r3, r3, #1
21004458:	e51b201c 	ldr	r2, [fp, #-28]
2100445c:	e0823003 	add	r3, r2, r3
21004460:	e55b2011 	ldrb	r2, [fp, #-17]
21004464:	e5c32000 	strb	r2, [r3]
21004468:	e51b300c 	ldr	r3, [fp, #-12]
2100446c:	e2833001 	add	r3, r3, #1
21004470:	e50b300c 	str	r3, [fp, #-12]
21004474:	e51b3010 	ldr	r3, [fp, #-16]
21004478:	e1a02fa3 	lsr	r2, r3, #31
2100447c:	e0823003 	add	r3, r2, r3
21004480:	e1a030c3 	asr	r3, r3, #1
21004484:	e1a02003 	mov	r2, r3
21004488:	e51b300c 	ldr	r3, [fp, #-12]
2100448c:	e1520003 	cmp	r2, r3
21004490:	caffffdc 	bgt	21004408 <itoa+0xd0>
21004494:	e51b301c 	ldr	r3, [fp, #-28]
21004498:	e1a00003 	mov	r0, r3
2100449c:	e28bd000 	add	sp, fp, #0
210044a0:	e8bd0800 	pop	{fp}
210044a4:	e12fff1e 	bx	lr
210044a8:	66666667 	.word	0x66666667

210044ac <_puts>:
210044ac:	e92d4800 	push	{fp, lr}
210044b0:	e28db004 	add	fp, sp, #4
210044b4:	e24dd008 	sub	sp, sp, #8
210044b8:	e50b0008 	str	r0, [fp, #-8]
210044bc:	ea000006 	b	210044dc <_puts+0x30>
210044c0:	e51b3008 	ldr	r3, [fp, #-8]
210044c4:	e5d33000 	ldrb	r3, [r3]
210044c8:	e51b2008 	ldr	r2, [fp, #-8]
210044cc:	e2822001 	add	r2, r2, #1
210044d0:	e50b2008 	str	r2, [fp, #-8]
210044d4:	e1a00003 	mov	r0, r3
210044d8:	eb000aae 	bl	21006f98 <putchar>
210044dc:	e51b3008 	ldr	r3, [fp, #-8]
210044e0:	e5d33000 	ldrb	r3, [r3]
210044e4:	e3530000 	cmp	r3, #0
210044e8:	1afffff4 	bne	210044c0 <_puts+0x14>
210044ec:	e3a03000 	mov	r3, #0
210044f0:	e1a00003 	mov	r0, r3
210044f4:	e24bd004 	sub	sp, fp, #4
210044f8:	e8bd8800 	pop	{fp, pc}

210044fc <printf>:
210044fc:	e92d000f 	push	{r0, r1, r2, r3}
21004500:	e92d4800 	push	{fp, lr}
21004504:	e28db004 	add	fp, sp, #4
21004508:	e24dd078 	sub	sp, sp, #120	; 0x78
2100450c:	e28b3004 	add	r3, fp, #4
21004510:	e2833004 	add	r3, r3, #4
21004514:	e50b3008 	str	r3, [fp, #-8]
21004518:	ea000065 	b	210046b4 <printf+0x1b8>
2100451c:	e55b3009 	ldrb	r3, [fp, #-9]
21004520:	e3530025 	cmp	r3, #37	; 0x25
21004524:	1a00005e 	bne	210046a4 <printf+0x1a8>
21004528:	e59b3004 	ldr	r3, [fp, #4]
2100452c:	e5d32000 	ldrb	r2, [r3]
21004530:	e54b2009 	strb	r2, [fp, #-9]
21004534:	e2833001 	add	r3, r3, #1
21004538:	e58b3004 	str	r3, [fp, #4]
2100453c:	e55b3009 	ldrb	r3, [fp, #-9]
21004540:	e2433063 	sub	r3, r3, #99	; 0x63
21004544:	e3530015 	cmp	r3, #21
21004548:	979ff103 	ldrls	pc, [pc, r3, lsl #2]
2100454c:	ea000052 	b	2100469c <printf+0x1a0>
21004550:	210045a8 	.word	0x210045a8
21004554:	21004618 	.word	0x21004618
21004558:	2100469c 	.word	0x2100469c
2100455c:	2100469c 	.word	0x2100469c
21004560:	2100469c 	.word	0x2100469c
21004564:	2100469c 	.word	0x2100469c
21004568:	2100469c 	.word	0x2100469c
2100456c:	2100469c 	.word	0x2100469c
21004570:	2100469c 	.word	0x2100469c
21004574:	21004650 	.word	0x21004650
21004578:	2100469c 	.word	0x2100469c
2100457c:	2100469c 	.word	0x2100469c
21004580:	2100469c 	.word	0x2100469c
21004584:	2100469c 	.word	0x2100469c
21004588:	2100469c 	.word	0x2100469c
2100458c:	2100469c 	.word	0x2100469c
21004590:	210045d0 	.word	0x210045d0
21004594:	2100469c 	.word	0x2100469c
21004598:	2100469c 	.word	0x2100469c
2100459c:	2100469c 	.word	0x2100469c
210045a0:	2100469c 	.word	0x2100469c
210045a4:	210045f4 	.word	0x210045f4
210045a8:	e51b3008 	ldr	r3, [fp, #-8]
210045ac:	e5933000 	ldr	r3, [r3]
210045b0:	e54b300a 	strb	r3, [fp, #-10]
210045b4:	e51b3008 	ldr	r3, [fp, #-8]
210045b8:	e2833004 	add	r3, r3, #4
210045bc:	e50b3008 	str	r3, [fp, #-8]
210045c0:	e55b300a 	ldrb	r3, [fp, #-10]
210045c4:	e1a00003 	mov	r0, r3
210045c8:	eb000a72 	bl	21006f98 <putchar>
210045cc:	ea000033 	b	210046a0 <printf+0x1a4>
210045d0:	e51b3008 	ldr	r3, [fp, #-8]
210045d4:	e5933000 	ldr	r3, [r3]
210045d8:	e50b3010 	str	r3, [fp, #-16]
210045dc:	e51b3008 	ldr	r3, [fp, #-8]
210045e0:	e2833004 	add	r3, r3, #4
210045e4:	e50b3008 	str	r3, [fp, #-8]
210045e8:	e51b0010 	ldr	r0, [fp, #-16]
210045ec:	ebffffae 	bl	210044ac <_puts>
210045f0:	ea00002a 	b	210046a0 <printf+0x1a4>
210045f4:	e51b3008 	ldr	r3, [fp, #-8]
210045f8:	e5933000 	ldr	r3, [r3]
210045fc:	e50b3014 	str	r3, [fp, #-20]
21004600:	e51b3008 	ldr	r3, [fp, #-8]
21004604:	e2833004 	add	r3, r3, #4
21004608:	e50b3008 	str	r3, [fp, #-8]
2100460c:	e51b0014 	ldr	r0, [fp, #-20]
21004610:	ebffff2f 	bl	210042d4 <putint_hex>
21004614:	ea000021 	b	210046a0 <printf+0x1a4>
21004618:	e51b3008 	ldr	r3, [fp, #-8]
2100461c:	e5933000 	ldr	r3, [r3]
21004620:	e50b3014 	str	r3, [fp, #-20]
21004624:	e51b3008 	ldr	r3, [fp, #-8]
21004628:	e2833004 	add	r3, r3, #4
2100462c:	e50b3008 	str	r3, [fp, #-8]
21004630:	e24b3078 	sub	r3, fp, #120	; 0x78
21004634:	e51b0014 	ldr	r0, [fp, #-20]
21004638:	e1a01003 	mov	r1, r3
2100463c:	ebffff3d 	bl	21004338 <itoa>
21004640:	e24b3078 	sub	r3, fp, #120	; 0x78
21004644:	e1a00003 	mov	r0, r3
21004648:	ebffff97 	bl	210044ac <_puts>
2100464c:	ea000013 	b	210046a0 <printf+0x1a4>
21004650:	e59b3004 	ldr	r3, [fp, #4]
21004654:	e5d32000 	ldrb	r2, [r3]
21004658:	e54b2009 	strb	r2, [fp, #-9]
2100465c:	e2833001 	add	r3, r3, #1
21004660:	e58b3004 	str	r3, [fp, #4]
21004664:	e51b3008 	ldr	r3, [fp, #-8]
21004668:	e5933000 	ldr	r3, [r3]
2100466c:	e50b3014 	str	r3, [fp, #-20]
21004670:	e51b3008 	ldr	r3, [fp, #-8]
21004674:	e2833004 	add	r3, r3, #4
21004678:	e50b3008 	str	r3, [fp, #-8]
2100467c:	e24b3078 	sub	r3, fp, #120	; 0x78
21004680:	e51b0014 	ldr	r0, [fp, #-20]
21004684:	e1a01003 	mov	r1, r3
21004688:	ebffff2a 	bl	21004338 <itoa>
2100468c:	e24b3078 	sub	r3, fp, #120	; 0x78
21004690:	e1a00003 	mov	r0, r3
21004694:	ebffff84 	bl	210044ac <_puts>
21004698:	ea000000 	b	210046a0 <printf+0x1a4>
2100469c:	e1a00000 	nop			; (mov r0, r0)
210046a0:	ea000003 	b	210046b4 <printf+0x1b8>
210046a4:	e55b3009 	ldrb	r3, [fp, #-9]
210046a8:	e1a00003 	mov	r0, r3
210046ac:	eb000a39 	bl	21006f98 <putchar>
210046b0:	e1a00000 	nop			; (mov r0, r0)
210046b4:	e59b3004 	ldr	r3, [fp, #4]
210046b8:	e5d32000 	ldrb	r2, [r3]
210046bc:	e54b2009 	strb	r2, [fp, #-9]
210046c0:	e55b2009 	ldrb	r2, [fp, #-9]
210046c4:	e3520000 	cmp	r2, #0
210046c8:	03a02000 	moveq	r2, #0
210046cc:	13a02001 	movne	r2, #1
210046d0:	e6ef2072 	uxtb	r2, r2
210046d4:	e2833001 	add	r3, r3, #1
210046d8:	e58b3004 	str	r3, [fp, #4]
210046dc:	e3520000 	cmp	r2, #0
210046e0:	1affff8d 	bne	2100451c <printf+0x20>
210046e4:	e3a03000 	mov	r3, #0
210046e8:	e1a00003 	mov	r0, r3
210046ec:	e24bd004 	sub	sp, fp, #4
210046f0:	e8bd4800 	pop	{fp, lr}
210046f4:	e28dd010 	add	sp, sp, #16
210046f8:	e12fff1e 	bx	lr

210046fc <debug>:
210046fc:	e92d000f 	push	{r0, r1, r2, r3}
21004700:	e52db004 	push	{fp}		; (str fp, [sp, #-4]!)
21004704:	e28db000 	add	fp, sp, #0
21004708:	e3a03000 	mov	r3, #0
2100470c:	e1a00003 	mov	r0, r3
21004710:	e28bd000 	add	sp, fp, #0
21004714:	e8bd0800 	pop	{fp}
21004718:	e28dd010 	add	sp, sp, #16
2100471c:	e12fff1e 	bx	lr

21004720 <SDHC_ISR0>:
21004720:	e92d4800 	push	{fp, lr}
21004724:	e28db004 	add	fp, sp, #4
21004728:	e59f300c 	ldr	r3, [pc, #12]	; 2100473c <SDHC_ISR0+0x1c>
2100472c:	e5933000 	ldr	r3, [r3]
21004730:	e1a00003 	mov	r0, r3
21004734:	eb0000e2 	bl	21004ac4 <SDHC_InterruptHandler>
21004738:	e8bd8800 	pop	{fp, pc}
2100473c:	2103871c 	.word	0x2103871c

21004740 <SDHC_SetDriveStrength>:
21004740:	e52db004 	push	{fp}		; (str fp, [sp, #-4]!)
21004744:	e28db000 	add	fp, sp, #0
21004748:	e24dd00c 	sub	sp, sp, #12
2100474c:	e50b0008 	str	r0, [fp, #-8]
21004750:	e1a03001 	mov	r3, r1
21004754:	e54b3009 	strb	r3, [fp, #-9]
21004758:	e55b3009 	ldrb	r3, [fp, #-9]
2100475c:	e3530003 	cmp	r3, #3
21004760:	9a000001 	bls	2100476c <SDHC_SetDriveStrength+0x2c>
21004764:	e3a03003 	mov	r3, #3
21004768:	e54b3009 	strb	r3, [fp, #-9]
2100476c:	e51b3008 	ldr	r3, [fp, #-8]
21004770:	e5933010 	ldr	r3, [r3, #16]
21004774:	e3530000 	cmp	r3, #0
21004778:	0a000003 	beq	2100478c <SDHC_SetDriveStrength+0x4c>
2100477c:	e51b3008 	ldr	r3, [fp, #-8]
21004780:	e5933010 	ldr	r3, [r3, #16]
21004784:	e3530001 	cmp	r3, #1
21004788:	1a00000c 	bne	210047c0 <SDHC_SetDriveStrength+0x80>
2100478c:	e59f3038 	ldr	r3, [pc, #56]	; 210047cc <SDHC_SetDriveStrength+0x8c>
21004790:	e59f2034 	ldr	r2, [pc, #52]	; 210047cc <SDHC_SetDriveStrength+0x8c>
21004794:	e5922000 	ldr	r2, [r2]
21004798:	e3c21303 	bic	r1, r2, #201326592	; 0xc000000
2100479c:	e55b2009 	ldrb	r2, [fp, #-9]
210047a0:	e1a02d02 	lsl	r2, r2, #26
210047a4:	e1812002 	orr	r2, r1, r2
210047a8:	e5832000 	str	r2, [r3]
210047ac:	e51b3008 	ldr	r3, [fp, #-8]
210047b0:	e5933000 	ldr	r3, [r3]
210047b4:	e283308c 	add	r3, r3, #140	; 0x8c
210047b8:	e3a02803 	mov	r2, #196608	; 0x30000
210047bc:	e5832000 	str	r2, [r3]
210047c0:	e28bd000 	add	sp, fp, #0
210047c4:	e8bd0800 	pop	{fp}
210047c8:	e12fff1e 	bx	lr
210047cc:	7f0081a0 	.word	0x7f0081a0

210047d0 <SDHC_ErrorInterruptHandler>:
210047d0:	e52db004 	push	{fp}		; (str fp, [sp, #-4]!)
210047d4:	e28db000 	add	fp, sp, #0
210047d8:	e24dd014 	sub	sp, sp, #20
210047dc:	e50b0010 	str	r0, [fp, #-16]
210047e0:	e51b3010 	ldr	r3, [fp, #-16]
210047e4:	e5933000 	ldr	r3, [r3]
210047e8:	e2833032 	add	r3, r3, #50	; 0x32
210047ec:	e1d330b0 	ldrh	r3, [r3]
210047f0:	e6ff2073 	uxth	r2, r3
210047f4:	e51b3010 	ldr	r3, [fp, #-16]
210047f8:	e1c323bc 	strh	r2, [r3, #60]	; 0x3c
210047fc:	e51b3010 	ldr	r3, [fp, #-16]
21004800:	e1d333bc 	ldrh	r3, [r3, #60]	; 0x3c
21004804:	e14b30b6 	strh	r3, [fp, #-6]
21004808:	e15b30b6 	ldrh	r3, [fp, #-6]
2100480c:	e2033c02 	and	r3, r3, #512	; 0x200
21004810:	e3530000 	cmp	r3, #0
21004814:	0a00000c 	beq	2100484c <SDHC_ErrorInterruptHandler+0x7c>
21004818:	e51b3010 	ldr	r3, [fp, #-16]
2100481c:	e5933000 	ldr	r3, [r3]
21004820:	e2833032 	add	r3, r3, #50	; 0x32
21004824:	e3a02c02 	mov	r2, #512	; 0x200
21004828:	e1c320b0 	strh	r2, [r3]
2100482c:	e51b3010 	ldr	r3, [fp, #-16]
21004830:	e5933000 	ldr	r3, [r3]
21004834:	e2833032 	add	r3, r3, #50	; 0x32
21004838:	e1d330b0 	ldrh	r3, [r3]
2100483c:	e6ff3073 	uxth	r3, r3
21004840:	e2033c02 	and	r3, r3, #512	; 0x200
21004844:	e3530000 	cmp	r3, #0
21004848:	1afffff7 	bne	2100482c <SDHC_ErrorInterruptHandler+0x5c>
2100484c:	e15b30b6 	ldrh	r3, [fp, #-6]
21004850:	e2033c01 	and	r3, r3, #256	; 0x100
21004854:	e3530000 	cmp	r3, #0
21004858:	0a00000c 	beq	21004890 <SDHC_ErrorInterruptHandler+0xc0>
2100485c:	e51b3010 	ldr	r3, [fp, #-16]
21004860:	e5933000 	ldr	r3, [r3]
21004864:	e2833032 	add	r3, r3, #50	; 0x32
21004868:	e3a02c01 	mov	r2, #256	; 0x100
2100486c:	e1c320b0 	strh	r2, [r3]
21004870:	e51b3010 	ldr	r3, [fp, #-16]
21004874:	e5933000 	ldr	r3, [r3]
21004878:	e2833032 	add	r3, r3, #50	; 0x32
2100487c:	e1d330b0 	ldrh	r3, [r3]
21004880:	e6ff3073 	uxth	r3, r3
21004884:	e2033c01 	and	r3, r3, #256	; 0x100
21004888:	e3530000 	cmp	r3, #0
2100488c:	1afffff7 	bne	21004870 <SDHC_ErrorInterruptHandler+0xa0>
21004890:	e15b30b6 	ldrh	r3, [fp, #-6]
21004894:	e2033080 	and	r3, r3, #128	; 0x80
21004898:	e3530000 	cmp	r3, #0
2100489c:	0a00000c 	beq	210048d4 <SDHC_ErrorInterruptHandler+0x104>
210048a0:	e51b3010 	ldr	r3, [fp, #-16]
210048a4:	e5933000 	ldr	r3, [r3]
210048a8:	e2833032 	add	r3, r3, #50	; 0x32
210048ac:	e3a02080 	mov	r2, #128	; 0x80
210048b0:	e1c320b0 	strh	r2, [r3]
210048b4:	e51b3010 	ldr	r3, [fp, #-16]
210048b8:	e5933000 	ldr	r3, [r3]
210048bc:	e2833032 	add	r3, r3, #50	; 0x32
210048c0:	e1d330b0 	ldrh	r3, [r3]
210048c4:	e6ff3073 	uxth	r3, r3
210048c8:	e2033080 	and	r3, r3, #128	; 0x80
210048cc:	e3530000 	cmp	r3, #0
210048d0:	1afffff7 	bne	210048b4 <SDHC_ErrorInterruptHandler+0xe4>
210048d4:	e15b30b6 	ldrh	r3, [fp, #-6]
210048d8:	e2033040 	and	r3, r3, #64	; 0x40
210048dc:	e3530000 	cmp	r3, #0
210048e0:	0a00000c 	beq	21004918 <SDHC_ErrorInterruptHandler+0x148>
210048e4:	e51b3010 	ldr	r3, [fp, #-16]
210048e8:	e5933000 	ldr	r3, [r3]
210048ec:	e2833032 	add	r3, r3, #50	; 0x32
210048f0:	e3a02040 	mov	r2, #64	; 0x40
210048f4:	e1c320b0 	strh	r2, [r3]
210048f8:	e51b3010 	ldr	r3, [fp, #-16]
210048fc:	e5933000 	ldr	r3, [r3]
21004900:	e2833032 	add	r3, r3, #50	; 0x32
21004904:	e1d330b0 	ldrh	r3, [r3]
21004908:	e6ff3073 	uxth	r3, r3
2100490c:	e2033040 	and	r3, r3, #64	; 0x40
21004910:	e3530000 	cmp	r3, #0
21004914:	1afffff7 	bne	210048f8 <SDHC_ErrorInterruptHandler+0x128>
21004918:	e15b30b6 	ldrh	r3, [fp, #-6]
2100491c:	e2033020 	and	r3, r3, #32
21004920:	e3530000 	cmp	r3, #0
21004924:	0a00000c 	beq	2100495c <SDHC_ErrorInterruptHandler+0x18c>
21004928:	e51b3010 	ldr	r3, [fp, #-16]
2100492c:	e5933000 	ldr	r3, [r3]
21004930:	e2833032 	add	r3, r3, #50	; 0x32
21004934:	e3a02020 	mov	r2, #32
21004938:	e1c320b0 	strh	r2, [r3]
2100493c:	e51b3010 	ldr	r3, [fp, #-16]
21004940:	e5933000 	ldr	r3, [r3]
21004944:	e2833032 	add	r3, r3, #50	; 0x32
21004948:	e1d330b0 	ldrh	r3, [r3]
2100494c:	e6ff3073 	uxth	r3, r3
21004950:	e2033020 	and	r3, r3, #32
21004954:	e3530000 	cmp	r3, #0
21004958:	1afffff7 	bne	2100493c <SDHC_ErrorInterruptHandler+0x16c>
2100495c:	e15b30b6 	ldrh	r3, [fp, #-6]
21004960:	e2033010 	and	r3, r3, #16
21004964:	e3530000 	cmp	r3, #0
21004968:	0a00000c 	beq	210049a0 <SDHC_ErrorInterruptHandler+0x1d0>
2100496c:	e51b3010 	ldr	r3, [fp, #-16]
21004970:	e5933000 	ldr	r3, [r3]
21004974:	e2833032 	add	r3, r3, #50	; 0x32
21004978:	e3a02010 	mov	r2, #16
2100497c:	e1c320b0 	strh	r2, [r3]
21004980:	e51b3010 	ldr	r3, [fp, #-16]
21004984:	e5933000 	ldr	r3, [r3]
21004988:	e2833032 	add	r3, r3, #50	; 0x32
2100498c:	e1d330b0 	ldrh	r3, [r3]
21004990:	e6ff3073 	uxth	r3, r3
21004994:	e2033010 	and	r3, r3, #16
21004998:	e3530000 	cmp	r3, #0
2100499c:	1afffff7 	bne	21004980 <SDHC_ErrorInterruptHandler+0x1b0>
210049a0:	e15b30b6 	ldrh	r3, [fp, #-6]
210049a4:	e2033008 	and	r3, r3, #8
210049a8:	e3530000 	cmp	r3, #0
210049ac:	0a00000c 	beq	210049e4 <SDHC_ErrorInterruptHandler+0x214>
210049b0:	e51b3010 	ldr	r3, [fp, #-16]
210049b4:	e5933000 	ldr	r3, [r3]
210049b8:	e2833032 	add	r3, r3, #50	; 0x32
210049bc:	e3a02008 	mov	r2, #8
210049c0:	e1c320b0 	strh	r2, [r3]
210049c4:	e51b3010 	ldr	r3, [fp, #-16]
210049c8:	e5933000 	ldr	r3, [r3]
210049cc:	e2833032 	add	r3, r3, #50	; 0x32
210049d0:	e1d330b0 	ldrh	r3, [r3]
210049d4:	e6ff3073 	uxth	r3, r3
210049d8:	e2033008 	and	r3, r3, #8
210049dc:	e3530000 	cmp	r3, #0
210049e0:	1afffff7 	bne	210049c4 <SDHC_ErrorInterruptHandler+0x1f4>
210049e4:	e15b30b6 	ldrh	r3, [fp, #-6]
210049e8:	e2033004 	and	r3, r3, #4
210049ec:	e3530000 	cmp	r3, #0
210049f0:	0a00000c 	beq	21004a28 <SDHC_ErrorInterruptHandler+0x258>
210049f4:	e51b3010 	ldr	r3, [fp, #-16]
210049f8:	e5933000 	ldr	r3, [r3]
210049fc:	e2833032 	add	r3, r3, #50	; 0x32
21004a00:	e3a02004 	mov	r2, #4
21004a04:	e1c320b0 	strh	r2, [r3]
21004a08:	e51b3010 	ldr	r3, [fp, #-16]
21004a0c:	e5933000 	ldr	r3, [r3]
21004a10:	e2833032 	add	r3, r3, #50	; 0x32
21004a14:	e1d330b0 	ldrh	r3, [r3]
21004a18:	e6ff3073 	uxth	r3, r3
21004a1c:	e2033004 	and	r3, r3, #4
21004a20:	e3530000 	cmp	r3, #0
21004a24:	1afffff7 	bne	21004a08 <SDHC_ErrorInterruptHandler+0x238>
21004a28:	e15b30b6 	ldrh	r3, [fp, #-6]
21004a2c:	e2033002 	and	r3, r3, #2
21004a30:	e3530000 	cmp	r3, #0
21004a34:	0a00000c 	beq	21004a6c <SDHC_ErrorInterruptHandler+0x29c>
21004a38:	e51b3010 	ldr	r3, [fp, #-16]
21004a3c:	e5933000 	ldr	r3, [r3]
21004a40:	e2833032 	add	r3, r3, #50	; 0x32
21004a44:	e3a02002 	mov	r2, #2
21004a48:	e1c320b0 	strh	r2, [r3]
21004a4c:	e51b3010 	ldr	r3, [fp, #-16]
21004a50:	e5933000 	ldr	r3, [r3]
21004a54:	e2833032 	add	r3, r3, #50	; 0x32
21004a58:	e1d330b0 	ldrh	r3, [r3]
21004a5c:	e6ff3073 	uxth	r3, r3
21004a60:	e2033002 	and	r3, r3, #2
21004a64:	e3530000 	cmp	r3, #0
21004a68:	1afffff7 	bne	21004a4c <SDHC_ErrorInterruptHandler+0x27c>
21004a6c:	e15b30b6 	ldrh	r3, [fp, #-6]
21004a70:	e2033001 	and	r3, r3, #1
21004a74:	e6ef3073 	uxtb	r3, r3
21004a78:	e3530000 	cmp	r3, #0
21004a7c:	0a00000d 	beq	21004ab8 <SDHC_ErrorInterruptHandler+0x2e8>
21004a80:	e51b3010 	ldr	r3, [fp, #-16]
21004a84:	e5933000 	ldr	r3, [r3]
21004a88:	e2833032 	add	r3, r3, #50	; 0x32
21004a8c:	e3a02001 	mov	r2, #1
21004a90:	e1c320b0 	strh	r2, [r3]
21004a94:	e51b3010 	ldr	r3, [fp, #-16]
21004a98:	e5933000 	ldr	r3, [r3]
21004a9c:	e2833032 	add	r3, r3, #50	; 0x32
21004aa0:	e1d330b0 	ldrh	r3, [r3]
21004aa4:	e6ff3073 	uxth	r3, r3
21004aa8:	e2033001 	and	r3, r3, #1
21004aac:	e6ef3073 	uxtb	r3, r3
21004ab0:	e3530000 	cmp	r3, #0
21004ab4:	1afffff6 	bne	21004a94 <SDHC_ErrorInterruptHandler+0x2c4>
21004ab8:	e28bd000 	add	sp, fp, #0
21004abc:	e8bd0800 	pop	{fp}
21004ac0:	e12fff1e 	bx	lr

21004ac4 <SDHC_InterruptHandler>:
21004ac4:	e92d4800 	push	{fp, lr}
21004ac8:	e28db004 	add	fp, sp, #4
21004acc:	e24dd010 	sub	sp, sp, #16
21004ad0:	e50b0010 	str	r0, [fp, #-16]
21004ad4:	e51b3010 	ldr	r3, [fp, #-16]
21004ad8:	e1d323ba 	ldrh	r2, [r3, #58]	; 0x3a
21004adc:	e51b3010 	ldr	r3, [fp, #-16]
21004ae0:	e5933000 	ldr	r3, [r3]
21004ae4:	e2833030 	add	r3, r3, #48	; 0x30
21004ae8:	e1d330b0 	ldrh	r3, [r3]
21004aec:	e14b30b6 	strh	r3, [fp, #-6]
21004af0:	e15b30b6 	ldrh	r3, [fp, #-6]
21004af4:	e1823003 	orr	r3, r2, r3
21004af8:	e6ff2073 	uxth	r2, r3
21004afc:	e51b3010 	ldr	r3, [fp, #-16]
21004b00:	e1c323ba 	strh	r2, [r3, #58]	; 0x3a
21004b04:	e59f04ac 	ldr	r0, [pc, #1196]	; 21004fb8 <SDHC_InterruptHandler+0x4f4>
21004b08:	eb000944 	bl	21007020 <puts>
21004b0c:	e15b30b6 	ldrh	r3, [fp, #-6]
21004b10:	e6bf3073 	sxth	r3, r3
21004b14:	e3530000 	cmp	r3, #0
21004b18:	aa00000f 	bge	21004b5c <SDHC_InterruptHandler+0x98>
21004b1c:	e51b0010 	ldr	r0, [fp, #-16]
21004b20:	ebffff2a 	bl	210047d0 <SDHC_ErrorInterruptHandler>
21004b24:	e51b3010 	ldr	r3, [fp, #-16]
21004b28:	e5933000 	ldr	r3, [r3]
21004b2c:	e2833030 	add	r3, r3, #48	; 0x30
21004b30:	e3a02902 	mov	r2, #32768	; 0x8000
21004b34:	e1c320b0 	strh	r2, [r3]
21004b38:	e51b3010 	ldr	r3, [fp, #-16]
21004b3c:	e5933000 	ldr	r3, [r3]
21004b40:	e2833030 	add	r3, r3, #48	; 0x30
21004b44:	e1d330b0 	ldrh	r3, [r3]
21004b48:	e6ff3073 	uxth	r3, r3
21004b4c:	e6ff3073 	uxth	r3, r3
21004b50:	e6bf3073 	sxth	r3, r3
21004b54:	e3530000 	cmp	r3, #0
21004b58:	bafffff6 	blt	21004b38 <SDHC_InterruptHandler+0x74>
21004b5c:	e15b30b6 	ldrh	r3, [fp, #-6]
21004b60:	e2033901 	and	r3, r3, #16384	; 0x4000
21004b64:	e3530000 	cmp	r3, #0
21004b68:	0a00000c 	beq	21004ba0 <SDHC_InterruptHandler+0xdc>
21004b6c:	e51b3010 	ldr	r3, [fp, #-16]
21004b70:	e5933000 	ldr	r3, [r3]
21004b74:	e2833030 	add	r3, r3, #48	; 0x30
21004b78:	e3a02901 	mov	r2, #16384	; 0x4000
21004b7c:	e1c320b0 	strh	r2, [r3]
21004b80:	e51b3010 	ldr	r3, [fp, #-16]
21004b84:	e5933000 	ldr	r3, [r3]
21004b88:	e2833030 	add	r3, r3, #48	; 0x30
21004b8c:	e1d330b0 	ldrh	r3, [r3]
21004b90:	e6ff3073 	uxth	r3, r3
21004b94:	e2033901 	and	r3, r3, #16384	; 0x4000
21004b98:	e3530000 	cmp	r3, #0
21004b9c:	1afffff7 	bne	21004b80 <SDHC_InterruptHandler+0xbc>
21004ba0:	e15b30b6 	ldrh	r3, [fp, #-6]
21004ba4:	e2033a02 	and	r3, r3, #8192	; 0x2000
21004ba8:	e3530000 	cmp	r3, #0
21004bac:	0a00000c 	beq	21004be4 <SDHC_InterruptHandler+0x120>
21004bb0:	e51b3010 	ldr	r3, [fp, #-16]
21004bb4:	e5933000 	ldr	r3, [r3]
21004bb8:	e2833030 	add	r3, r3, #48	; 0x30
21004bbc:	e3a02a02 	mov	r2, #8192	; 0x2000
21004bc0:	e1c320b0 	strh	r2, [r3]
21004bc4:	e51b3010 	ldr	r3, [fp, #-16]
21004bc8:	e5933000 	ldr	r3, [r3]
21004bcc:	e2833030 	add	r3, r3, #48	; 0x30
21004bd0:	e1d330b0 	ldrh	r3, [r3]
21004bd4:	e6ff3073 	uxth	r3, r3
21004bd8:	e2033a02 	and	r3, r3, #8192	; 0x2000
21004bdc:	e3530000 	cmp	r3, #0
21004be0:	1afffff7 	bne	21004bc4 <SDHC_InterruptHandler+0x100>
21004be4:	e15b30b6 	ldrh	r3, [fp, #-6]
21004be8:	e2033a01 	and	r3, r3, #4096	; 0x1000
21004bec:	e3530000 	cmp	r3, #0
21004bf0:	0a00000c 	beq	21004c28 <SDHC_InterruptHandler+0x164>
21004bf4:	e51b3010 	ldr	r3, [fp, #-16]
21004bf8:	e5933000 	ldr	r3, [r3]
21004bfc:	e2833030 	add	r3, r3, #48	; 0x30
21004c00:	e3a02a01 	mov	r2, #4096	; 0x1000
21004c04:	e1c320b0 	strh	r2, [r3]
21004c08:	e51b3010 	ldr	r3, [fp, #-16]
21004c0c:	e5933000 	ldr	r3, [r3]
21004c10:	e2833030 	add	r3, r3, #48	; 0x30
21004c14:	e1d330b0 	ldrh	r3, [r3]
21004c18:	e6ff3073 	uxth	r3, r3
21004c1c:	e2033a01 	and	r3, r3, #4096	; 0x1000
21004c20:	e3530000 	cmp	r3, #0
21004c24:	1afffff7 	bne	21004c08 <SDHC_InterruptHandler+0x144>
21004c28:	e15b30b6 	ldrh	r3, [fp, #-6]
21004c2c:	e2033b02 	and	r3, r3, #2048	; 0x800
21004c30:	e3530000 	cmp	r3, #0
21004c34:	0a00000c 	beq	21004c6c <SDHC_InterruptHandler+0x1a8>
21004c38:	e51b3010 	ldr	r3, [fp, #-16]
21004c3c:	e5933000 	ldr	r3, [r3]
21004c40:	e2833030 	add	r3, r3, #48	; 0x30
21004c44:	e3a02b02 	mov	r2, #2048	; 0x800
21004c48:	e1c320b0 	strh	r2, [r3]
21004c4c:	e51b3010 	ldr	r3, [fp, #-16]
21004c50:	e5933000 	ldr	r3, [r3]
21004c54:	e2833030 	add	r3, r3, #48	; 0x30
21004c58:	e1d330b0 	ldrh	r3, [r3]
21004c5c:	e6ff3073 	uxth	r3, r3
21004c60:	e2033b02 	and	r3, r3, #2048	; 0x800
21004c64:	e3530000 	cmp	r3, #0
21004c68:	1afffff7 	bne	21004c4c <SDHC_InterruptHandler+0x188>
21004c6c:	e15b30b6 	ldrh	r3, [fp, #-6]
21004c70:	e2033b01 	and	r3, r3, #1024	; 0x400
21004c74:	e3530000 	cmp	r3, #0
21004c78:	0a00000c 	beq	21004cb0 <SDHC_InterruptHandler+0x1ec>
21004c7c:	e51b3010 	ldr	r3, [fp, #-16]
21004c80:	e5933000 	ldr	r3, [r3]
21004c84:	e2833030 	add	r3, r3, #48	; 0x30
21004c88:	e3a02b01 	mov	r2, #1024	; 0x400
21004c8c:	e1c320b0 	strh	r2, [r3]
21004c90:	e51b3010 	ldr	r3, [fp, #-16]
21004c94:	e5933000 	ldr	r3, [r3]
21004c98:	e2833030 	add	r3, r3, #48	; 0x30
21004c9c:	e1d330b0 	ldrh	r3, [r3]
21004ca0:	e6ff3073 	uxth	r3, r3
21004ca4:	e2033b01 	and	r3, r3, #1024	; 0x400
21004ca8:	e3530000 	cmp	r3, #0
21004cac:	1afffff7 	bne	21004c90 <SDHC_InterruptHandler+0x1cc>
21004cb0:	e15b30b6 	ldrh	r3, [fp, #-6]
21004cb4:	e2033c02 	and	r3, r3, #512	; 0x200
21004cb8:	e3530000 	cmp	r3, #0
21004cbc:	0a00000f 	beq	21004d00 <SDHC_InterruptHandler+0x23c>
21004cc0:	e51b3010 	ldr	r3, [fp, #-16]
21004cc4:	e5933000 	ldr	r3, [r3]
21004cc8:	e2833030 	add	r3, r3, #48	; 0x30
21004ccc:	e3a02c02 	mov	r2, #512	; 0x200
21004cd0:	e1c320b0 	strh	r2, [r3]
21004cd4:	e51b3010 	ldr	r3, [fp, #-16]
21004cd8:	e5933000 	ldr	r3, [r3]
21004cdc:	e2833030 	add	r3, r3, #48	; 0x30
21004ce0:	e1d330b0 	ldrh	r3, [r3]
21004ce4:	e6ff3073 	uxth	r3, r3
21004ce8:	e2033c02 	and	r3, r3, #512	; 0x200
21004cec:	e3530000 	cmp	r3, #0
21004cf0:	1afffff7 	bne	21004cd4 <SDHC_InterruptHandler+0x210>
21004cf4:	e51b3010 	ldr	r3, [fp, #-16]
21004cf8:	e3a02000 	mov	r2, #0
21004cfc:	e5c32024 	strb	r2, [r3, #36]	; 0x24
21004d00:	e15b30b6 	ldrh	r3, [fp, #-6]
21004d04:	e2033c01 	and	r3, r3, #256	; 0x100
21004d08:	e3530000 	cmp	r3, #0
21004d0c:	0a00000c 	beq	21004d44 <SDHC_InterruptHandler+0x280>
21004d10:	e51b3010 	ldr	r3, [fp, #-16]
21004d14:	e5933000 	ldr	r3, [r3]
21004d18:	e2833030 	add	r3, r3, #48	; 0x30
21004d1c:	e3a02c01 	mov	r2, #256	; 0x100
21004d20:	e1c320b0 	strh	r2, [r3]
21004d24:	e51b3010 	ldr	r3, [fp, #-16]
21004d28:	e5933000 	ldr	r3, [r3]
21004d2c:	e2833030 	add	r3, r3, #48	; 0x30
21004d30:	e1d330b0 	ldrh	r3, [r3]
21004d34:	e6ff3073 	uxth	r3, r3
21004d38:	e2033c01 	and	r3, r3, #256	; 0x100
21004d3c:	e3530000 	cmp	r3, #0
21004d40:	1afffff7 	bne	21004d24 <SDHC_InterruptHandler+0x260>
21004d44:	e15b30b6 	ldrh	r3, [fp, #-6]
21004d48:	e2033080 	and	r3, r3, #128	; 0x80
21004d4c:	e3530000 	cmp	r3, #0
21004d50:	0a00000c 	beq	21004d88 <SDHC_InterruptHandler+0x2c4>
21004d54:	e51b3010 	ldr	r3, [fp, #-16]
21004d58:	e5933000 	ldr	r3, [r3]
21004d5c:	e2833030 	add	r3, r3, #48	; 0x30
21004d60:	e3a02080 	mov	r2, #128	; 0x80
21004d64:	e1c320b0 	strh	r2, [r3]
21004d68:	e51b3010 	ldr	r3, [fp, #-16]
21004d6c:	e5933000 	ldr	r3, [r3]
21004d70:	e2833030 	add	r3, r3, #48	; 0x30
21004d74:	e1d330b0 	ldrh	r3, [r3]
21004d78:	e6ff3073 	uxth	r3, r3
21004d7c:	e2033080 	and	r3, r3, #128	; 0x80
21004d80:	e3530000 	cmp	r3, #0
21004d84:	1afffff7 	bne	21004d68 <SDHC_InterruptHandler+0x2a4>
21004d88:	e15b30b6 	ldrh	r3, [fp, #-6]
21004d8c:	e2033040 	and	r3, r3, #64	; 0x40
21004d90:	e3530000 	cmp	r3, #0
21004d94:	0a00000c 	beq	21004dcc <SDHC_InterruptHandler+0x308>
21004d98:	e51b3010 	ldr	r3, [fp, #-16]
21004d9c:	e5933000 	ldr	r3, [r3]
21004da0:	e2833030 	add	r3, r3, #48	; 0x30
21004da4:	e3a02040 	mov	r2, #64	; 0x40
21004da8:	e1c320b0 	strh	r2, [r3]
21004dac:	e51b3010 	ldr	r3, [fp, #-16]
21004db0:	e5933000 	ldr	r3, [r3]
21004db4:	e2833030 	add	r3, r3, #48	; 0x30
21004db8:	e1d330b0 	ldrh	r3, [r3]
21004dbc:	e6ff3073 	uxth	r3, r3
21004dc0:	e2033040 	and	r3, r3, #64	; 0x40
21004dc4:	e3530000 	cmp	r3, #0
21004dc8:	1afffff7 	bne	21004dac <SDHC_InterruptHandler+0x2e8>
21004dcc:	e15b30b6 	ldrh	r3, [fp, #-6]
21004dd0:	e2033020 	and	r3, r3, #32
21004dd4:	e3530000 	cmp	r3, #0
21004dd8:	0a000010 	beq	21004e20 <SDHC_InterruptHandler+0x35c>
21004ddc:	e51b3010 	ldr	r3, [fp, #-16]
21004de0:	e5933000 	ldr	r3, [r3]
21004de4:	e2833030 	add	r3, r3, #48	; 0x30
21004de8:	e3a02020 	mov	r2, #32
21004dec:	e1c320b0 	strh	r2, [r3]
21004df0:	e51b3010 	ldr	r3, [fp, #-16]
21004df4:	e5933000 	ldr	r3, [r3]
21004df8:	e2833030 	add	r3, r3, #48	; 0x30
21004dfc:	e1d330b0 	ldrh	r3, [r3]
21004e00:	e6ff3073 	uxth	r3, r3
21004e04:	e2033020 	and	r3, r3, #32
21004e08:	e3530000 	cmp	r3, #0
21004e0c:	1afffff7 	bne	21004df0 <SDHC_InterruptHandler+0x32c>
21004e10:	e51b3010 	ldr	r3, [fp, #-16]
21004e14:	e5933028 	ldr	r3, [r3, #40]	; 0x28
21004e18:	e1a00003 	mov	r0, r3
21004e1c:	eb000739 	bl	21006b08 <SDHC_ReadOneBlock>
21004e20:	e15b30b6 	ldrh	r3, [fp, #-6]
21004e24:	e2033010 	and	r3, r3, #16
21004e28:	e3530000 	cmp	r3, #0
21004e2c:	0a000010 	beq	21004e74 <SDHC_InterruptHandler+0x3b0>
21004e30:	e51b3010 	ldr	r3, [fp, #-16]
21004e34:	e5933000 	ldr	r3, [r3]
21004e38:	e2833030 	add	r3, r3, #48	; 0x30
21004e3c:	e3a02010 	mov	r2, #16
21004e40:	e1c320b0 	strh	r2, [r3]
21004e44:	e51b3010 	ldr	r3, [fp, #-16]
21004e48:	e5933000 	ldr	r3, [r3]
21004e4c:	e2833030 	add	r3, r3, #48	; 0x30
21004e50:	e1d330b0 	ldrh	r3, [r3]
21004e54:	e6ff3073 	uxth	r3, r3
21004e58:	e2033010 	and	r3, r3, #16
21004e5c:	e3530000 	cmp	r3, #0
21004e60:	1afffff7 	bne	21004e44 <SDHC_InterruptHandler+0x380>
21004e64:	e51b3010 	ldr	r3, [fp, #-16]
21004e68:	e5933028 	ldr	r3, [r3, #40]	; 0x28
21004e6c:	e1a00003 	mov	r0, r3
21004e70:	eb0002d5 	bl	210059cc <SDHC_WriteOneBlock>
21004e74:	e15b30b6 	ldrh	r3, [fp, #-6]
21004e78:	e2033008 	and	r3, r3, #8
21004e7c:	e3530000 	cmp	r3, #0
21004e80:	0a000012 	beq	21004ed0 <SDHC_InterruptHandler+0x40c>
21004e84:	e51b3010 	ldr	r3, [fp, #-16]
21004e88:	e5933000 	ldr	r3, [r3]
21004e8c:	e2833030 	add	r3, r3, #48	; 0x30
21004e90:	e3a02008 	mov	r2, #8
21004e94:	e1c320b0 	strh	r2, [r3]
21004e98:	e51b3010 	ldr	r3, [fp, #-16]
21004e9c:	e5933000 	ldr	r3, [r3]
21004ea0:	e2833030 	add	r3, r3, #48	; 0x30
21004ea4:	e1d330b0 	ldrh	r3, [r3]
21004ea8:	e6ff3073 	uxth	r3, r3
21004eac:	e2033008 	and	r3, r3, #8
21004eb0:	e3530000 	cmp	r3, #0
21004eb4:	1afffff7 	bne	21004e98 <SDHC_InterruptHandler+0x3d4>
21004eb8:	e51b3010 	ldr	r3, [fp, #-16]
21004ebc:	e5933000 	ldr	r3, [r3]
21004ec0:	e51b2010 	ldr	r2, [fp, #-16]
21004ec4:	e5922000 	ldr	r2, [r2]
21004ec8:	e5922000 	ldr	r2, [r2]
21004ecc:	e5832000 	str	r2, [r3]
21004ed0:	e15b30b6 	ldrh	r3, [fp, #-6]
21004ed4:	e2033004 	and	r3, r3, #4
21004ed8:	e3530000 	cmp	r3, #0
21004edc:	0a00000c 	beq	21004f14 <SDHC_InterruptHandler+0x450>
21004ee0:	e51b3010 	ldr	r3, [fp, #-16]
21004ee4:	e5933000 	ldr	r3, [r3]
21004ee8:	e2833030 	add	r3, r3, #48	; 0x30
21004eec:	e3a02004 	mov	r2, #4
21004ef0:	e1c320b0 	strh	r2, [r3]
21004ef4:	e51b3010 	ldr	r3, [fp, #-16]
21004ef8:	e5933000 	ldr	r3, [r3]
21004efc:	e2833030 	add	r3, r3, #48	; 0x30
21004f00:	e1d330b0 	ldrh	r3, [r3]
21004f04:	e6ff3073 	uxth	r3, r3
21004f08:	e2033004 	and	r3, r3, #4
21004f0c:	e3530000 	cmp	r3, #0
21004f10:	1afffff7 	bne	21004ef4 <SDHC_InterruptHandler+0x430>
21004f14:	e15b30b6 	ldrh	r3, [fp, #-6]
21004f18:	e2033002 	and	r3, r3, #2
21004f1c:	e3530000 	cmp	r3, #0
21004f20:	0a00000f 	beq	21004f64 <SDHC_InterruptHandler+0x4a0>
21004f24:	e51b3010 	ldr	r3, [fp, #-16]
21004f28:	e3a02000 	mov	r2, #0
21004f2c:	e1c322b2 	strh	r2, [r3, #34]	; 0x22
21004f30:	e51b3010 	ldr	r3, [fp, #-16]
21004f34:	e5933000 	ldr	r3, [r3]
21004f38:	e2833030 	add	r3, r3, #48	; 0x30
21004f3c:	e3a02002 	mov	r2, #2
21004f40:	e1c320b0 	strh	r2, [r3]
21004f44:	e51b3010 	ldr	r3, [fp, #-16]
21004f48:	e5933000 	ldr	r3, [r3]
21004f4c:	e2833030 	add	r3, r3, #48	; 0x30
21004f50:	e1d330b0 	ldrh	r3, [r3]
21004f54:	e6ff3073 	uxth	r3, r3
21004f58:	e2033002 	and	r3, r3, #2
21004f5c:	e3530000 	cmp	r3, #0
21004f60:	1afffff7 	bne	21004f44 <SDHC_InterruptHandler+0x480>
21004f64:	e15b30b6 	ldrh	r3, [fp, #-6]
21004f68:	e2033001 	and	r3, r3, #1
21004f6c:	e6ef3073 	uxtb	r3, r3
21004f70:	e3530000 	cmp	r3, #0
21004f74:	0a00000d 	beq	21004fb0 <SDHC_InterruptHandler+0x4ec>
21004f78:	e51b3010 	ldr	r3, [fp, #-16]
21004f7c:	e5933000 	ldr	r3, [r3]
21004f80:	e2833030 	add	r3, r3, #48	; 0x30
21004f84:	e3a02001 	mov	r2, #1
21004f88:	e1c320b0 	strh	r2, [r3]
21004f8c:	e51b3010 	ldr	r3, [fp, #-16]
21004f90:	e5933000 	ldr	r3, [r3]
21004f94:	e2833030 	add	r3, r3, #48	; 0x30
21004f98:	e1d330b0 	ldrh	r3, [r3]
21004f9c:	e6ff3073 	uxth	r3, r3
21004fa0:	e2033001 	and	r3, r3, #1
21004fa4:	e6ef3073 	uxtb	r3, r3
21004fa8:	e3530000 	cmp	r3, #0
21004fac:	1afffff6 	bne	21004f8c <SDHC_InterruptHandler+0x4c8>
21004fb0:	e24bd004 	sub	sp, fp, #4
21004fb4:	e8bd8800 	pop	{fp, pc}
21004fb8:	21007bc4 	.word	0x21007bc4

21004fbc <SDHC_SetSdhcInterruptEnable>:
21004fbc:	e92d4800 	push	{fp, lr}
21004fc0:	e28db004 	add	fp, sp, #4
21004fc4:	e24dd008 	sub	sp, sp, #8
21004fc8:	e14b00b6 	strh	r0, [fp, #-6]
21004fcc:	e14b10b8 	strh	r1, [fp, #-8]
21004fd0:	e14b20ba 	strh	r2, [fp, #-10]
21004fd4:	e14b30bc 	strh	r3, [fp, #-12]
21004fd8:	e59b0004 	ldr	r0, [fp, #4]
21004fdc:	eb0001dd 	bl	21005758 <SDHC_ClearErrInterruptStatus>
21004fe0:	e59b3004 	ldr	r3, [fp, #4]
21004fe4:	e5933000 	ldr	r3, [r3]
21004fe8:	e2833034 	add	r3, r3, #52	; 0x34
21004fec:	e15b20b6 	ldrh	r2, [fp, #-6]
21004ff0:	e1c320b0 	strh	r2, [r3]
21004ff4:	e59b3004 	ldr	r3, [fp, #4]
21004ff8:	e5933000 	ldr	r3, [r3]
21004ffc:	e2833036 	add	r3, r3, #54	; 0x36
21005000:	e15b20b8 	ldrh	r2, [fp, #-8]
21005004:	e1c320b0 	strh	r2, [r3]
21005008:	e59b3004 	ldr	r3, [fp, #4]
2100500c:	e5933000 	ldr	r3, [r3]
21005010:	e2833038 	add	r3, r3, #56	; 0x38
21005014:	e15b20ba 	ldrh	r2, [fp, #-10]
21005018:	e1c320b0 	strh	r2, [r3]
2100501c:	e59b3004 	ldr	r3, [fp, #4]
21005020:	e5933000 	ldr	r3, [r3]
21005024:	e283303a 	add	r3, r3, #58	; 0x3a
21005028:	e15b20bc 	ldrh	r2, [fp, #-12]
2100502c:	e1c320b0 	strh	r2, [r3]
21005030:	e24bd004 	sub	sp, fp, #4
21005034:	e8bd8800 	pop	{fp, pc}

21005038 <SDHC_Init>:
21005038:	e92d4800 	push	{fp, lr}
2100503c:	e28db004 	add	fp, sp, #4
21005040:	e24dd018 	sub	sp, sp, #24
21005044:	e3a03000 	mov	r3, #0
21005048:	e50b300c 	str	r3, [fp, #-12]
2100504c:	e3a03000 	mov	r3, #0
21005050:	e50b3008 	str	r3, [fp, #-8]
21005054:	e59f32d8 	ldr	r3, [pc, #728]	; 21005334 <SDHC_Init+0x2fc>
21005058:	e50b3010 	str	r3, [fp, #-16]
2100505c:	e51b3010 	ldr	r3, [fp, #-16]
21005060:	e3a02000 	mov	r2, #0
21005064:	e5832010 	str	r2, [r3, #16]
21005068:	e51b3010 	ldr	r3, [fp, #-16]
2100506c:	e3a02001 	mov	r2, #1
21005070:	e5832014 	str	r2, [r3, #20]
21005074:	e51b3010 	ldr	r3, [fp, #-16]
21005078:	e3a02000 	mov	r2, #0
2100507c:	e5832004 	str	r2, [r3, #4]
21005080:	e51b3010 	ldr	r3, [fp, #-16]
21005084:	e3a02ffa 	mov	r2, #1000	; 0x3e8
21005088:	e583202c 	str	r2, [r3, #44]	; 0x2c
2100508c:	e51b3010 	ldr	r3, [fp, #-16]
21005090:	e3a02004 	mov	r2, #4
21005094:	e5c32027 	strb	r2, [r3, #39]	; 0x27
21005098:	e51b3010 	ldr	r3, [fp, #-16]
2100509c:	e3a02002 	mov	r2, #2
210050a0:	e5832018 	str	r2, [r3, #24]
210050a4:	e51b3010 	ldr	r3, [fp, #-16]
210050a8:	e3a02b02 	mov	r2, #2048	; 0x800
210050ac:	e1c323b0 	strh	r2, [r3, #48]	; 0x30
210050b0:	e51b3010 	ldr	r3, [fp, #-16]
210050b4:	e3a02000 	mov	r2, #0
210050b8:	e5c32026 	strb	r2, [r3, #38]	; 0x26
210050bc:	e51b3010 	ldr	r3, [fp, #-16]
210050c0:	e3a02000 	mov	r2, #0
210050c4:	e1c322b0 	strh	r2, [r3, #32]
210050c8:	e51b3010 	ldr	r3, [fp, #-16]
210050cc:	e3a02004 	mov	r2, #4
210050d0:	e5c32027 	strb	r2, [r3, #39]	; 0x27
210050d4:	e51b3010 	ldr	r3, [fp, #-16]
210050d8:	e5932010 	ldr	r2, [r3, #16]
210050dc:	e59f3254 	ldr	r3, [pc, #596]	; 21005338 <SDHC_Init+0x300>
210050e0:	e51b1010 	ldr	r1, [fp, #-16]
210050e4:	e7831102 	str	r1, [r3, r2, lsl #2]
210050e8:	e51b3010 	ldr	r3, [fp, #-16]
210050ec:	e3a024eb 	mov	r2, #-352321536	; 0xeb000000
210050f0:	e5832000 	str	r2, [r3]
210050f4:	e51b3010 	ldr	r3, [fp, #-16]
210050f8:	e59f223c 	ldr	r2, [pc, #572]	; 2100533c <SDHC_Init+0x304>
210050fc:	e5832040 	str	r2, [r3, #64]	; 0x40
21005100:	e51b3010 	ldr	r3, [fp, #-16]
21005104:	e3a02038 	mov	r2, #56	; 0x38
21005108:	e5c3203e 	strb	r2, [r3, #62]	; 0x3e
2100510c:	e59f322c 	ldr	r3, [pc, #556]	; 21005340 <SDHC_Init+0x308>
21005110:	e59f2228 	ldr	r2, [pc, #552]	; 21005340 <SDHC_Init+0x308>
21005114:	e5922000 	ldr	r2, [r2]
21005118:	e202220f 	and	r2, r2, #-268435456	; 0xf0000000
2100511c:	e5832000 	str	r2, [r3]
21005120:	e59f2218 	ldr	r2, [pc, #536]	; 21005340 <SDHC_Init+0x308>
21005124:	e59f3214 	ldr	r3, [pc, #532]	; 21005340 <SDHC_Init+0x308>
21005128:	e5931000 	ldr	r1, [r3]
2100512c:	e59f3210 	ldr	r3, [pc, #528]	; 21005344 <SDHC_Init+0x30c>
21005130:	e1813003 	orr	r3, r1, r3
21005134:	e5823000 	str	r3, [r2]
21005138:	e59f2208 	ldr	r2, [pc, #520]	; 21005348 <SDHC_Init+0x310>
2100513c:	e59f3204 	ldr	r3, [pc, #516]	; 21005348 <SDHC_Init+0x310>
21005140:	e5933000 	ldr	r3, [r3]
21005144:	e3c33eff 	bic	r3, r3, #4080	; 0xff0
21005148:	e3c3300f 	bic	r3, r3, #15
2100514c:	e5823000 	str	r3, [r2]
21005150:	e51b0010 	ldr	r0, [fp, #-16]
21005154:	eb000156 	bl	210056b4 <SDHC_ResetController>
21005158:	e59f01ec 	ldr	r0, [pc, #492]	; 2100534c <SDHC_Init+0x314>
2100515c:	ebfffd66 	bl	210046fc <debug>
21005160:	ea000007 	b	21005184 <SDHC_Init+0x14c>
21005164:	e51b3008 	ldr	r3, [fp, #-8]
21005168:	e2833001 	add	r3, r3, #1
2100516c:	e50b3008 	str	r3, [fp, #-8]
21005170:	e51b3008 	ldr	r3, [fp, #-8]
21005174:	e3530004 	cmp	r3, #4
21005178:	9a000001 	bls	21005184 <SDHC_Init+0x14c>
2100517c:	e3a03000 	mov	r3, #0
21005180:	ea000068 	b	21005328 <SDHC_Init+0x2f0>
21005184:	e51b0010 	ldr	r0, [fp, #-16]
21005188:	eb0003d8 	bl	210060f0 <SDHC_IdentifyCard>
2100518c:	e1a03000 	mov	r3, r0
21005190:	e3530000 	cmp	r3, #0
21005194:	0afffff2 	beq	21005164 <SDHC_Init+0x12c>
21005198:	e59f01b0 	ldr	r0, [pc, #432]	; 21005350 <SDHC_Init+0x318>
2100519c:	ebfffd56 	bl	210046fc <debug>
210051a0:	e51b3010 	ldr	r3, [fp, #-16]
210051a4:	e1d331bc 	ldrh	r3, [r3, #28]
210051a8:	e1a03803 	lsl	r3, r3, #16
210051ac:	e3a02002 	mov	r2, #2
210051b0:	e58d2000 	str	r2, [sp]
210051b4:	e51b0010 	ldr	r0, [fp, #-16]
210051b8:	e3a01007 	mov	r1, #7
210051bc:	e1a02003 	mov	r2, r3
210051c0:	e3a03002 	mov	r3, #2
210051c4:	eb000183 	bl	210057d8 <SDHC_IssueCommand>
210051c8:	e1a03000 	mov	r3, r0
210051cc:	e3530000 	cmp	r3, #0
210051d0:	1a000001 	bne	210051dc <SDHC_Init+0x1a4>
210051d4:	e3a03000 	mov	r3, #0
210051d8:	ea000052 	b	21005328 <SDHC_Init+0x2f0>
210051dc:	e51b3010 	ldr	r3, [fp, #-16]
210051e0:	e5933008 	ldr	r3, [r3, #8]
210051e4:	e3530000 	cmp	r3, #0
210051e8:	1a00001a 	bne	21005258 <SDHC_Init+0x220>
210051ec:	e51b0010 	ldr	r0, [fp, #-16]
210051f0:	eb0000a7 	bl	21005494 <SDHC_GetSdScr>
210051f4:	e51b3010 	ldr	r3, [fp, #-16]
210051f8:	e5d33025 	ldrb	r3, [r3, #37]	; 0x25
210051fc:	e3530001 	cmp	r3, #1
21005200:	0a000003 	beq	21005214 <SDHC_Init+0x1dc>
21005204:	e51b3010 	ldr	r3, [fp, #-16]
21005208:	e5d33025 	ldrb	r3, [r3, #37]	; 0x25
2100520c:	e3530002 	cmp	r3, #2
21005210:	1a00000f 	bne	21005254 <SDHC_Init+0x21c>
21005214:	e51b200c 	ldr	r2, [fp, #-12]
21005218:	e59f3134 	ldr	r3, [pc, #308]	; 21005354 <SDHC_Init+0x31c>
2100521c:	e1520003 	cmp	r2, r3
21005220:	93a03000 	movls	r3, #0
21005224:	83a03001 	movhi	r3, #1
21005228:	e50b3014 	str	r3, [fp, #-20]
2100522c:	e51b0014 	ldr	r0, [fp, #-20]
21005230:	e51b1010 	ldr	r1, [fp, #-16]
21005234:	eb000439 	bl	21006320 <SDHC_SetSdCardSpeedMode>
21005238:	e1a03000 	mov	r3, r0
2100523c:	e3530000 	cmp	r3, #0
21005240:	1a000004 	bne	21005258 <SDHC_Init+0x220>
21005244:	e59f010c 	ldr	r0, [pc, #268]	; 21005358 <SDHC_Init+0x320>
21005248:	eb000774 	bl	21007020 <puts>
2100524c:	e3a03000 	mov	r3, #0
21005250:	ea000034 	b	21005328 <SDHC_Init+0x2f0>
21005254:	eafffffe 	b	21005254 <SDHC_Init+0x21c>
21005258:	e51b200c 	ldr	r2, [fp, #-12]
2100525c:	e59f30f8 	ldr	r3, [pc, #248]	; 2100535c <SDHC_Init+0x324>
21005260:	e1520003 	cmp	r2, r3
21005264:	93a03000 	movls	r3, #0
21005268:	83a03001 	movhi	r3, #1
2100526c:	e50b3014 	str	r3, [fp, #-20]
21005270:	e51b0014 	ldr	r0, [fp, #-20]
21005274:	e51b1010 	ldr	r1, [fp, #-16]
21005278:	eb00049d 	bl	210064f4 <SDHC_SetHostCtrlSpeedMode>
2100527c:	e3a00000 	mov	r0, #0
21005280:	e51b1010 	ldr	r1, [fp, #-16]
21005284:	eb0004d9 	bl	210065f0 <SDHC_SetSdClockOnOff>
21005288:	e51b0010 	ldr	r0, [fp, #-16]
2100528c:	e51b1014 	ldr	r1, [fp, #-20]
21005290:	eb000502 	bl	210066a0 <SDHC_SetSdClock>
21005294:	e51b0010 	ldr	r0, [fp, #-16]
21005298:	eb000560 	bl	21006820 <SDHC_SetDataTransferWidth>
2100529c:	e1a03000 	mov	r3, r0
210052a0:	e3530000 	cmp	r3, #0
210052a4:	1a000001 	bne	210052b0 <SDHC_Init+0x278>
210052a8:	e3a03000 	mov	r3, #0
210052ac:	ea00001d 	b	21005328 <SDHC_Init+0x2f0>
210052b0:	e51b0010 	ldr	r0, [fp, #-16]
210052b4:	eb0005be 	bl	210069b4 <SDHC_WaitForCard2TransferState>
210052b8:	e1a03000 	mov	r3, r0
210052bc:	e3530000 	cmp	r3, #0
210052c0:	1a000001 	bne	210052cc <SDHC_Init+0x294>
210052c4:	e3a03000 	mov	r3, #0
210052c8:	ea000016 	b	21005328 <SDHC_Init+0x2f0>
210052cc:	e3a03001 	mov	r3, #1
210052d0:	e58d3000 	str	r3, [sp]
210052d4:	e51b0010 	ldr	r0, [fp, #-16]
210052d8:	e3a01010 	mov	r1, #16
210052dc:	e3a02c02 	mov	r2, #512	; 0x200
210052e0:	e3a03002 	mov	r3, #2
210052e4:	eb00013b 	bl	210057d8 <SDHC_IssueCommand>
210052e8:	e1a03000 	mov	r3, r0
210052ec:	e3530000 	cmp	r3, #0
210052f0:	1a000001 	bne	210052fc <SDHC_Init+0x2c4>
210052f4:	e3a03000 	mov	r3, #0
210052f8:	ea00000a 	b	21005328 <SDHC_Init+0x2f0>
210052fc:	e51b3010 	ldr	r3, [fp, #-16]
21005300:	e5933000 	ldr	r3, [r3]
21005304:	e2832080 	add	r2, r3, #128	; 0x80
21005308:	e51b3010 	ldr	r3, [fp, #-16]
2100530c:	e5933000 	ldr	r3, [r3]
21005310:	e2833080 	add	r3, r3, #128	; 0x80
21005314:	e5933000 	ldr	r3, [r3]
21005318:	e3833201 	orr	r3, r3, #268435456	; 0x10000000
2100531c:	e3833c05 	orr	r3, r3, #1280	; 0x500
21005320:	e5823000 	str	r3, [r2]
21005324:	e3a03001 	mov	r3, #1
21005328:	e1a00003 	mov	r0, r3
2100532c:	e24bd004 	sub	sp, fp, #4
21005330:	e8bd8800 	pop	{fp, pc}
21005334:	210386d8 	.word	0x210386d8
21005338:	2103871c 	.word	0x2103871c
2100533c:	21004720 	.word	0x21004720
21005340:	e02001a0 	.word	0xe02001a0
21005344:	02222222 	.word	0x02222222
21005348:	e02001a8 	.word	0xe02001a8
2100534c:	21007bdc 	.word	0x21007bdc
21005350:	21007bf8 	.word	0x21007bf8
21005354:	017d7840 	.word	0x017d7840
21005358:	21007c10 	.word	0x21007c10
2100535c:	01312d00 	.word	0x01312d00

21005360 <SDHC_SetSDOCR>:
21005360:	e92d4800 	push	{fp, lr}
21005364:	e28db004 	add	fp, sp, #4
21005368:	e24dd018 	sub	sp, sp, #24
2100536c:	e50b0010 	str	r0, [fp, #-16]
21005370:	e3a03000 	mov	r3, #0
21005374:	e58d3000 	str	r3, [sp]
21005378:	e51b0010 	ldr	r0, [fp, #-16]
2100537c:	e3a01000 	mov	r1, #0
21005380:	e3a02000 	mov	r2, #0
21005384:	e3a03000 	mov	r3, #0
21005388:	eb000112 	bl	210057d8 <SDHC_IssueCommand>
2100538c:	e1a03000 	mov	r3, r0
21005390:	e3530000 	cmp	r3, #0
21005394:	1a000001 	bne	210053a0 <SDHC_SetSDOCR+0x40>
21005398:	e3a03000 	mov	r3, #0
2100539c:	ea000037 	b	21005480 <SDHC_SetSDOCR+0x120>
210053a0:	e3a03000 	mov	r3, #0
210053a4:	e50b3008 	str	r3, [fp, #-8]
210053a8:	ea00002d 	b	21005464 <SDHC_SetSDOCR+0x104>
210053ac:	e3a03001 	mov	r3, #1
210053b0:	e58d3000 	str	r3, [sp]
210053b4:	e51b0010 	ldr	r0, [fp, #-16]
210053b8:	e3a01037 	mov	r1, #55	; 0x37
210053bc:	e3a02000 	mov	r2, #0
210053c0:	e3a03002 	mov	r3, #2
210053c4:	eb000103 	bl	210057d8 <SDHC_IssueCommand>
210053c8:	e3a03004 	mov	r3, #4
210053cc:	e58d3000 	str	r3, [sp]
210053d0:	e51b0010 	ldr	r0, [fp, #-16]
210053d4:	e3a01029 	mov	r1, #41	; 0x29
210053d8:	e59f20ac 	ldr	r2, [pc, #172]	; 2100548c <SDHC_SetSDOCR+0x12c>
210053dc:	e3a03001 	mov	r3, #1
210053e0:	eb0000fc 	bl	210057d8 <SDHC_IssueCommand>
210053e4:	e51b3010 	ldr	r3, [fp, #-16]
210053e8:	e5933000 	ldr	r3, [r3]
210053ec:	e2833010 	add	r3, r3, #16
210053f0:	e5933000 	ldr	r3, [r3]
210053f4:	e3530000 	cmp	r3, #0
210053f8:	aa000016 	bge	21005458 <SDHC_SetSDOCR+0xf8>
210053fc:	e51b3010 	ldr	r3, [fp, #-16]
21005400:	e5933000 	ldr	r3, [r3]
21005404:	e2833010 	add	r3, r3, #16
21005408:	e5933000 	ldr	r3, [r3]
2100540c:	e50b300c 	str	r3, [fp, #-12]
21005410:	e51b300c 	ldr	r3, [fp, #-12]
21005414:	e2033101 	and	r3, r3, #1073741824	; 0x40000000
21005418:	e3530000 	cmp	r3, #0
2100541c:	0a000003 	beq	21005430 <SDHC_SetSDOCR+0xd0>
21005420:	e51b3010 	ldr	r3, [fp, #-16]
21005424:	e3a02001 	mov	r2, #1
21005428:	e583200c 	str	r2, [r3, #12]
2100542c:	ea000002 	b	2100543c <SDHC_SetSDOCR+0xdc>
21005430:	e51b3010 	ldr	r3, [fp, #-16]
21005434:	e3a02000 	mov	r2, #0
21005438:	e583200c 	str	r2, [r3, #12]
2100543c:	e51b0010 	ldr	r0, [fp, #-16]
21005440:	eb0000c4 	bl	21005758 <SDHC_ClearErrInterruptStatus>
21005444:	e51b3010 	ldr	r3, [fp, #-16]
21005448:	e3a02000 	mov	r2, #0
2100544c:	e5832008 	str	r2, [r3, #8]
21005450:	e3a03001 	mov	r3, #1
21005454:	ea000009 	b	21005480 <SDHC_SetSDOCR+0x120>
21005458:	e51b3008 	ldr	r3, [fp, #-8]
2100545c:	e2833001 	add	r3, r3, #1
21005460:	e50b3008 	str	r3, [fp, #-8]
21005464:	e51b2008 	ldr	r2, [fp, #-8]
21005468:	e59f3020 	ldr	r3, [pc, #32]	; 21005490 <SDHC_SetSDOCR+0x130>
2100546c:	e1520003 	cmp	r2, r3
21005470:	9affffcd 	bls	210053ac <SDHC_SetSDOCR+0x4c>
21005474:	e51b0010 	ldr	r0, [fp, #-16]
21005478:	eb0000b6 	bl	21005758 <SDHC_ClearErrInterruptStatus>
2100547c:	e3a03000 	mov	r3, #0
21005480:	e1a00003 	mov	r0, r3
21005484:	e24bd004 	sub	sp, fp, #4
21005488:	e8bd8800 	pop	{fp, pc}
2100548c:	40ff8000 	.word	0x40ff8000
21005490:	000001f3 	.word	0x000001f3

21005494 <SDHC_GetSdScr>:
21005494:	e92d4800 	push	{fp, lr}
21005498:	e28db004 	add	fp, sp, #4
2100549c:	e24dd020 	sub	sp, sp, #32
210054a0:	e50b0018 	str	r0, [fp, #-24]
210054a4:	e3a03000 	mov	r3, #0
210054a8:	e50b3008 	str	r3, [fp, #-8]
210054ac:	e3a03001 	mov	r3, #1
210054b0:	e58d3000 	str	r3, [sp]
210054b4:	e51b0018 	ldr	r0, [fp, #-24]
210054b8:	e3a01010 	mov	r1, #16
210054bc:	e3a02008 	mov	r2, #8
210054c0:	e3a03002 	mov	r3, #2
210054c4:	eb0000c3 	bl	210057d8 <SDHC_IssueCommand>
210054c8:	e1a03000 	mov	r3, r0
210054cc:	e3530000 	cmp	r3, #0
210054d0:	1a000001 	bne	210054dc <SDHC_GetSdScr+0x48>
210054d4:	e3a03000 	mov	r3, #0
210054d8:	ea000071 	b	210056a4 <SDHC_GetSdScr+0x210>
210054dc:	e51b3018 	ldr	r3, [fp, #-24]
210054e0:	e5933000 	ldr	r3, [r3]
210054e4:	e2833004 	add	r3, r3, #4
210054e8:	e59f21c0 	ldr	r2, [pc, #448]	; 210056b0 <SDHC_GetSdScr+0x21c>
210054ec:	e1c320b0 	strh	r2, [r3]
210054f0:	e51b3018 	ldr	r3, [fp, #-24]
210054f4:	e5933000 	ldr	r3, [r3]
210054f8:	e2833006 	add	r3, r3, #6
210054fc:	e3a02001 	mov	r2, #1
21005500:	e1c320b0 	strh	r2, [r3]
21005504:	e3a03000 	mov	r3, #0
21005508:	e58d3000 	str	r3, [sp]
2100550c:	e51b3018 	ldr	r3, [fp, #-24]
21005510:	e58d3004 	str	r3, [sp, #4]
21005514:	e3a00000 	mov	r0, #0
21005518:	e3a01001 	mov	r1, #1
2100551c:	e3a02000 	mov	r2, #0
21005520:	e3a03000 	mov	r3, #0
21005524:	eb000405 	bl	21006540 <SDHC_SetTransferModeReg>
21005528:	e51b3018 	ldr	r3, [fp, #-24]
2100552c:	e3a02001 	mov	r2, #1
21005530:	e1c322b2 	strh	r2, [r3, #34]	; 0x22
21005534:	e51b3018 	ldr	r3, [fp, #-24]
21005538:	e24b2010 	sub	r2, fp, #16
2100553c:	e5832028 	str	r2, [r3, #40]	; 0x28
21005540:	e51b3018 	ldr	r3, [fp, #-24]
21005544:	e1d331bc 	ldrh	r3, [r3, #28]
21005548:	e1a03803 	lsl	r3, r3, #16
2100554c:	e3a02001 	mov	r2, #1
21005550:	e58d2000 	str	r2, [sp]
21005554:	e51b0018 	ldr	r0, [fp, #-24]
21005558:	e3a01037 	mov	r1, #55	; 0x37
2100555c:	e1a02003 	mov	r2, r3
21005560:	e3a03002 	mov	r3, #2
21005564:	eb00009b 	bl	210057d8 <SDHC_IssueCommand>
21005568:	e1a03000 	mov	r3, r0
2100556c:	e3530000 	cmp	r3, #0
21005570:	1a000001 	bne	2100557c <SDHC_GetSdScr+0xe8>
21005574:	e3a03000 	mov	r3, #0
21005578:	ea000049 	b	210056a4 <SDHC_GetSdScr+0x210>
2100557c:	e3a03001 	mov	r3, #1
21005580:	e58d3000 	str	r3, [sp]
21005584:	e51b0018 	ldr	r0, [fp, #-24]
21005588:	e3a01033 	mov	r1, #51	; 0x33
2100558c:	e3a02000 	mov	r2, #0
21005590:	e3a03003 	mov	r3, #3
21005594:	eb00008f 	bl	210057d8 <SDHC_IssueCommand>
21005598:	e1a03000 	mov	r3, r0
2100559c:	e3530000 	cmp	r3, #0
210055a0:	1a000001 	bne	210055ac <SDHC_GetSdScr+0x118>
210055a4:	e3a03000 	mov	r3, #0
210055a8:	ea00003d 	b	210056a4 <SDHC_GetSdScr+0x210>
210055ac:	e51b3018 	ldr	r3, [fp, #-24]
210055b0:	e5933028 	ldr	r3, [r3, #40]	; 0x28
210055b4:	e1a00003 	mov	r0, r3
210055b8:	eb000552 	bl	21006b08 <SDHC_ReadOneBlock>
210055bc:	e3a0347f 	mov	r3, #2130706432	; 0x7f000000
210055c0:	e50b3008 	str	r3, [fp, #-8]
210055c4:	ea000005 	b	210055e0 <SDHC_GetSdScr+0x14c>
210055c8:	e51b3008 	ldr	r3, [fp, #-8]
210055cc:	e2433001 	sub	r3, r3, #1
210055d0:	e50b3008 	str	r3, [fp, #-8]
210055d4:	e51b3008 	ldr	r3, [fp, #-8]
210055d8:	e3530000 	cmp	r3, #0
210055dc:	0a000007 	beq	21005600 <SDHC_GetSdScr+0x16c>
210055e0:	e51b3018 	ldr	r3, [fp, #-24]
210055e4:	e5933000 	ldr	r3, [r3]
210055e8:	e2833030 	add	r3, r3, #48	; 0x30
210055ec:	e1d330b0 	ldrh	r3, [r3]
210055f0:	e6ff3073 	uxth	r3, r3
210055f4:	e2033002 	and	r3, r3, #2
210055f8:	e3530000 	cmp	r3, #0
210055fc:	0afffff1 	beq	210055c8 <SDHC_GetSdScr+0x134>
21005600:	e51b3018 	ldr	r3, [fp, #-24]
21005604:	e5933000 	ldr	r3, [r3]
21005608:	e2833030 	add	r3, r3, #48	; 0x30
2100560c:	e3a02002 	mov	r2, #2
21005610:	e1c320b0 	strh	r2, [r3]
21005614:	e51b3018 	ldr	r3, [fp, #-24]
21005618:	e5933000 	ldr	r3, [r3]
2100561c:	e2833030 	add	r3, r3, #48	; 0x30
21005620:	e1d330b0 	ldrh	r3, [r3]
21005624:	e6ff3073 	uxth	r3, r3
21005628:	e2033002 	and	r3, r3, #2
2100562c:	e3530000 	cmp	r3, #0
21005630:	1afffff2 	bne	21005600 <SDHC_GetSdScr+0x16c>
21005634:	e51b3010 	ldr	r3, [fp, #-16]
21005638:	e203300f 	and	r3, r3, #15
2100563c:	e3530000 	cmp	r3, #0
21005640:	1a000003 	bne	21005654 <SDHC_GetSdScr+0x1c0>
21005644:	e51b3018 	ldr	r3, [fp, #-24]
21005648:	e3a02000 	mov	r2, #0
2100564c:	e5c32025 	strb	r2, [r3, #37]	; 0x25
21005650:	ea000012 	b	210056a0 <SDHC_GetSdScr+0x20c>
21005654:	e51b3010 	ldr	r3, [fp, #-16]
21005658:	e203300f 	and	r3, r3, #15
2100565c:	e3530001 	cmp	r3, #1
21005660:	1a000003 	bne	21005674 <SDHC_GetSdScr+0x1e0>
21005664:	e51b3018 	ldr	r3, [fp, #-24]
21005668:	e3a02001 	mov	r2, #1
2100566c:	e5c32025 	strb	r2, [r3, #37]	; 0x25
21005670:	ea00000a 	b	210056a0 <SDHC_GetSdScr+0x20c>
21005674:	e51b3010 	ldr	r3, [fp, #-16]
21005678:	e203300f 	and	r3, r3, #15
2100567c:	e3530002 	cmp	r3, #2
21005680:	1a000003 	bne	21005694 <SDHC_GetSdScr+0x200>
21005684:	e51b3018 	ldr	r3, [fp, #-24]
21005688:	e3a02002 	mov	r2, #2
2100568c:	e5c32025 	strb	r2, [r3, #37]	; 0x25
21005690:	ea000002 	b	210056a0 <SDHC_GetSdScr+0x20c>
21005694:	e51b3018 	ldr	r3, [fp, #-24]
21005698:	e3a02000 	mov	r2, #0
2100569c:	e5c32025 	strb	r2, [r3, #37]	; 0x25
210056a0:	e3a03001 	mov	r3, #1
210056a4:	e1a00003 	mov	r0, r3
210056a8:	e24bd004 	sub	sp, fp, #4
210056ac:	e8bd8800 	pop	{fp, pc}
210056b0:	00007008 	.word	0x00007008

210056b4 <SDHC_ResetController>:
210056b4:	e52db004 	push	{fp}		; (str fp, [sp, #-4]!)
210056b8:	e28db000 	add	fp, sp, #0
210056bc:	e24dd00c 	sub	sp, sp, #12
210056c0:	e50b0008 	str	r0, [fp, #-8]
210056c4:	e51b3008 	ldr	r3, [fp, #-8]
210056c8:	e5933000 	ldr	r3, [r3]
210056cc:	e283302f 	add	r3, r3, #47	; 0x2f
210056d0:	e3a02003 	mov	r2, #3
210056d4:	e5c32000 	strb	r2, [r3]
210056d8:	e28bd000 	add	sp, fp, #0
210056dc:	e8bd0800 	pop	{fp}
210056e0:	e12fff1e 	bx	lr

210056e4 <SDHC_SetSdhcCardIntEnable>:
210056e4:	e52db004 	push	{fp}		; (str fp, [sp, #-4]!)
210056e8:	e28db000 	add	fp, sp, #0
210056ec:	e24dd014 	sub	sp, sp, #20
210056f0:	e1a03000 	mov	r3, r0
210056f4:	e50b1014 	str	r1, [fp, #-20]
210056f8:	e54b300d 	strb	r3, [fp, #-13]
210056fc:	e51b3014 	ldr	r3, [fp, #-20]
21005700:	e5933000 	ldr	r3, [r3]
21005704:	e2833034 	add	r3, r3, #52	; 0x34
21005708:	e1d330b0 	ldrh	r3, [r3]
2100570c:	e14b30b6 	strh	r3, [fp, #-6]
21005710:	e15b30b6 	ldrh	r3, [fp, #-6]
21005714:	e3c33c01 	bic	r3, r3, #256	; 0x100
21005718:	e14b30b6 	strh	r3, [fp, #-6]
2100571c:	e55b300d 	ldrb	r3, [fp, #-13]
21005720:	e1a03403 	lsl	r3, r3, #8
21005724:	e6ff2073 	uxth	r2, r3
21005728:	e15b30b6 	ldrh	r3, [fp, #-6]
2100572c:	e1823003 	orr	r3, r2, r3
21005730:	e6ff3073 	uxth	r3, r3
21005734:	e14b30b6 	strh	r3, [fp, #-6]
21005738:	e51b3014 	ldr	r3, [fp, #-20]
2100573c:	e5933000 	ldr	r3, [r3]
21005740:	e2833034 	add	r3, r3, #52	; 0x34
21005744:	e15b20b6 	ldrh	r2, [fp, #-6]
21005748:	e1c320b0 	strh	r2, [r3]
2100574c:	e28bd000 	add	sp, fp, #0
21005750:	e8bd0800 	pop	{fp}
21005754:	e12fff1e 	bx	lr

21005758 <SDHC_ClearErrInterruptStatus>:
21005758:	e52db004 	push	{fp}		; (str fp, [sp, #-4]!)
2100575c:	e28db000 	add	fp, sp, #0
21005760:	e24dd014 	sub	sp, sp, #20
21005764:	e50b0010 	str	r0, [fp, #-16]
21005768:	e51b3010 	ldr	r3, [fp, #-16]
2100576c:	e5933000 	ldr	r3, [r3]
21005770:	e2833030 	add	r3, r3, #48	; 0x30
21005774:	e1d330b0 	ldrh	r3, [r3]
21005778:	e14b30b6 	strh	r3, [fp, #-6]
2100577c:	ea00000e 	b	210057bc <SDHC_ClearErrInterruptStatus+0x64>
21005780:	e51b3010 	ldr	r3, [fp, #-16]
21005784:	e5933000 	ldr	r3, [r3]
21005788:	e2833032 	add	r3, r3, #50	; 0x32
2100578c:	e1d330b0 	ldrh	r3, [r3]
21005790:	e14b30b8 	strh	r3, [fp, #-8]
21005794:	e51b3010 	ldr	r3, [fp, #-16]
21005798:	e5933000 	ldr	r3, [r3]
2100579c:	e2833032 	add	r3, r3, #50	; 0x32
210057a0:	e15b20b8 	ldrh	r2, [fp, #-8]
210057a4:	e1c320b0 	strh	r2, [r3]
210057a8:	e51b3010 	ldr	r3, [fp, #-16]
210057ac:	e5933000 	ldr	r3, [r3]
210057b0:	e2833030 	add	r3, r3, #48	; 0x30
210057b4:	e1d330b0 	ldrh	r3, [r3]
210057b8:	e14b30b6 	strh	r3, [fp, #-6]
210057bc:	e15b30b6 	ldrh	r3, [fp, #-6]
210057c0:	e6bf3073 	sxth	r3, r3
210057c4:	e3530000 	cmp	r3, #0
210057c8:	baffffec 	blt	21005780 <SDHC_ClearErrInterruptStatus+0x28>
210057cc:	e28bd000 	add	sp, fp, #0
210057d0:	e8bd0800 	pop	{fp}
210057d4:	e12fff1e 	bx	lr

210057d8 <SDHC_IssueCommand>:
210057d8:	e52db004 	push	{fp}		; (str fp, [sp, #-4]!)
210057dc:	e28db000 	add	fp, sp, #0
210057e0:	e24dd01c 	sub	sp, sp, #28
210057e4:	e50b0010 	str	r0, [fp, #-16]
210057e8:	e50b2018 	str	r2, [fp, #-24]
210057ec:	e50b301c 	str	r3, [fp, #-28]
210057f0:	e14b11b2 	strh	r1, [fp, #-18]	; 0xffffffee
210057f4:	e1a00000 	nop			; (mov r0, r0)
210057f8:	e51b3010 	ldr	r3, [fp, #-16]
210057fc:	e5933000 	ldr	r3, [r3]
21005800:	e2833024 	add	r3, r3, #36	; 0x24
21005804:	e5933000 	ldr	r3, [r3]
21005808:	e2033001 	and	r3, r3, #1
2100580c:	e6ef3073 	uxtb	r3, r3
21005810:	e3530000 	cmp	r3, #0
21005814:	1afffff7 	bne	210057f8 <SDHC_IssueCommand+0x20>
21005818:	e15b31b2 	ldrh	r3, [fp, #-18]	; 0xffffffee
2100581c:	e1a03403 	lsl	r3, r3, #8
21005820:	e6ff2073 	uxth	r2, r3
21005824:	e59f119c 	ldr	r1, [pc, #412]	; 210059c8 <SDHC_IssueCommand+0x1f0>
21005828:	e59b3004 	ldr	r3, [fp, #4]
2100582c:	e0813003 	add	r3, r1, r3
21005830:	e5d33000 	ldrb	r3, [r3]
21005834:	e1823003 	orr	r3, r2, r3
21005838:	e6ff3073 	uxth	r3, r3
2100583c:	e14b30b6 	strh	r3, [fp, #-6]
21005840:	e51b301c 	ldr	r3, [fp, #-28]
21005844:	e3530003 	cmp	r3, #3
21005848:	1a000002 	bne	21005858 <SDHC_IssueCommand+0x80>
2100584c:	e15b30b6 	ldrh	r3, [fp, #-6]
21005850:	e3833020 	orr	r3, r3, #32
21005854:	e14b30b6 	strh	r3, [fp, #-6]
21005858:	e15b31b2 	ldrh	r3, [fp, #-18]	; 0xffffffee
2100585c:	e353000c 	cmp	r3, #12
21005860:	1a000002 	bne	21005870 <SDHC_IssueCommand+0x98>
21005864:	e15b30b6 	ldrh	r3, [fp, #-6]
21005868:	e38330c0 	orr	r3, r3, #192	; 0xc0
2100586c:	e14b30b6 	strh	r3, [fp, #-6]
21005870:	e51b3010 	ldr	r3, [fp, #-16]
21005874:	e5933000 	ldr	r3, [r3]
21005878:	e2833008 	add	r3, r3, #8
2100587c:	e51b2018 	ldr	r2, [fp, #-24]
21005880:	e5832000 	str	r2, [r3]
21005884:	e51b3010 	ldr	r3, [fp, #-16]
21005888:	e5933000 	ldr	r3, [r3]
2100588c:	e283300e 	add	r3, r3, #14
21005890:	e15b20b6 	ldrh	r2, [fp, #-6]
21005894:	e1c320b0 	strh	r2, [r3]
21005898:	e3a0347f 	mov	r3, #2130706432	; 0x7f000000
2100589c:	e50b300c 	str	r3, [fp, #-12]
210058a0:	ea000005 	b	210058bc <SDHC_IssueCommand+0xe4>
210058a4:	e51b300c 	ldr	r3, [fp, #-12]
210058a8:	e2433001 	sub	r3, r3, #1
210058ac:	e50b300c 	str	r3, [fp, #-12]
210058b0:	e51b300c 	ldr	r3, [fp, #-12]
210058b4:	e3530000 	cmp	r3, #0
210058b8:	0a000007 	beq	210058dc <SDHC_IssueCommand+0x104>
210058bc:	e51b3010 	ldr	r3, [fp, #-16]
210058c0:	e5933000 	ldr	r3, [r3]
210058c4:	e2833030 	add	r3, r3, #48	; 0x30
210058c8:	e1d330b0 	ldrh	r3, [r3]
210058cc:	e6ff3073 	uxth	r3, r3
210058d0:	e2033001 	and	r3, r3, #1
210058d4:	e3530000 	cmp	r3, #0
210058d8:	0afffff1 	beq	210058a4 <SDHC_IssueCommand+0xcc>
210058dc:	e51b3010 	ldr	r3, [fp, #-16]
210058e0:	e5933000 	ldr	r3, [r3]
210058e4:	e2833030 	add	r3, r3, #48	; 0x30
210058e8:	e3a02001 	mov	r2, #1
210058ec:	e1c320b0 	strh	r2, [r3]
210058f0:	e51b3010 	ldr	r3, [fp, #-16]
210058f4:	e5933000 	ldr	r3, [r3]
210058f8:	e2833030 	add	r3, r3, #48	; 0x30
210058fc:	e1d330b0 	ldrh	r3, [r3]
21005900:	e6ff3073 	uxth	r3, r3
21005904:	e2033001 	and	r3, r3, #1
21005908:	e6ef3073 	uxtb	r3, r3
2100590c:	e3530000 	cmp	r3, #0
21005910:	1afffff1 	bne	210058dc <SDHC_IssueCommand+0x104>
21005914:	e51b3010 	ldr	r3, [fp, #-16]
21005918:	e5933000 	ldr	r3, [r3]
2100591c:	e2833030 	add	r3, r3, #48	; 0x30
21005920:	e1d330b0 	ldrh	r3, [r3]
21005924:	e6ff3073 	uxth	r3, r3
21005928:	e6ff3073 	uxth	r3, r3
2100592c:	e6bf3073 	sxth	r3, r3
21005930:	e3530000 	cmp	r3, #0
21005934:	aa000013 	bge	21005988 <SDHC_IssueCommand+0x1b0>
21005938:	e15b31b2 	ldrh	r3, [fp, #-18]	; 0xffffffee
2100593c:	e3530001 	cmp	r3, #1
21005940:	0a000010 	beq	21005988 <SDHC_IssueCommand+0x1b0>
21005944:	e15b31b2 	ldrh	r3, [fp, #-18]	; 0xffffffee
21005948:	e3530037 	cmp	r3, #55	; 0x37
2100594c:	0a00000d 	beq	21005988 <SDHC_IssueCommand+0x1b0>
21005950:	e15b31b2 	ldrh	r3, [fp, #-18]	; 0xffffffee
21005954:	e3530029 	cmp	r3, #41	; 0x29
21005958:	0a00000a 	beq	21005988 <SDHC_IssueCommand+0x1b0>
2100595c:	e51b3010 	ldr	r3, [fp, #-16]
21005960:	e5933000 	ldr	r3, [r3]
21005964:	e2833032 	add	r3, r3, #50	; 0x32
21005968:	e51b2010 	ldr	r2, [fp, #-16]
2100596c:	e5922000 	ldr	r2, [r2]
21005970:	e2822032 	add	r2, r2, #50	; 0x32
21005974:	e1d220b0 	ldrh	r2, [r2]
21005978:	e6ff2072 	uxth	r2, r2
2100597c:	e1c320b0 	strh	r2, [r3]
21005980:	e3a03000 	mov	r3, #0
21005984:	ea00000b 	b	210059b8 <SDHC_IssueCommand+0x1e0>
21005988:	e59b3004 	ldr	r3, [fp, #4]
2100598c:	e3530002 	cmp	r3, #2
21005990:	1a000007 	bne	210059b4 <SDHC_IssueCommand+0x1dc>
21005994:	e1a00000 	nop			; (mov r0, r0)
21005998:	e51b3010 	ldr	r3, [fp, #-16]
2100599c:	e5933000 	ldr	r3, [r3]
210059a0:	e2833024 	add	r3, r3, #36	; 0x24
210059a4:	e5933000 	ldr	r3, [r3]
210059a8:	e2033002 	and	r3, r3, #2
210059ac:	e3530000 	cmp	r3, #0
210059b0:	1afffff8 	bne	21005998 <SDHC_IssueCommand+0x1c0>
210059b4:	e3a03001 	mov	r3, #1
210059b8:	e1a00003 	mov	r0, r3
210059bc:	e28bd000 	add	sp, fp, #0
210059c0:	e8bd0800 	pop	{fp}
210059c4:	e12fff1e 	bx	lr
210059c8:	21007bb8 	.word	0x21007bb8

210059cc <SDHC_WriteOneBlock>:
210059cc:	e52db004 	push	{fp}		; (str fp, [sp, #-4]!)
210059d0:	e28db000 	add	fp, sp, #0
210059d4:	e24dd01c 	sub	sp, sp, #28
210059d8:	e50b0018 	str	r0, [fp, #-24]
210059dc:	e59f3128 	ldr	r3, [pc, #296]	; 21005b0c <SDHC_WriteOneBlock+0x140>
210059e0:	e50b3010 	str	r3, [fp, #-16]
210059e4:	e51b3018 	ldr	r3, [fp, #-24]
210059e8:	e50b3008 	str	r3, [fp, #-8]
210059ec:	e51b3010 	ldr	r3, [fp, #-16]
210059f0:	e5933000 	ldr	r3, [r3]
210059f4:	e2833004 	add	r3, r3, #4
210059f8:	e1d330b0 	ldrh	r3, [r3]
210059fc:	e6ff3073 	uxth	r3, r3
21005a00:	e1a03a03 	lsl	r3, r3, #20
21005a04:	e1a03a23 	lsr	r3, r3, #20
21005a08:	e50b3014 	str	r3, [fp, #-20]
21005a0c:	e3a0347f 	mov	r3, #2130706432	; 0x7f000000
21005a10:	e50b300c 	str	r3, [fp, #-12]
21005a14:	ea000005 	b	21005a30 <SDHC_WriteOneBlock+0x64>
21005a18:	e51b300c 	ldr	r3, [fp, #-12]
21005a1c:	e2433001 	sub	r3, r3, #1
21005a20:	e50b300c 	str	r3, [fp, #-12]
21005a24:	e51b300c 	ldr	r3, [fp, #-12]
21005a28:	e3530000 	cmp	r3, #0
21005a2c:	0a000007 	beq	21005a50 <SDHC_WriteOneBlock+0x84>
21005a30:	e51b3010 	ldr	r3, [fp, #-16]
21005a34:	e5933000 	ldr	r3, [r3]
21005a38:	e2833030 	add	r3, r3, #48	; 0x30
21005a3c:	e1d330b0 	ldrh	r3, [r3]
21005a40:	e6ff3073 	uxth	r3, r3
21005a44:	e2033010 	and	r3, r3, #16
21005a48:	e3530000 	cmp	r3, #0
21005a4c:	0afffff1 	beq	21005a18 <SDHC_WriteOneBlock+0x4c>
21005a50:	e51b3010 	ldr	r3, [fp, #-16]
21005a54:	e5933000 	ldr	r3, [r3]
21005a58:	e2833030 	add	r3, r3, #48	; 0x30
21005a5c:	e3a02010 	mov	r2, #16
21005a60:	e1c320b0 	strh	r2, [r3]
21005a64:	e51b3010 	ldr	r3, [fp, #-16]
21005a68:	e5933000 	ldr	r3, [r3]
21005a6c:	e2833030 	add	r3, r3, #48	; 0x30
21005a70:	e1d330b0 	ldrh	r3, [r3]
21005a74:	e6ff3073 	uxth	r3, r3
21005a78:	e2033010 	and	r3, r3, #16
21005a7c:	e3530000 	cmp	r3, #0
21005a80:	1afffff2 	bne	21005a50 <SDHC_WriteOneBlock+0x84>
21005a84:	e51b3014 	ldr	r3, [fp, #-20]
21005a88:	e2833003 	add	r3, r3, #3
21005a8c:	e1a03143 	asr	r3, r3, #2
21005a90:	e50b3014 	str	r3, [fp, #-20]
21005a94:	e51b3014 	ldr	r3, [fp, #-20]
21005a98:	e50b300c 	str	r3, [fp, #-12]
21005a9c:	ea00000b 	b	21005ad0 <SDHC_WriteOneBlock+0x104>
21005aa0:	e51b3010 	ldr	r3, [fp, #-16]
21005aa4:	e5933000 	ldr	r3, [r3]
21005aa8:	e2833020 	add	r3, r3, #32
21005aac:	e51b2008 	ldr	r2, [fp, #-8]
21005ab0:	e5922000 	ldr	r2, [r2]
21005ab4:	e5832000 	str	r2, [r3]
21005ab8:	e51b3008 	ldr	r3, [fp, #-8]
21005abc:	e2833004 	add	r3, r3, #4
21005ac0:	e50b3008 	str	r3, [fp, #-8]
21005ac4:	e51b300c 	ldr	r3, [fp, #-12]
21005ac8:	e2433001 	sub	r3, r3, #1
21005acc:	e50b300c 	str	r3, [fp, #-12]
21005ad0:	e51b300c 	ldr	r3, [fp, #-12]
21005ad4:	e3530000 	cmp	r3, #0
21005ad8:	cafffff0 	bgt	21005aa0 <SDHC_WriteOneBlock+0xd4>
21005adc:	e51b3010 	ldr	r3, [fp, #-16]
21005ae0:	e1d332b2 	ldrh	r3, [r3, #34]	; 0x22
21005ae4:	e2433001 	sub	r3, r3, #1
21005ae8:	e6ff2073 	uxth	r2, r3
21005aec:	e51b3010 	ldr	r3, [fp, #-16]
21005af0:	e1c322b2 	strh	r2, [r3, #34]	; 0x22
21005af4:	e51b3010 	ldr	r3, [fp, #-16]
21005af8:	e51b2008 	ldr	r2, [fp, #-8]
21005afc:	e5832028 	str	r2, [r3, #40]	; 0x28
21005b00:	e28bd000 	add	sp, fp, #0
21005b04:	e8bd0800 	pop	{fp}
21005b08:	e12fff1e 	bx	lr
21005b0c:	210386d8 	.word	0x210386d8

21005b10 <SDHC_ReadBlocks>:
21005b10:	e92d4800 	push	{fp, lr}
21005b14:	e28db004 	add	fp, sp, #4
21005b18:	e24dd020 	sub	sp, sp, #32
21005b1c:	e50b0010 	str	r0, [fp, #-16]
21005b20:	e1a03001 	mov	r3, r1
21005b24:	e50b2018 	str	r2, [fp, #-24]
21005b28:	e14b31b2 	strh	r3, [fp, #-18]	; 0xffffffee
21005b2c:	e59f32bc 	ldr	r3, [pc, #700]	; 21005df0 <SDHC_ReadBlocks+0x2e0>
21005b30:	e50b300c 	str	r3, [fp, #-12]
21005b34:	e15b31b2 	ldrh	r3, [fp, #-18]	; 0xffffffee
21005b38:	e59f02b4 	ldr	r0, [pc, #692]	; 21005df4 <SDHC_ReadBlocks+0x2e4>
21005b3c:	e51b1010 	ldr	r1, [fp, #-16]
21005b40:	e1a02003 	mov	r2, r3
21005b44:	ebfffaec 	bl	210046fc <debug>
21005b48:	e51b300c 	ldr	r3, [fp, #-12]
21005b4c:	e593300c 	ldr	r3, [r3, #12]
21005b50:	e3530000 	cmp	r3, #0
21005b54:	1a000002 	bne	21005b64 <SDHC_ReadBlocks+0x54>
21005b58:	e51b3010 	ldr	r3, [fp, #-16]
21005b5c:	e1a03483 	lsl	r3, r3, #9
21005b60:	e50b3010 	str	r3, [fp, #-16]
21005b64:	e51b300c 	ldr	r3, [fp, #-12]
21005b68:	e15b21b2 	ldrh	r2, [fp, #-18]	; 0xffffffee
21005b6c:	e1c322b2 	strh	r2, [r3, #34]	; 0x22
21005b70:	e51b2018 	ldr	r2, [fp, #-24]
21005b74:	e51b300c 	ldr	r3, [fp, #-12]
21005b78:	e5832028 	str	r2, [r3, #40]	; 0x28
21005b7c:	e51b000c 	ldr	r0, [fp, #-12]
21005b80:	eb00038b 	bl	210069b4 <SDHC_WaitForCard2TransferState>
21005b84:	e1a03000 	mov	r3, r0
21005b88:	e3530000 	cmp	r3, #0
21005b8c:	1a000001 	bne	21005b98 <SDHC_ReadBlocks+0x88>
21005b90:	e3a03003 	mov	r3, #3
21005b94:	ea000092 	b	21005de4 <SDHC_ReadBlocks+0x2d4>
21005b98:	e51b300c 	ldr	r3, [fp, #-12]
21005b9c:	e5933000 	ldr	r3, [r3]
21005ba0:	e2833004 	add	r3, r3, #4
21005ba4:	e3a02c72 	mov	r2, #29184	; 0x7200
21005ba8:	e1c320b0 	strh	r2, [r3]
21005bac:	e51b300c 	ldr	r3, [fp, #-12]
21005bb0:	e5933000 	ldr	r3, [r3]
21005bb4:	e2833006 	add	r3, r3, #6
21005bb8:	e15b21b2 	ldrh	r2, [fp, #-18]	; 0xffffffee
21005bbc:	e1c320b0 	strh	r2, [r3]
21005bc0:	e51b300c 	ldr	r3, [fp, #-12]
21005bc4:	e5933004 	ldr	r3, [r3, #4]
21005bc8:	e3530002 	cmp	r3, #2
21005bcc:	1a000015 	bne	21005c28 <SDHC_ReadBlocks+0x118>
21005bd0:	e51b300c 	ldr	r3, [fp, #-12]
21005bd4:	e5933000 	ldr	r3, [r3]
21005bd8:	e51b2018 	ldr	r2, [fp, #-24]
21005bdc:	e5832000 	str	r2, [r3]
21005be0:	e15b31b2 	ldrh	r3, [fp, #-18]	; 0xffffffee
21005be4:	e3530001 	cmp	r3, #1
21005be8:	03a02000 	moveq	r2, #0
21005bec:	13a02001 	movne	r2, #1
21005bf0:	e15b31b2 	ldrh	r3, [fp, #-18]	; 0xffffffee
21005bf4:	e3530001 	cmp	r3, #1
21005bf8:	03a03000 	moveq	r3, #0
21005bfc:	13a03001 	movne	r3, #1
21005c00:	e3a01001 	mov	r1, #1
21005c04:	e58d1000 	str	r1, [sp]
21005c08:	e51b100c 	ldr	r1, [fp, #-12]
21005c0c:	e58d1004 	str	r1, [sp, #4]
21005c10:	e1a00002 	mov	r0, r2
21005c14:	e3a01001 	mov	r1, #1
21005c18:	e1a02003 	mov	r2, r3
21005c1c:	e3a03001 	mov	r3, #1
21005c20:	eb000246 	bl	21006540 <SDHC_SetTransferModeReg>
21005c24:	ea000010 	b	21005c6c <SDHC_ReadBlocks+0x15c>
21005c28:	e15b31b2 	ldrh	r3, [fp, #-18]	; 0xffffffee
21005c2c:	e3530001 	cmp	r3, #1
21005c30:	03a02000 	moveq	r2, #0
21005c34:	13a02001 	movne	r2, #1
21005c38:	e15b31b2 	ldrh	r3, [fp, #-18]	; 0xffffffee
21005c3c:	e3530001 	cmp	r3, #1
21005c40:	03a03000 	moveq	r3, #0
21005c44:	13a03001 	movne	r3, #1
21005c48:	e3a01000 	mov	r1, #0
21005c4c:	e58d1000 	str	r1, [sp]
21005c50:	e51b100c 	ldr	r1, [fp, #-12]
21005c54:	e58d1004 	str	r1, [sp, #4]
21005c58:	e1a00002 	mov	r0, r2
21005c5c:	e3a01001 	mov	r1, #1
21005c60:	e1a02003 	mov	r2, r3
21005c64:	e3a03001 	mov	r3, #1
21005c68:	eb000234 	bl	21006540 <SDHC_SetTransferModeReg>
21005c6c:	e15b31b2 	ldrh	r3, [fp, #-18]	; 0xffffffee
21005c70:	e3530001 	cmp	r3, #1
21005c74:	1a00000b 	bne	21005ca8 <SDHC_ReadBlocks+0x198>
21005c78:	e3a03001 	mov	r3, #1
21005c7c:	e58d3000 	str	r3, [sp]
21005c80:	e51b000c 	ldr	r0, [fp, #-12]
21005c84:	e3a01011 	mov	r1, #17
21005c88:	e51b2010 	ldr	r2, [fp, #-16]
21005c8c:	e3a03003 	mov	r3, #3
21005c90:	ebfffed0 	bl	210057d8 <SDHC_IssueCommand>
21005c94:	e1a03000 	mov	r3, r0
21005c98:	e3530000 	cmp	r3, #0
21005c9c:	1a00000d 	bne	21005cd8 <SDHC_ReadBlocks+0x1c8>
21005ca0:	e3a03004 	mov	r3, #4
21005ca4:	ea00004e 	b	21005de4 <SDHC_ReadBlocks+0x2d4>
21005ca8:	e3a03001 	mov	r3, #1
21005cac:	e58d3000 	str	r3, [sp]
21005cb0:	e51b000c 	ldr	r0, [fp, #-12]
21005cb4:	e3a01012 	mov	r1, #18
21005cb8:	e51b2010 	ldr	r2, [fp, #-16]
21005cbc:	e3a03003 	mov	r3, #3
21005cc0:	ebfffec4 	bl	210057d8 <SDHC_IssueCommand>
21005cc4:	e1a03000 	mov	r3, r0
21005cc8:	e3530000 	cmp	r3, #0
21005ccc:	1a000001 	bne	21005cd8 <SDHC_ReadBlocks+0x1c8>
21005cd0:	e3a03005 	mov	r3, #5
21005cd4:	ea000042 	b	21005de4 <SDHC_ReadBlocks+0x2d4>
21005cd8:	e51b300c 	ldr	r3, [fp, #-12]
21005cdc:	e5933004 	ldr	r3, [r3, #4]
21005ce0:	e3530002 	cmp	r3, #2
21005ce4:	0a00001a 	beq	21005d54 <SDHC_ReadBlocks+0x244>
21005ce8:	e51b300c 	ldr	r3, [fp, #-12]
21005cec:	e5933004 	ldr	r3, [r3, #4]
21005cf0:	e3530003 	cmp	r3, #3
21005cf4:	0a000016 	beq	21005d54 <SDHC_ReadBlocks+0x244>
21005cf8:	e51b300c 	ldr	r3, [fp, #-12]
21005cfc:	e5933004 	ldr	r3, [r3, #4]
21005d00:	e3530000 	cmp	r3, #0
21005d04:	1a000009 	bne	21005d30 <SDHC_ReadBlocks+0x220>
21005d08:	ea000003 	b	21005d1c <SDHC_ReadBlocks+0x20c>
21005d0c:	e51b300c 	ldr	r3, [fp, #-12]
21005d10:	e5933028 	ldr	r3, [r3, #40]	; 0x28
21005d14:	e1a00003 	mov	r0, r3
21005d18:	eb00037a 	bl	21006b08 <SDHC_ReadOneBlock>
21005d1c:	e51b300c 	ldr	r3, [fp, #-12]
21005d20:	e1d332b2 	ldrh	r3, [r3, #34]	; 0x22
21005d24:	e3530000 	cmp	r3, #0
21005d28:	1afffff7 	bne	21005d0c <SDHC_ReadBlocks+0x1fc>
21005d2c:	ea000008 	b	21005d54 <SDHC_ReadBlocks+0x244>
21005d30:	e51b300c 	ldr	r3, [fp, #-12]
21005d34:	e5933004 	ldr	r3, [r3, #4]
21005d38:	e3530001 	cmp	r3, #1
21005d3c:	1a000004 	bne	21005d54 <SDHC_ReadBlocks+0x244>
21005d40:	e1a00000 	nop			; (mov r0, r0)
21005d44:	e51b300c 	ldr	r3, [fp, #-12]
21005d48:	e1d332b2 	ldrh	r3, [r3, #34]	; 0x22
21005d4c:	e3530000 	cmp	r3, #0
21005d50:	1afffffb 	bne	21005d44 <SDHC_ReadBlocks+0x234>
21005d54:	e3a0347f 	mov	r3, #2130706432	; 0x7f000000
21005d58:	e50b3008 	str	r3, [fp, #-8]
21005d5c:	ea000005 	b	21005d78 <SDHC_ReadBlocks+0x268>
21005d60:	e51b3008 	ldr	r3, [fp, #-8]
21005d64:	e2433001 	sub	r3, r3, #1
21005d68:	e50b3008 	str	r3, [fp, #-8]
21005d6c:	e51b3008 	ldr	r3, [fp, #-8]
21005d70:	e3530000 	cmp	r3, #0
21005d74:	0a000007 	beq	21005d98 <SDHC_ReadBlocks+0x288>
21005d78:	e51b300c 	ldr	r3, [fp, #-12]
21005d7c:	e5933000 	ldr	r3, [r3]
21005d80:	e2833030 	add	r3, r3, #48	; 0x30
21005d84:	e1d330b0 	ldrh	r3, [r3]
21005d88:	e6ff3073 	uxth	r3, r3
21005d8c:	e2033002 	and	r3, r3, #2
21005d90:	e3530000 	cmp	r3, #0
21005d94:	0afffff1 	beq	21005d60 <SDHC_ReadBlocks+0x250>
21005d98:	e51b300c 	ldr	r3, [fp, #-12]
21005d9c:	e5933000 	ldr	r3, [r3]
21005da0:	e2833030 	add	r3, r3, #48	; 0x30
21005da4:	e3a02002 	mov	r2, #2
21005da8:	e1c320b0 	strh	r2, [r3]
21005dac:	e51b300c 	ldr	r3, [fp, #-12]
21005db0:	e5933000 	ldr	r3, [r3]
21005db4:	e2833030 	add	r3, r3, #48	; 0x30
21005db8:	e1d330b0 	ldrh	r3, [r3]
21005dbc:	e6ff3073 	uxth	r3, r3
21005dc0:	e2033002 	and	r3, r3, #2
21005dc4:	e3530000 	cmp	r3, #0
21005dc8:	1afffff2 	bne	21005d98 <SDHC_ReadBlocks+0x288>
21005dcc:	e51b300c 	ldr	r3, [fp, #-12]
21005dd0:	e3a02000 	mov	r2, #0
21005dd4:	e1c322b2 	strh	r2, [r3, #34]	; 0x22
21005dd8:	e59f0018 	ldr	r0, [pc, #24]	; 21005df8 <SDHC_ReadBlocks+0x2e8>
21005ddc:	ebfffa46 	bl	210046fc <debug>
21005de0:	e3a03001 	mov	r3, #1
21005de4:	e1a00003 	mov	r0, r3
21005de8:	e24bd004 	sub	sp, fp, #4
21005dec:	e8bd8800 	pop	{fp, pc}
21005df0:	210386d8 	.word	0x210386d8
21005df4:	21007c34 	.word	0x21007c34
21005df8:	21007c5c 	.word	0x21007c5c

21005dfc <SDHC_WriteBlocks>:
21005dfc:	e92d4800 	push	{fp, lr}
21005e00:	e28db004 	add	fp, sp, #4
21005e04:	e24dd020 	sub	sp, sp, #32
21005e08:	e50b0010 	str	r0, [fp, #-16]
21005e0c:	e1a03001 	mov	r3, r1
21005e10:	e50b2018 	str	r2, [fp, #-24]
21005e14:	e14b31b2 	strh	r3, [fp, #-18]	; 0xffffffee
21005e18:	e59f32a0 	ldr	r3, [pc, #672]	; 210060c0 <SDHC_WriteBlocks+0x2c4>
21005e1c:	e50b300c 	str	r3, [fp, #-12]
21005e20:	e51b300c 	ldr	r3, [fp, #-12]
21005e24:	e593300c 	ldr	r3, [r3, #12]
21005e28:	e3530000 	cmp	r3, #0
21005e2c:	1a000002 	bne	21005e3c <SDHC_WriteBlocks+0x40>
21005e30:	e51b3010 	ldr	r3, [fp, #-16]
21005e34:	e1a03483 	lsl	r3, r3, #9
21005e38:	e50b3010 	str	r3, [fp, #-16]
21005e3c:	e51b300c 	ldr	r3, [fp, #-12]
21005e40:	e15b21b2 	ldrh	r2, [fp, #-18]	; 0xffffffee
21005e44:	e1c322b2 	strh	r2, [r3, #34]	; 0x22
21005e48:	e51b2018 	ldr	r2, [fp, #-24]
21005e4c:	e51b300c 	ldr	r3, [fp, #-12]
21005e50:	e5832028 	str	r2, [r3, #40]	; 0x28
21005e54:	e51b000c 	ldr	r0, [fp, #-12]
21005e58:	eb0002d5 	bl	210069b4 <SDHC_WaitForCard2TransferState>
21005e5c:	e1a03000 	mov	r3, r0
21005e60:	e3530000 	cmp	r3, #0
21005e64:	1a000001 	bne	21005e70 <SDHC_WriteBlocks+0x74>
21005e68:	e3a03003 	mov	r3, #3
21005e6c:	ea000090 	b	210060b4 <SDHC_WriteBlocks+0x2b8>
21005e70:	e51b300c 	ldr	r3, [fp, #-12]
21005e74:	e5933000 	ldr	r3, [r3]
21005e78:	e2833004 	add	r3, r3, #4
21005e7c:	e3a02c72 	mov	r2, #29184	; 0x7200
21005e80:	e1c320b0 	strh	r2, [r3]
21005e84:	e51b300c 	ldr	r3, [fp, #-12]
21005e88:	e5933000 	ldr	r3, [r3]
21005e8c:	e2833006 	add	r3, r3, #6
21005e90:	e15b21b2 	ldrh	r2, [fp, #-18]	; 0xffffffee
21005e94:	e1c320b0 	strh	r2, [r3]
21005e98:	e51b300c 	ldr	r3, [fp, #-12]
21005e9c:	e5933004 	ldr	r3, [r3, #4]
21005ea0:	e3530002 	cmp	r3, #2
21005ea4:	1a000015 	bne	21005f00 <SDHC_WriteBlocks+0x104>
21005ea8:	e51b300c 	ldr	r3, [fp, #-12]
21005eac:	e5933000 	ldr	r3, [r3]
21005eb0:	e51b2018 	ldr	r2, [fp, #-24]
21005eb4:	e5832000 	str	r2, [r3]
21005eb8:	e15b31b2 	ldrh	r3, [fp, #-18]	; 0xffffffee
21005ebc:	e3530001 	cmp	r3, #1
21005ec0:	03a02000 	moveq	r2, #0
21005ec4:	13a02001 	movne	r2, #1
21005ec8:	e15b31b2 	ldrh	r3, [fp, #-18]	; 0xffffffee
21005ecc:	e3530001 	cmp	r3, #1
21005ed0:	03a03000 	moveq	r3, #0
21005ed4:	13a03001 	movne	r3, #1
21005ed8:	e3a01001 	mov	r1, #1
21005edc:	e58d1000 	str	r1, [sp]
21005ee0:	e51b100c 	ldr	r1, [fp, #-12]
21005ee4:	e58d1004 	str	r1, [sp, #4]
21005ee8:	e1a00002 	mov	r0, r2
21005eec:	e3a01000 	mov	r1, #0
21005ef0:	e1a02003 	mov	r2, r3
21005ef4:	e3a03001 	mov	r3, #1
21005ef8:	eb000190 	bl	21006540 <SDHC_SetTransferModeReg>
21005efc:	ea000010 	b	21005f44 <SDHC_WriteBlocks+0x148>
21005f00:	e15b31b2 	ldrh	r3, [fp, #-18]	; 0xffffffee
21005f04:	e3530001 	cmp	r3, #1
21005f08:	03a02000 	moveq	r2, #0
21005f0c:	13a02001 	movne	r2, #1
21005f10:	e15b31b2 	ldrh	r3, [fp, #-18]	; 0xffffffee
21005f14:	e3530001 	cmp	r3, #1
21005f18:	03a03000 	moveq	r3, #0
21005f1c:	13a03001 	movne	r3, #1
21005f20:	e3a01000 	mov	r1, #0
21005f24:	e58d1000 	str	r1, [sp]
21005f28:	e51b100c 	ldr	r1, [fp, #-12]
21005f2c:	e58d1004 	str	r1, [sp, #4]
21005f30:	e1a00002 	mov	r0, r2
21005f34:	e3a01000 	mov	r1, #0
21005f38:	e1a02003 	mov	r2, r3
21005f3c:	e3a03001 	mov	r3, #1
21005f40:	eb00017e 	bl	21006540 <SDHC_SetTransferModeReg>
21005f44:	e15b31b2 	ldrh	r3, [fp, #-18]	; 0xffffffee
21005f48:	e3530001 	cmp	r3, #1
21005f4c:	1a00000b 	bne	21005f80 <SDHC_WriteBlocks+0x184>
21005f50:	e3a03001 	mov	r3, #1
21005f54:	e58d3000 	str	r3, [sp]
21005f58:	e51b000c 	ldr	r0, [fp, #-12]
21005f5c:	e3a01018 	mov	r1, #24
21005f60:	e51b2010 	ldr	r2, [fp, #-16]
21005f64:	e3a03003 	mov	r3, #3
21005f68:	ebfffe1a 	bl	210057d8 <SDHC_IssueCommand>
21005f6c:	e1a03000 	mov	r3, r0
21005f70:	e3530000 	cmp	r3, #0
21005f74:	1a00000d 	bne	21005fb0 <SDHC_WriteBlocks+0x1b4>
21005f78:	e3a03004 	mov	r3, #4
21005f7c:	ea00004c 	b	210060b4 <SDHC_WriteBlocks+0x2b8>
21005f80:	e3a03001 	mov	r3, #1
21005f84:	e58d3000 	str	r3, [sp]
21005f88:	e51b000c 	ldr	r0, [fp, #-12]
21005f8c:	e3a01019 	mov	r1, #25
21005f90:	e51b2010 	ldr	r2, [fp, #-16]
21005f94:	e3a03003 	mov	r3, #3
21005f98:	ebfffe0e 	bl	210057d8 <SDHC_IssueCommand>
21005f9c:	e1a03000 	mov	r3, r0
21005fa0:	e3530000 	cmp	r3, #0
21005fa4:	1a000001 	bne	21005fb0 <SDHC_WriteBlocks+0x1b4>
21005fa8:	e3a03005 	mov	r3, #5
21005fac:	ea000040 	b	210060b4 <SDHC_WriteBlocks+0x2b8>
21005fb0:	e51b300c 	ldr	r3, [fp, #-12]
21005fb4:	e5933004 	ldr	r3, [r3, #4]
21005fb8:	e3530002 	cmp	r3, #2
21005fbc:	0a00001a 	beq	2100602c <SDHC_WriteBlocks+0x230>
21005fc0:	e51b300c 	ldr	r3, [fp, #-12]
21005fc4:	e5933004 	ldr	r3, [r3, #4]
21005fc8:	e3530003 	cmp	r3, #3
21005fcc:	0a000016 	beq	2100602c <SDHC_WriteBlocks+0x230>
21005fd0:	e51b300c 	ldr	r3, [fp, #-12]
21005fd4:	e5933004 	ldr	r3, [r3, #4]
21005fd8:	e3530000 	cmp	r3, #0
21005fdc:	1a000009 	bne	21006008 <SDHC_WriteBlocks+0x20c>
21005fe0:	ea000003 	b	21005ff4 <SDHC_WriteBlocks+0x1f8>
21005fe4:	e51b300c 	ldr	r3, [fp, #-12]
21005fe8:	e5933028 	ldr	r3, [r3, #40]	; 0x28
21005fec:	e1a00003 	mov	r0, r3
21005ff0:	ebfffe75 	bl	210059cc <SDHC_WriteOneBlock>
21005ff4:	e51b300c 	ldr	r3, [fp, #-12]
21005ff8:	e1d332b2 	ldrh	r3, [r3, #34]	; 0x22
21005ffc:	e3530000 	cmp	r3, #0
21006000:	1afffff7 	bne	21005fe4 <SDHC_WriteBlocks+0x1e8>
21006004:	ea000008 	b	2100602c <SDHC_WriteBlocks+0x230>
21006008:	e51b300c 	ldr	r3, [fp, #-12]
2100600c:	e5933004 	ldr	r3, [r3, #4]
21006010:	e3530001 	cmp	r3, #1
21006014:	1a000004 	bne	2100602c <SDHC_WriteBlocks+0x230>
21006018:	e1a00000 	nop			; (mov r0, r0)
2100601c:	e51b300c 	ldr	r3, [fp, #-12]
21006020:	e1d332b2 	ldrh	r3, [r3, #34]	; 0x22
21006024:	e3530000 	cmp	r3, #0
21006028:	1afffffb 	bne	2100601c <SDHC_WriteBlocks+0x220>
2100602c:	e3a0347f 	mov	r3, #2130706432	; 0x7f000000
21006030:	e50b3008 	str	r3, [fp, #-8]
21006034:	ea000005 	b	21006050 <SDHC_WriteBlocks+0x254>
21006038:	e51b3008 	ldr	r3, [fp, #-8]
2100603c:	e2433001 	sub	r3, r3, #1
21006040:	e50b3008 	str	r3, [fp, #-8]
21006044:	e51b3008 	ldr	r3, [fp, #-8]
21006048:	e3530000 	cmp	r3, #0
2100604c:	0a000007 	beq	21006070 <SDHC_WriteBlocks+0x274>
21006050:	e51b300c 	ldr	r3, [fp, #-12]
21006054:	e5933000 	ldr	r3, [r3]
21006058:	e2833030 	add	r3, r3, #48	; 0x30
2100605c:	e1d330b0 	ldrh	r3, [r3]
21006060:	e6ff3073 	uxth	r3, r3
21006064:	e2033002 	and	r3, r3, #2
21006068:	e3530000 	cmp	r3, #0
2100606c:	0afffff1 	beq	21006038 <SDHC_WriteBlocks+0x23c>
21006070:	e51b300c 	ldr	r3, [fp, #-12]
21006074:	e5933000 	ldr	r3, [r3]
21006078:	e2833030 	add	r3, r3, #48	; 0x30
2100607c:	e3a02002 	mov	r2, #2
21006080:	e1c320b0 	strh	r2, [r3]
21006084:	e51b300c 	ldr	r3, [fp, #-12]
21006088:	e5933000 	ldr	r3, [r3]
2100608c:	e2833030 	add	r3, r3, #48	; 0x30
21006090:	e1d330b0 	ldrh	r3, [r3]
21006094:	e6ff3073 	uxth	r3, r3
21006098:	e2033002 	and	r3, r3, #2
2100609c:	e3530000 	cmp	r3, #0
210060a0:	1afffff2 	bne	21006070 <SDHC_WriteBlocks+0x274>
210060a4:	e51b300c 	ldr	r3, [fp, #-12]
210060a8:	e3a02000 	mov	r2, #0
210060ac:	e1c322b2 	strh	r2, [r3, #34]	; 0x22
210060b0:	e3a03000 	mov	r3, #0
210060b4:	e1a00003 	mov	r0, r3
210060b8:	e24bd004 	sub	sp, fp, #4
210060bc:	e8bd8800 	pop	{fp, pc}
210060c0:	210386d8 	.word	0x210386d8

210060c4 <SDHC_CloseMedia>:
210060c4:	e92d4800 	push	{fp, lr}
210060c8:	e28db004 	add	fp, sp, #4
210060cc:	e24dd008 	sub	sp, sp, #8
210060d0:	e59f3014 	ldr	r3, [pc, #20]	; 210060ec <SDHC_CloseMedia+0x28>
210060d4:	e50b3008 	str	r3, [fp, #-8]
210060d8:	e3a00000 	mov	r0, #0
210060dc:	e51b1008 	ldr	r1, [fp, #-8]
210060e0:	eb000142 	bl	210065f0 <SDHC_SetSdClockOnOff>
210060e4:	e24bd004 	sub	sp, fp, #4
210060e8:	e8bd8800 	pop	{fp, pc}
210060ec:	210386d8 	.word	0x210386d8

210060f0 <SDHC_IdentifyCard>:
210060f0:	e92d4800 	push	{fp, lr}
210060f4:	e28db004 	add	fp, sp, #4
210060f8:	e24dd018 	sub	sp, sp, #24
210060fc:	e50b0008 	str	r0, [fp, #-8]
21006100:	e51b0008 	ldr	r0, [fp, #-8]
21006104:	eb000252 	bl	21006a54 <SDHC_Set_InitClock>
21006108:	e51b3008 	ldr	r3, [fp, #-8]
2100610c:	e5933000 	ldr	r3, [r3]
21006110:	e283302e 	add	r3, r3, #46	; 0x2e
21006114:	e51b2008 	ldr	r2, [fp, #-8]
21006118:	e5922000 	ldr	r2, [r2]
2100611c:	e282202e 	add	r2, r2, #46	; 0x2e
21006120:	e5d22000 	ldrb	r2, [r2]
21006124:	e6ef2072 	uxtb	r2, r2
21006128:	e6ef2072 	uxtb	r2, r2
2100612c:	e3c2200f 	bic	r2, r2, #15
21006130:	e6ef2072 	uxtb	r2, r2
21006134:	e382200e 	orr	r2, r2, #14
21006138:	e6ef2072 	uxtb	r2, r2
2100613c:	e6ef2072 	uxtb	r2, r2
21006140:	e5c32000 	strb	r2, [r3]
21006144:	e51b3008 	ldr	r3, [fp, #-8]
21006148:	e5933000 	ldr	r3, [r3]
2100614c:	e2833028 	add	r3, r3, #40	; 0x28
21006150:	e3a02000 	mov	r2, #0
21006154:	e5c32000 	strb	r2, [r3]
21006158:	e3a00000 	mov	r0, #0
2100615c:	e51b1008 	ldr	r1, [fp, #-8]
21006160:	eb0000e3 	bl	210064f4 <SDHC_SetHostCtrlSpeedMode>
21006164:	e51b3008 	ldr	r3, [fp, #-8]
21006168:	e58d3000 	str	r3, [sp]
2100616c:	e59f01a4 	ldr	r0, [pc, #420]	; 21006318 <SDHC_IdentifyCard+0x228>
21006170:	e3a010ff 	mov	r1, #255	; 0xff
21006174:	e3a02000 	mov	r2, #0
21006178:	e3a03000 	mov	r3, #0
2100617c:	ebfffb8e 	bl	21004fbc <SDHC_SetSdhcInterruptEnable>
21006180:	e51b0008 	ldr	r0, [fp, #-8]
21006184:	ebfffc75 	bl	21005360 <SDHC_SetSDOCR>
21006188:	e1a03000 	mov	r3, r0
2100618c:	e3530000 	cmp	r3, #0
21006190:	0a000046 	beq	210062b0 <SDHC_IdentifyCard+0x1c0>
21006194:	e51b3008 	ldr	r3, [fp, #-8]
21006198:	e3a02000 	mov	r2, #0
2100619c:	e5832008 	str	r2, [r3, #8]
210061a0:	e3a03003 	mov	r3, #3
210061a4:	e58d3000 	str	r3, [sp]
210061a8:	e51b0008 	ldr	r0, [fp, #-8]
210061ac:	e3a01002 	mov	r1, #2
210061b0:	e3a02000 	mov	r2, #0
210061b4:	e3a03001 	mov	r3, #1
210061b8:	ebfffd86 	bl	210057d8 <SDHC_IssueCommand>
210061bc:	e51b3008 	ldr	r3, [fp, #-8]
210061c0:	e5933000 	ldr	r3, [r3]
210061c4:	e2833018 	add	r3, r3, #24
210061c8:	e5933000 	ldr	r3, [r3]
210061cc:	e1a01c23 	lsr	r1, r3, #24
210061d0:	e51b3008 	ldr	r3, [fp, #-8]
210061d4:	e5933000 	ldr	r3, [r3]
210061d8:	e2833018 	add	r3, r3, #24
210061dc:	e5933000 	ldr	r3, [r3]
210061e0:	e1a03823 	lsr	r3, r3, #16
210061e4:	e20320ff 	and	r2, r3, #255	; 0xff
210061e8:	e51b3008 	ldr	r3, [fp, #-8]
210061ec:	e5933000 	ldr	r3, [r3]
210061f0:	e2833018 	add	r3, r3, #24
210061f4:	e5933000 	ldr	r3, [r3]
210061f8:	e1a03423 	lsr	r3, r3, #8
210061fc:	e20330ff 	and	r3, r3, #255	; 0xff
21006200:	e51b0008 	ldr	r0, [fp, #-8]
21006204:	e5900000 	ldr	r0, [r0]
21006208:	e2800018 	add	r0, r0, #24
2100620c:	e5900000 	ldr	r0, [r0]
21006210:	e200e0ff 	and	lr, r0, #255	; 0xff
21006214:	e51b0008 	ldr	r0, [fp, #-8]
21006218:	e5900000 	ldr	r0, [r0]
2100621c:	e2800014 	add	r0, r0, #20
21006220:	e5900000 	ldr	r0, [r0]
21006224:	e1a0cc20 	lsr	ip, r0, #24
21006228:	e51b0008 	ldr	r0, [fp, #-8]
2100622c:	e5900000 	ldr	r0, [r0]
21006230:	e2800014 	add	r0, r0, #20
21006234:	e5900000 	ldr	r0, [r0]
21006238:	e1a00820 	lsr	r0, r0, #16
2100623c:	e20000ff 	and	r0, r0, #255	; 0xff
21006240:	e58de000 	str	lr, [sp]
21006244:	e58dc004 	str	ip, [sp, #4]
21006248:	e58d0008 	str	r0, [sp, #8]
2100624c:	e59f00c8 	ldr	r0, [pc, #200]	; 2100631c <SDHC_IdentifyCard+0x22c>
21006250:	ebfff8a9 	bl	210044fc <printf>
21006254:	e51b3008 	ldr	r3, [fp, #-8]
21006258:	e5933008 	ldr	r3, [r3, #8]
2100625c:	e3530001 	cmp	r3, #1
21006260:	13a03000 	movne	r3, #0
21006264:	03a03001 	moveq	r3, #1
21006268:	e6ff2073 	uxth	r2, r3
2100626c:	e51b3008 	ldr	r3, [fp, #-8]
21006270:	e1c321bc 	strh	r2, [r3, #28]
21006274:	e51b3008 	ldr	r3, [fp, #-8]
21006278:	e1d331bc 	ldrh	r3, [r3, #28]
2100627c:	e1a03803 	lsl	r3, r3, #16
21006280:	e3a02001 	mov	r2, #1
21006284:	e58d2000 	str	r2, [sp]
21006288:	e51b0008 	ldr	r0, [fp, #-8]
2100628c:	e3a01003 	mov	r1, #3
21006290:	e1a02003 	mov	r2, r3
21006294:	e3a03002 	mov	r3, #2
21006298:	ebfffd4e 	bl	210057d8 <SDHC_IssueCommand>
2100629c:	e51b3008 	ldr	r3, [fp, #-8]
210062a0:	e5933008 	ldr	r3, [r3, #8]
210062a4:	e3530000 	cmp	r3, #0
210062a8:	0a000002 	beq	210062b8 <SDHC_IdentifyCard+0x1c8>
210062ac:	ea000009 	b	210062d8 <SDHC_IdentifyCard+0x1e8>
210062b0:	e3a03000 	mov	r3, #0
210062b4:	ea000014 	b	2100630c <SDHC_IdentifyCard+0x21c>
210062b8:	e51b3008 	ldr	r3, [fp, #-8]
210062bc:	e5933000 	ldr	r3, [r3]
210062c0:	e2833010 	add	r3, r3, #16
210062c4:	e5933000 	ldr	r3, [r3]
210062c8:	e1a03823 	lsr	r3, r3, #16
210062cc:	e6ff2073 	uxth	r2, r3
210062d0:	e51b3008 	ldr	r3, [fp, #-8]
210062d4:	e1c321bc 	strh	r2, [r3, #28]
210062d8:	e51b3008 	ldr	r3, [fp, #-8]
210062dc:	e1d331bc 	ldrh	r3, [r3, #28]
210062e0:	e1a03803 	lsl	r3, r3, #16
210062e4:	e3a02003 	mov	r2, #3
210062e8:	e58d2000 	str	r2, [sp]
210062ec:	e51b0008 	ldr	r0, [fp, #-8]
210062f0:	e3a01009 	mov	r1, #9
210062f4:	e1a02003 	mov	r2, r3
210062f8:	e3a03002 	mov	r3, #2
210062fc:	ebfffd35 	bl	210057d8 <SDHC_IssueCommand>
21006300:	e51b0008 	ldr	r0, [fp, #-8]
21006304:	eb000250 	bl	21006c4c <SDHC_DisplayCardInformation>
21006308:	e3a03001 	mov	r3, #1
2100630c:	e1a00003 	mov	r0, r3
21006310:	e24bd004 	sub	sp, fp, #4
21006314:	e8bd8800 	pop	{fp, pc}
21006318:	000003f7 	.word	0x000003f7
2100631c:	21007c7c 	.word	0x21007c7c

21006320 <SDHC_SetSdCardSpeedMode>:
21006320:	e92d4800 	push	{fp, lr}
21006324:	e28db004 	add	fp, sp, #4
21006328:	e24dd058 	sub	sp, sp, #88	; 0x58
2100632c:	e50b0050 	str	r0, [fp, #-80]	; 0x50
21006330:	e50b1054 	str	r1, [fp, #-84]	; 0x54
21006334:	e3a03000 	mov	r3, #0
21006338:	e50b300c 	str	r3, [fp, #-12]
2100633c:	e59f0198 	ldr	r0, [pc, #408]	; 210064dc <SDHC_SetSdCardSpeedMode+0x1bc>
21006340:	eb000336 	bl	21007020 <puts>
21006344:	e3a03001 	mov	r3, #1
21006348:	e58d3000 	str	r3, [sp]
2100634c:	e51b0054 	ldr	r0, [fp, #-84]	; 0x54
21006350:	e3a01010 	mov	r1, #16
21006354:	e3a02040 	mov	r2, #64	; 0x40
21006358:	e3a03002 	mov	r3, #2
2100635c:	ebfffd1d 	bl	210057d8 <SDHC_IssueCommand>
21006360:	e1a03000 	mov	r3, r0
21006364:	e3530000 	cmp	r3, #0
21006368:	1a000001 	bne	21006374 <SDHC_SetSdCardSpeedMode+0x54>
2100636c:	e3a03000 	mov	r3, #0
21006370:	ea000056 	b	210064d0 <SDHC_SetSdCardSpeedMode+0x1b0>
21006374:	e51b3054 	ldr	r3, [fp, #-84]	; 0x54
21006378:	e5933000 	ldr	r3, [r3]
2100637c:	e2833004 	add	r3, r3, #4
21006380:	e59f2158 	ldr	r2, [pc, #344]	; 210064e0 <SDHC_SetSdCardSpeedMode+0x1c0>
21006384:	e1c320b0 	strh	r2, [r3]
21006388:	e51b3054 	ldr	r3, [fp, #-84]	; 0x54
2100638c:	e5933000 	ldr	r3, [r3]
21006390:	e2833006 	add	r3, r3, #6
21006394:	e3a02001 	mov	r2, #1
21006398:	e1c320b0 	strh	r2, [r3]
2100639c:	e3a03000 	mov	r3, #0
210063a0:	e58d3000 	str	r3, [sp]
210063a4:	e51b3054 	ldr	r3, [fp, #-84]	; 0x54
210063a8:	e58d3004 	str	r3, [sp, #4]
210063ac:	e3a00000 	mov	r0, #0
210063b0:	e3a01001 	mov	r1, #1
210063b4:	e3a02000 	mov	r2, #0
210063b8:	e3a03000 	mov	r3, #0
210063bc:	eb00005f 	bl	21006540 <SDHC_SetTransferModeReg>
210063c0:	e51b3054 	ldr	r3, [fp, #-84]	; 0x54
210063c4:	e3a02001 	mov	r2, #1
210063c8:	e1c322b2 	strh	r2, [r3, #34]	; 0x22
210063cc:	e51b3054 	ldr	r3, [fp, #-84]	; 0x54
210063d0:	e24b204c 	sub	r2, fp, #76	; 0x4c
210063d4:	e5832028 	str	r2, [r3, #40]	; 0x28
210063d8:	e51b2050 	ldr	r2, [fp, #-80]	; 0x50
210063dc:	e59f3100 	ldr	r3, [pc, #256]	; 210064e4 <SDHC_SetSdCardSpeedMode+0x1c4>
210063e0:	e1823003 	orr	r3, r2, r3
210063e4:	e50b300c 	str	r3, [fp, #-12]
210063e8:	e3a03001 	mov	r3, #1
210063ec:	e58d3000 	str	r3, [sp]
210063f0:	e51b0054 	ldr	r0, [fp, #-84]	; 0x54
210063f4:	e3a01006 	mov	r1, #6
210063f8:	e51b200c 	ldr	r2, [fp, #-12]
210063fc:	e3a03003 	mov	r3, #3
21006400:	ebfffcf4 	bl	210057d8 <SDHC_IssueCommand>
21006404:	e1a03000 	mov	r3, r0
21006408:	e3530000 	cmp	r3, #0
2100640c:	1a000003 	bne	21006420 <SDHC_SetSdCardSpeedMode+0x100>
21006410:	e59f00d0 	ldr	r0, [pc, #208]	; 210064e8 <SDHC_SetSdCardSpeedMode+0x1c8>
21006414:	eb000301 	bl	21007020 <puts>
21006418:	e3a03000 	mov	r3, #0
2100641c:	ea00002b 	b	210064d0 <SDHC_SetSdCardSpeedMode+0x1b0>
21006420:	e51b3054 	ldr	r3, [fp, #-84]	; 0x54
21006424:	e5933028 	ldr	r3, [r3, #40]	; 0x28
21006428:	e1a00003 	mov	r0, r3
2100642c:	eb0001b5 	bl	21006b08 <SDHC_ReadOneBlock>
21006430:	e3a0347f 	mov	r3, #2130706432	; 0x7f000000
21006434:	e50b3008 	str	r3, [fp, #-8]
21006438:	ea000005 	b	21006454 <SDHC_SetSdCardSpeedMode+0x134>
2100643c:	e51b3008 	ldr	r3, [fp, #-8]
21006440:	e2433001 	sub	r3, r3, #1
21006444:	e50b3008 	str	r3, [fp, #-8]
21006448:	e51b3008 	ldr	r3, [fp, #-8]
2100644c:	e3530000 	cmp	r3, #0
21006450:	0a000007 	beq	21006474 <SDHC_SetSdCardSpeedMode+0x154>
21006454:	e51b3054 	ldr	r3, [fp, #-84]	; 0x54
21006458:	e5933000 	ldr	r3, [r3]
2100645c:	e2833030 	add	r3, r3, #48	; 0x30
21006460:	e1d330b0 	ldrh	r3, [r3]
21006464:	e6ff3073 	uxth	r3, r3
21006468:	e2033002 	and	r3, r3, #2
2100646c:	e3530000 	cmp	r3, #0
21006470:	0afffff1 	beq	2100643c <SDHC_SetSdCardSpeedMode+0x11c>
21006474:	e51b3054 	ldr	r3, [fp, #-84]	; 0x54
21006478:	e5933000 	ldr	r3, [r3]
2100647c:	e2833030 	add	r3, r3, #48	; 0x30
21006480:	e3a02002 	mov	r2, #2
21006484:	e1c320b0 	strh	r2, [r3]
21006488:	e51b3054 	ldr	r3, [fp, #-84]	; 0x54
2100648c:	e5933000 	ldr	r3, [r3]
21006490:	e2833030 	add	r3, r3, #48	; 0x30
21006494:	e1d330b0 	ldrh	r3, [r3]
21006498:	e6ff3073 	uxth	r3, r3
2100649c:	e2033002 	and	r3, r3, #2
210064a0:	e3530000 	cmp	r3, #0
210064a4:	1afffff2 	bne	21006474 <SDHC_SetSdCardSpeedMode+0x154>
210064a8:	e51b3040 	ldr	r3, [fp, #-64]	; 0x40
210064ac:	e2033c02 	and	r3, r3, #512	; 0x200
210064b0:	e3530000 	cmp	r3, #0
210064b4:	0a000002 	beq	210064c4 <SDHC_SetSdCardSpeedMode+0x1a4>
210064b8:	e59f002c 	ldr	r0, [pc, #44]	; 210064ec <SDHC_SetSdCardSpeedMode+0x1cc>
210064bc:	eb0002d7 	bl	21007020 <puts>
210064c0:	ea000001 	b	210064cc <SDHC_SetSdCardSpeedMode+0x1ac>
210064c4:	e59f0024 	ldr	r0, [pc, #36]	; 210064f0 <SDHC_SetSdCardSpeedMode+0x1d0>
210064c8:	eb0002d4 	bl	21007020 <puts>
210064cc:	e3a03001 	mov	r3, #1
210064d0:	e1a00003 	mov	r0, r3
210064d4:	e24bd004 	sub	sp, fp, #4
210064d8:	e8bd8800 	pop	{fp, pc}
210064dc:	21007c9c 	.word	0x21007c9c
210064e0:	00007040 	.word	0x00007040
210064e4:	80ffff00 	.word	0x80ffff00
210064e8:	21007cb8 	.word	0x21007cb8
210064ec:	21007cc4 	.word	0x21007cc4
210064f0:	21007ce8 	.word	0x21007ce8

210064f4 <SDHC_SetHostCtrlSpeedMode>:
210064f4:	e52db004 	push	{fp}		; (str fp, [sp, #-4]!)
210064f8:	e28db000 	add	fp, sp, #0
210064fc:	e24dd00c 	sub	sp, sp, #12
21006500:	e50b0008 	str	r0, [fp, #-8]
21006504:	e50b100c 	str	r1, [fp, #-12]
21006508:	e51b300c 	ldr	r3, [fp, #-12]
2100650c:	e5933000 	ldr	r3, [r3]
21006510:	e2833028 	add	r3, r3, #40	; 0x28
21006514:	e51b200c 	ldr	r2, [fp, #-12]
21006518:	e5922000 	ldr	r2, [r2]
2100651c:	e2822028 	add	r2, r2, #40	; 0x28
21006520:	e5d22000 	ldrb	r2, [r2]
21006524:	e6ef2072 	uxtb	r2, r2
21006528:	e3c22004 	bic	r2, r2, #4
2100652c:	e6ef2072 	uxtb	r2, r2
21006530:	e5c32000 	strb	r2, [r3]
21006534:	e28bd000 	add	sp, fp, #0
21006538:	e8bd0800 	pop	{fp}
2100653c:	e12fff1e 	bx	lr

21006540 <SDHC_SetTransferModeReg>:
21006540:	e52db004 	push	{fp}		; (str fp, [sp, #-4]!)
21006544:	e28db000 	add	fp, sp, #0
21006548:	e24dd014 	sub	sp, sp, #20
2100654c:	e50b0008 	str	r0, [fp, #-8]
21006550:	e50b100c 	str	r1, [fp, #-12]
21006554:	e50b2010 	str	r2, [fp, #-16]
21006558:	e50b3014 	str	r3, [fp, #-20]
2100655c:	e51b3008 	ldr	r3, [fp, #-8]
21006560:	e6ff3073 	uxth	r3, r3
21006564:	e1a03283 	lsl	r3, r3, #5
21006568:	e6ff2073 	uxth	r2, r3
2100656c:	e51b300c 	ldr	r3, [fp, #-12]
21006570:	e6ff3073 	uxth	r3, r3
21006574:	e1a03203 	lsl	r3, r3, #4
21006578:	e6ff3073 	uxth	r3, r3
2100657c:	e1823003 	orr	r3, r2, r3
21006580:	e6ff2073 	uxth	r2, r3
21006584:	e51b3010 	ldr	r3, [fp, #-16]
21006588:	e6ff3073 	uxth	r3, r3
2100658c:	e1a03103 	lsl	r3, r3, #2
21006590:	e6ff3073 	uxth	r3, r3
21006594:	e1823003 	orr	r3, r2, r3
21006598:	e6ff2073 	uxth	r2, r3
2100659c:	e51b3014 	ldr	r3, [fp, #-20]
210065a0:	e6ff3073 	uxth	r3, r3
210065a4:	e1a03083 	lsl	r3, r3, #1
210065a8:	e6ff3073 	uxth	r3, r3
210065ac:	e1823003 	orr	r3, r2, r3
210065b0:	e6ff2073 	uxth	r2, r3
210065b4:	e59b3004 	ldr	r3, [fp, #4]
210065b8:	e6ff3073 	uxth	r3, r3
210065bc:	e1823003 	orr	r3, r2, r3
210065c0:	e6ff2073 	uxth	r2, r3
210065c4:	e59b3008 	ldr	r3, [fp, #8]
210065c8:	e1c321be 	strh	r2, [r3, #30]
210065cc:	e59b3008 	ldr	r3, [fp, #8]
210065d0:	e5933000 	ldr	r3, [r3]
210065d4:	e283300c 	add	r3, r3, #12
210065d8:	e59b2008 	ldr	r2, [fp, #8]
210065dc:	e1d221be 	ldrh	r2, [r2, #30]
210065e0:	e1c320b0 	strh	r2, [r3]
210065e4:	e28bd000 	add	sp, fp, #0
210065e8:	e8bd0800 	pop	{fp}
210065ec:	e12fff1e 	bx	lr

210065f0 <SDHC_SetSdClockOnOff>:
210065f0:	e52db004 	push	{fp}		; (str fp, [sp, #-4]!)
210065f4:	e28db000 	add	fp, sp, #0
210065f8:	e24dd00c 	sub	sp, sp, #12
210065fc:	e1a03000 	mov	r3, r0
21006600:	e50b100c 	str	r1, [fp, #-12]
21006604:	e54b3005 	strb	r3, [fp, #-5]
21006608:	e55b3005 	ldrb	r3, [fp, #-5]
2100660c:	e3530000 	cmp	r3, #0
21006610:	1a00000b 	bne	21006644 <SDHC_SetSdClockOnOff+0x54>
21006614:	e51b300c 	ldr	r3, [fp, #-12]
21006618:	e5933000 	ldr	r3, [r3]
2100661c:	e283302c 	add	r3, r3, #44	; 0x2c
21006620:	e51b200c 	ldr	r2, [fp, #-12]
21006624:	e5922000 	ldr	r2, [r2]
21006628:	e282202c 	add	r2, r2, #44	; 0x2c
2100662c:	e1d220b0 	ldrh	r2, [r2]
21006630:	e6ff2072 	uxth	r2, r2
21006634:	e3c22004 	bic	r2, r2, #4
21006638:	e6ff2072 	uxth	r2, r2
2100663c:	e1c320b0 	strh	r2, [r3]
21006640:	ea000013 	b	21006694 <SDHC_SetSdClockOnOff+0xa4>
21006644:	e51b300c 	ldr	r3, [fp, #-12]
21006648:	e5933000 	ldr	r3, [r3]
2100664c:	e283302c 	add	r3, r3, #44	; 0x2c
21006650:	e51b200c 	ldr	r2, [fp, #-12]
21006654:	e5922000 	ldr	r2, [r2]
21006658:	e282202c 	add	r2, r2, #44	; 0x2c
2100665c:	e1d220b0 	ldrh	r2, [r2]
21006660:	e6ff2072 	uxth	r2, r2
21006664:	e3822004 	orr	r2, r2, #4
21006668:	e6ff2072 	uxth	r2, r2
2100666c:	e1c320b0 	strh	r2, [r3]
21006670:	e1a00000 	nop			; (mov r0, r0)
21006674:	e51b300c 	ldr	r3, [fp, #-12]
21006678:	e5933000 	ldr	r3, [r3]
2100667c:	e283302c 	add	r3, r3, #44	; 0x2c
21006680:	e1d330b0 	ldrh	r3, [r3]
21006684:	e6ff3073 	uxth	r3, r3
21006688:	e2033008 	and	r3, r3, #8
2100668c:	e3530000 	cmp	r3, #0
21006690:	0afffff7 	beq	21006674 <SDHC_SetSdClockOnOff+0x84>
21006694:	e28bd000 	add	sp, fp, #0
21006698:	e8bd0800 	pop	{fp}
2100669c:	e12fff1e 	bx	lr

210066a0 <SDHC_SetSdClock>:
210066a0:	e92d4800 	push	{fp, lr}
210066a4:	e28db004 	add	fp, sp, #4
210066a8:	e24dd008 	sub	sp, sp, #8
210066ac:	e50b0008 	str	r0, [fp, #-8]
210066b0:	e50b100c 	str	r1, [fp, #-12]
210066b4:	e51b300c 	ldr	r3, [fp, #-12]
210066b8:	e3530000 	cmp	r3, #0
210066bc:	1a00000e 	bne	210066fc <SDHC_SetSdClock+0x5c>
210066c0:	e51b3008 	ldr	r3, [fp, #-8]
210066c4:	e5933000 	ldr	r3, [r3]
210066c8:	e2832080 	add	r2, r3, #128	; 0x80
210066cc:	e51b3008 	ldr	r3, [fp, #-8]
210066d0:	e5933014 	ldr	r3, [r3, #20]
210066d4:	e1a03203 	lsl	r3, r3, #4
210066d8:	e3833101 	orr	r3, r3, #1073741824	; 0x40000000
210066dc:	e3833c01 	orr	r3, r3, #256	; 0x100
210066e0:	e5823000 	str	r3, [r2]
210066e4:	e51b3008 	ldr	r3, [fp, #-8]
210066e8:	e5933000 	ldr	r3, [r3]
210066ec:	e2833084 	add	r3, r3, #132	; 0x84
210066f0:	e3a02000 	mov	r2, #0
210066f4:	e5832000 	str	r2, [r3]
210066f8:	ea000015 	b	21006754 <SDHC_SetSdClock+0xb4>
210066fc:	e51b3008 	ldr	r3, [fp, #-8]
21006700:	e5933008 	ldr	r3, [r3, #8]
21006704:	e3530000 	cmp	r3, #0
21006708:	0a000003 	beq	2100671c <SDHC_SetSdClock+0x7c>
2100670c:	e51b3008 	ldr	r3, [fp, #-8]
21006710:	e5933008 	ldr	r3, [r3, #8]
21006714:	e3530003 	cmp	r3, #3
21006718:	1a00000d 	bne	21006754 <SDHC_SetSdClock+0xb4>
2100671c:	e51b3008 	ldr	r3, [fp, #-8]
21006720:	e5933000 	ldr	r3, [r3]
21006724:	e2832080 	add	r2, r3, #128	; 0x80
21006728:	e51b3008 	ldr	r3, [fp, #-8]
2100672c:	e5933014 	ldr	r3, [r3, #20]
21006730:	e1a03203 	lsl	r3, r3, #4
21006734:	e3833101 	orr	r3, r3, #1073741824	; 0x40000000
21006738:	e3833c01 	orr	r3, r3, #256	; 0x100
2100673c:	e5823000 	str	r3, [r2]
21006740:	e51b3008 	ldr	r3, [fp, #-8]
21006744:	e5933000 	ldr	r3, [r3]
21006748:	e2833084 	add	r3, r3, #132	; 0x84
2100674c:	e3a02000 	mov	r2, #0
21006750:	e5832000 	str	r2, [r3]
21006754:	e51b3008 	ldr	r3, [fp, #-8]
21006758:	e5933000 	ldr	r3, [r3]
2100675c:	e283302c 	add	r3, r3, #44	; 0x2c
21006760:	e51b2008 	ldr	r2, [fp, #-8]
21006764:	e5922000 	ldr	r2, [r2]
21006768:	e282202c 	add	r2, r2, #44	; 0x2c
2100676c:	e1d220b0 	ldrh	r2, [r2]
21006770:	e6ff2072 	uxth	r2, r2
21006774:	e20220ff 	and	r2, r2, #255	; 0xff
21006778:	e6ff1072 	uxth	r1, r2
2100677c:	e51b2008 	ldr	r2, [fp, #-8]
21006780:	e5922018 	ldr	r2, [r2, #24]
21006784:	e6ff2072 	uxth	r2, r2
21006788:	e1a02402 	lsl	r2, r2, #8
2100678c:	e6ff2072 	uxth	r2, r2
21006790:	e1812002 	orr	r2, r1, r2
21006794:	e6ff2072 	uxth	r2, r2
21006798:	e3822001 	orr	r2, r2, #1
2100679c:	e6ff2072 	uxth	r2, r2
210067a0:	e1c320b0 	strh	r2, [r3]
210067a4:	e1a00000 	nop			; (mov r0, r0)
210067a8:	e51b3008 	ldr	r3, [fp, #-8]
210067ac:	e5933000 	ldr	r3, [r3]
210067b0:	e283302c 	add	r3, r3, #44	; 0x2c
210067b4:	e1d330b0 	ldrh	r3, [r3]
210067b8:	e6ff3073 	uxth	r3, r3
210067bc:	e2033002 	and	r3, r3, #2
210067c0:	e3530000 	cmp	r3, #0
210067c4:	0afffff7 	beq	210067a8 <SDHC_SetSdClock+0x108>
210067c8:	e3a00001 	mov	r0, #1
210067cc:	e51b1008 	ldr	r1, [fp, #-8]
210067d0:	ebffff86 	bl	210065f0 <SDHC_SetSdClockOnOff>
210067d4:	e51b3008 	ldr	r3, [fp, #-8]
210067d8:	e5933000 	ldr	r3, [r3]
210067dc:	e2833080 	add	r3, r3, #128	; 0x80
210067e0:	e5933000 	ldr	r3, [r3]
210067e4:	e59f002c 	ldr	r0, [pc, #44]	; 21006818 <SDHC_SetSdClock+0x178>
210067e8:	e1a01003 	mov	r1, r3
210067ec:	ebfff7c2 	bl	210046fc <debug>
210067f0:	e51b3008 	ldr	r3, [fp, #-8]
210067f4:	e5933000 	ldr	r3, [r3]
210067f8:	e283302c 	add	r3, r3, #44	; 0x2c
210067fc:	e1d330b0 	ldrh	r3, [r3]
21006800:	e6ff3073 	uxth	r3, r3
21006804:	e59f0010 	ldr	r0, [pc, #16]	; 2100681c <SDHC_SetSdClock+0x17c>
21006808:	e1a01003 	mov	r1, r3
2100680c:	ebfff7ba 	bl	210046fc <debug>
21006810:	e24bd004 	sub	sp, fp, #4
21006814:	e8bd8800 	pop	{fp, pc}
21006818:	21007d14 	.word	0x21007d14
2100681c:	21007d28 	.word	0x21007d28

21006820 <SDHC_SetDataTransferWidth>:
21006820:	e92d4800 	push	{fp, lr}
21006824:	e28db004 	add	fp, sp, #4
21006828:	e24dd010 	sub	sp, sp, #16
2100682c:	e50b0008 	str	r0, [fp, #-8]
21006830:	e3a00000 	mov	r0, #0
21006834:	e51b1008 	ldr	r1, [fp, #-8]
21006838:	ebfffba9 	bl	210056e4 <SDHC_SetSdhcCardIntEnable>
2100683c:	e51b3008 	ldr	r3, [fp, #-8]
21006840:	e5933008 	ldr	r3, [r3, #8]
21006844:	e3530000 	cmp	r3, #0
21006848:	1a000002 	bne	21006858 <SDHC_SetDataTransferWidth+0x38>
2100684c:	e51b3008 	ldr	r3, [fp, #-8]
21006850:	e3a02004 	mov	r2, #4
21006854:	e5c32027 	strb	r2, [r3, #39]	; 0x27
21006858:	e51b3008 	ldr	r3, [fp, #-8]
2100685c:	e5933008 	ldr	r3, [r3, #8]
21006860:	e3530000 	cmp	r3, #0
21006864:	1a000021 	bne	210068f0 <SDHC_SetDataTransferWidth+0xd0>
21006868:	e51b3008 	ldr	r3, [fp, #-8]
2100686c:	e1d331bc 	ldrh	r3, [r3, #28]
21006870:	e1a03803 	lsl	r3, r3, #16
21006874:	e3a02001 	mov	r2, #1
21006878:	e58d2000 	str	r2, [sp]
2100687c:	e51b0008 	ldr	r0, [fp, #-8]
21006880:	e3a01037 	mov	r1, #55	; 0x37
21006884:	e1a02003 	mov	r2, r3
21006888:	e3a03002 	mov	r3, #2
2100688c:	ebfffbd1 	bl	210057d8 <SDHC_IssueCommand>
21006890:	e1a03000 	mov	r3, r0
21006894:	e3530000 	cmp	r3, #0
21006898:	1a000001 	bne	210068a4 <SDHC_SetDataTransferWidth+0x84>
2100689c:	e3a03000 	mov	r3, #0
210068a0:	ea000040 	b	210069a8 <SDHC_SetDataTransferWidth+0x188>
210068a4:	e51b3008 	ldr	r3, [fp, #-8]
210068a8:	e5d33027 	ldrb	r3, [r3, #39]	; 0x27
210068ac:	e3530001 	cmp	r3, #1
210068b0:	1a000001 	bne	210068bc <SDHC_SetDataTransferWidth+0x9c>
210068b4:	e3a03000 	mov	r3, #0
210068b8:	ea000000 	b	210068c0 <SDHC_SetDataTransferWidth+0xa0>
210068bc:	e3a03002 	mov	r3, #2
210068c0:	e3a02001 	mov	r2, #1
210068c4:	e58d2000 	str	r2, [sp]
210068c8:	e51b0008 	ldr	r0, [fp, #-8]
210068cc:	e3a01006 	mov	r1, #6
210068d0:	e1a02003 	mov	r2, r3
210068d4:	e3a03002 	mov	r3, #2
210068d8:	ebfffbbe 	bl	210057d8 <SDHC_IssueCommand>
210068dc:	e1a03000 	mov	r3, r0
210068e0:	e3530000 	cmp	r3, #0
210068e4:	1a000001 	bne	210068f0 <SDHC_SetDataTransferWidth+0xd0>
210068e8:	e3a03000 	mov	r3, #0
210068ec:	ea00002d 	b	210069a8 <SDHC_SetDataTransferWidth+0x188>
210068f0:	e51b3008 	ldr	r3, [fp, #-8]
210068f4:	e5933000 	ldr	r3, [r3]
210068f8:	e2833028 	add	r3, r3, #40	; 0x28
210068fc:	e51b2008 	ldr	r2, [fp, #-8]
21006900:	e5922000 	ldr	r2, [r2]
21006904:	e2822028 	add	r2, r2, #40	; 0x28
21006908:	e5d22000 	ldrb	r2, [r2]
2100690c:	e6ef2072 	uxtb	r2, r2
21006910:	e3c22022 	bic	r2, r2, #34	; 0x22
21006914:	e6ef2072 	uxtb	r2, r2
21006918:	e5c32000 	strb	r2, [r3]
2100691c:	e51b3008 	ldr	r3, [fp, #-8]
21006920:	e5d33027 	ldrb	r3, [r3, #39]	; 0x27
21006924:	e3530008 	cmp	r3, #8
21006928:	1a00000b 	bne	2100695c <SDHC_SetDataTransferWidth+0x13c>
2100692c:	e51b3008 	ldr	r3, [fp, #-8]
21006930:	e5933000 	ldr	r3, [r3]
21006934:	e2833028 	add	r3, r3, #40	; 0x28
21006938:	e51b2008 	ldr	r2, [fp, #-8]
2100693c:	e5922000 	ldr	r2, [r2]
21006940:	e2822028 	add	r2, r2, #40	; 0x28
21006944:	e5d22000 	ldrb	r2, [r2]
21006948:	e6ef2072 	uxtb	r2, r2
2100694c:	e3822020 	orr	r2, r2, #32
21006950:	e6ef2072 	uxtb	r2, r2
21006954:	e5c32000 	strb	r2, [r3]
21006958:	ea00000e 	b	21006998 <SDHC_SetDataTransferWidth+0x178>
2100695c:	e51b3008 	ldr	r3, [fp, #-8]
21006960:	e5d33027 	ldrb	r3, [r3, #39]	; 0x27
21006964:	e3530004 	cmp	r3, #4
21006968:	1a00000a 	bne	21006998 <SDHC_SetDataTransferWidth+0x178>
2100696c:	e51b3008 	ldr	r3, [fp, #-8]
21006970:	e5933000 	ldr	r3, [r3]
21006974:	e2833028 	add	r3, r3, #40	; 0x28
21006978:	e51b2008 	ldr	r2, [fp, #-8]
2100697c:	e5922000 	ldr	r2, [r2]
21006980:	e2822028 	add	r2, r2, #40	; 0x28
21006984:	e5d22000 	ldrb	r2, [r2]
21006988:	e6ef2072 	uxtb	r2, r2
2100698c:	e3822002 	orr	r2, r2, #2
21006990:	e6ef2072 	uxtb	r2, r2
21006994:	e5c32000 	strb	r2, [r3]
21006998:	e3a00001 	mov	r0, #1
2100699c:	e51b1008 	ldr	r1, [fp, #-8]
210069a0:	ebfffb4f 	bl	210056e4 <SDHC_SetSdhcCardIntEnable>
210069a4:	e3a03001 	mov	r3, #1
210069a8:	e1a00003 	mov	r0, r3
210069ac:	e24bd004 	sub	sp, fp, #4
210069b0:	e8bd8800 	pop	{fp, pc}

210069b4 <SDHC_WaitForCard2TransferState>:
210069b4:	e92d4800 	push	{fp, lr}
210069b8:	e28db004 	add	fp, sp, #4
210069bc:	e24dd018 	sub	sp, sp, #24
210069c0:	e50b0010 	str	r0, [fp, #-16]
210069c4:	e51b3010 	ldr	r3, [fp, #-16]
210069c8:	e1d331bc 	ldrh	r3, [r3, #28]
210069cc:	e1a03803 	lsl	r3, r3, #16
210069d0:	e3a02002 	mov	r2, #2
210069d4:	e58d2000 	str	r2, [sp]
210069d8:	e51b0010 	ldr	r0, [fp, #-16]
210069dc:	e3a0100d 	mov	r1, #13
210069e0:	e1a02003 	mov	r2, r3
210069e4:	e3a03002 	mov	r3, #2
210069e8:	ebfffb7a 	bl	210057d8 <SDHC_IssueCommand>
210069ec:	e1a03000 	mov	r3, r0
210069f0:	e3530000 	cmp	r3, #0
210069f4:	1a000001 	bne	21006a00 <SDHC_WaitForCard2TransferState+0x4c>
210069f8:	e3a03000 	mov	r3, #0
210069fc:	ea000011 	b	21006a48 <SDHC_WaitForCard2TransferState+0x94>
21006a00:	e51b3010 	ldr	r3, [fp, #-16]
21006a04:	e5933000 	ldr	r3, [r3]
21006a08:	e2833010 	add	r3, r3, #16
21006a0c:	e5933000 	ldr	r3, [r3]
21006a10:	e1a034a3 	lsr	r3, r3, #9
21006a14:	e203300f 	and	r3, r3, #15
21006a18:	e50b3008 	str	r3, [fp, #-8]
21006a1c:	e51b3008 	ldr	r3, [fp, #-8]
21006a20:	e3530007 	cmp	r3, #7
21006a24:	0affffe6 	beq	210069c4 <SDHC_WaitForCard2TransferState+0x10>
21006a28:	e51b3008 	ldr	r3, [fp, #-8]
21006a2c:	e3530006 	cmp	r3, #6
21006a30:	0affffe3 	beq	210069c4 <SDHC_WaitForCard2TransferState+0x10>
21006a34:	e51b3008 	ldr	r3, [fp, #-8]
21006a38:	e3530004 	cmp	r3, #4
21006a3c:	13a03000 	movne	r3, #0
21006a40:	03a03001 	moveq	r3, #1
21006a44:	e6ef3073 	uxtb	r3, r3
21006a48:	e1a00003 	mov	r0, r3
21006a4c:	e24bd004 	sub	sp, fp, #4
21006a50:	e8bd8800 	pop	{fp, pc}

21006a54 <SDHC_Set_InitClock>:
21006a54:	e92d4800 	push	{fp, lr}
21006a58:	e28db004 	add	fp, sp, #4
21006a5c:	e24dd008 	sub	sp, sp, #8
21006a60:	e50b0008 	str	r0, [fp, #-8]
21006a64:	e51b3008 	ldr	r3, [fp, #-8]
21006a68:	e5933000 	ldr	r3, [r3]
21006a6c:	e2833080 	add	r3, r3, #128	; 0x80
21006a70:	e3a02e11 	mov	r2, #272	; 0x110
21006a74:	e5832000 	str	r2, [r3]
21006a78:	e51b3008 	ldr	r3, [fp, #-8]
21006a7c:	e5933000 	ldr	r3, [r3]
21006a80:	e2833084 	add	r3, r3, #132	; 0x84
21006a84:	e3a02000 	mov	r2, #0
21006a88:	e5832000 	str	r2, [r3]
21006a8c:	e51b3008 	ldr	r3, [fp, #-8]
21006a90:	e5933000 	ldr	r3, [r3]
21006a94:	e283202c 	add	r2, r3, #44	; 0x2c
21006a98:	e51b3008 	ldr	r3, [fp, #-8]
21006a9c:	e5933000 	ldr	r3, [r3]
21006aa0:	e283302c 	add	r3, r3, #44	; 0x2c
21006aa4:	e1d330b0 	ldrh	r3, [r3]
21006aa8:	e6ff3073 	uxth	r3, r3
21006aac:	e6ff3073 	uxth	r3, r3
21006ab0:	e20330ff 	and	r3, r3, #255	; 0xff
21006ab4:	e6ff3073 	uxth	r3, r3
21006ab8:	e383337f 	orr	r3, r3, #-67108863	; 0xfc000001
21006abc:	e38337ff 	orr	r3, r3, #66846720	; 0x3fc0000
21006ac0:	e383390e 	orr	r3, r3, #229376	; 0x38000
21006ac4:	e6ff3073 	uxth	r3, r3
21006ac8:	e6ff3073 	uxth	r3, r3
21006acc:	e1c230b0 	strh	r3, [r2]
21006ad0:	e1a00000 	nop			; (mov r0, r0)
21006ad4:	e51b3008 	ldr	r3, [fp, #-8]
21006ad8:	e5933000 	ldr	r3, [r3]
21006adc:	e283302c 	add	r3, r3, #44	; 0x2c
21006ae0:	e1d330b0 	ldrh	r3, [r3]
21006ae4:	e6ff3073 	uxth	r3, r3
21006ae8:	e2033002 	and	r3, r3, #2
21006aec:	e3530000 	cmp	r3, #0
21006af0:	0afffff7 	beq	21006ad4 <SDHC_Set_InitClock+0x80>
21006af4:	e3a00001 	mov	r0, #1
21006af8:	e51b1008 	ldr	r1, [fp, #-8]
21006afc:	ebfffebb 	bl	210065f0 <SDHC_SetSdClockOnOff>
21006b00:	e24bd004 	sub	sp, fp, #4
21006b04:	e8bd8800 	pop	{fp, pc}

21006b08 <SDHC_ReadOneBlock>:
21006b08:	e52db004 	push	{fp}		; (str fp, [sp, #-4]!)
21006b0c:	e28db000 	add	fp, sp, #0
21006b10:	e24dd01c 	sub	sp, sp, #28
21006b14:	e50b0018 	str	r0, [fp, #-24]
21006b18:	e59f3128 	ldr	r3, [pc, #296]	; 21006c48 <SDHC_ReadOneBlock+0x140>
21006b1c:	e50b3010 	str	r3, [fp, #-16]
21006b20:	e51b3018 	ldr	r3, [fp, #-24]
21006b24:	e50b3008 	str	r3, [fp, #-8]
21006b28:	e51b3010 	ldr	r3, [fp, #-16]
21006b2c:	e5933000 	ldr	r3, [r3]
21006b30:	e2833004 	add	r3, r3, #4
21006b34:	e1d330b0 	ldrh	r3, [r3]
21006b38:	e6ff3073 	uxth	r3, r3
21006b3c:	e1a03a03 	lsl	r3, r3, #20
21006b40:	e1a03a23 	lsr	r3, r3, #20
21006b44:	e50b3014 	str	r3, [fp, #-20]
21006b48:	e3a0347f 	mov	r3, #2130706432	; 0x7f000000
21006b4c:	e50b300c 	str	r3, [fp, #-12]
21006b50:	ea000005 	b	21006b6c <SDHC_ReadOneBlock+0x64>
21006b54:	e51b300c 	ldr	r3, [fp, #-12]
21006b58:	e2433001 	sub	r3, r3, #1
21006b5c:	e50b300c 	str	r3, [fp, #-12]
21006b60:	e51b300c 	ldr	r3, [fp, #-12]
21006b64:	e3530000 	cmp	r3, #0
21006b68:	0a000007 	beq	21006b8c <SDHC_ReadOneBlock+0x84>
21006b6c:	e51b3010 	ldr	r3, [fp, #-16]
21006b70:	e5933000 	ldr	r3, [r3]
21006b74:	e2833030 	add	r3, r3, #48	; 0x30
21006b78:	e1d330b0 	ldrh	r3, [r3]
21006b7c:	e6ff3073 	uxth	r3, r3
21006b80:	e2033020 	and	r3, r3, #32
21006b84:	e3530000 	cmp	r3, #0
21006b88:	0afffff1 	beq	21006b54 <SDHC_ReadOneBlock+0x4c>
21006b8c:	e51b3010 	ldr	r3, [fp, #-16]
21006b90:	e5933000 	ldr	r3, [r3]
21006b94:	e2833030 	add	r3, r3, #48	; 0x30
21006b98:	e3a02020 	mov	r2, #32
21006b9c:	e1c320b0 	strh	r2, [r3]
21006ba0:	e51b3010 	ldr	r3, [fp, #-16]
21006ba4:	e5933000 	ldr	r3, [r3]
21006ba8:	e2833030 	add	r3, r3, #48	; 0x30
21006bac:	e1d330b0 	ldrh	r3, [r3]
21006bb0:	e6ff3073 	uxth	r3, r3
21006bb4:	e2033020 	and	r3, r3, #32
21006bb8:	e3530000 	cmp	r3, #0
21006bbc:	1afffff2 	bne	21006b8c <SDHC_ReadOneBlock+0x84>
21006bc0:	e51b3014 	ldr	r3, [fp, #-20]
21006bc4:	e2833003 	add	r3, r3, #3
21006bc8:	e1a03143 	asr	r3, r3, #2
21006bcc:	e50b3014 	str	r3, [fp, #-20]
21006bd0:	e51b3014 	ldr	r3, [fp, #-20]
21006bd4:	e50b300c 	str	r3, [fp, #-12]
21006bd8:	ea00000b 	b	21006c0c <SDHC_ReadOneBlock+0x104>
21006bdc:	e51b3010 	ldr	r3, [fp, #-16]
21006be0:	e5933000 	ldr	r3, [r3]
21006be4:	e2833020 	add	r3, r3, #32
21006be8:	e5932000 	ldr	r2, [r3]
21006bec:	e51b3008 	ldr	r3, [fp, #-8]
21006bf0:	e5832000 	str	r2, [r3]
21006bf4:	e51b3008 	ldr	r3, [fp, #-8]
21006bf8:	e2833004 	add	r3, r3, #4
21006bfc:	e50b3008 	str	r3, [fp, #-8]
21006c00:	e51b300c 	ldr	r3, [fp, #-12]
21006c04:	e2433001 	sub	r3, r3, #1
21006c08:	e50b300c 	str	r3, [fp, #-12]
21006c0c:	e51b300c 	ldr	r3, [fp, #-12]
21006c10:	e3530000 	cmp	r3, #0
21006c14:	cafffff0 	bgt	21006bdc <SDHC_ReadOneBlock+0xd4>
21006c18:	e51b3010 	ldr	r3, [fp, #-16]
21006c1c:	e1d332b2 	ldrh	r3, [r3, #34]	; 0x22
21006c20:	e2433001 	sub	r3, r3, #1
21006c24:	e6ff2073 	uxth	r2, r3
21006c28:	e51b3010 	ldr	r3, [fp, #-16]
21006c2c:	e1c322b2 	strh	r2, [r3, #34]	; 0x22
21006c30:	e51b3010 	ldr	r3, [fp, #-16]
21006c34:	e51b2008 	ldr	r2, [fp, #-8]
21006c38:	e5832028 	str	r2, [r3, #40]	; 0x28
21006c3c:	e28bd000 	add	sp, fp, #0
21006c40:	e8bd0800 	pop	{fp}
21006c44:	e12fff1e 	bx	lr
21006c48:	210386d8 	.word	0x210386d8

21006c4c <SDHC_DisplayCardInformation>:
21006c4c:	e92d4800 	push	{fp, lr}
21006c50:	e28db004 	add	fp, sp, #4
21006c54:	e24dd010 	sub	sp, sp, #16
21006c58:	e50b0010 	str	r0, [fp, #-16]
21006c5c:	e51b3010 	ldr	r3, [fp, #-16]
21006c60:	e5933008 	ldr	r3, [r3, #8]
21006c64:	e3530001 	cmp	r3, #1
21006c68:	1a00000e 	bne	21006ca8 <SDHC_DisplayCardInformation+0x5c>
21006c6c:	e51b3010 	ldr	r3, [fp, #-16]
21006c70:	e5933000 	ldr	r3, [r3]
21006c74:	e283301c 	add	r3, r3, #28
21006c78:	e5933000 	ldr	r3, [r3]
21006c7c:	e1a03923 	lsr	r3, r3, #18
21006c80:	e6ef3073 	uxtb	r3, r3
21006c84:	e203300f 	and	r3, r3, #15
21006c88:	e6ef2073 	uxtb	r2, r3
21006c8c:	e51b3010 	ldr	r3, [fp, #-16]
21006c90:	e5c32025 	strb	r2, [r3, #37]	; 0x25
21006c94:	e51b3010 	ldr	r3, [fp, #-16]
21006c98:	e5d33025 	ldrb	r3, [r3, #37]	; 0x25
21006c9c:	e59f0200 	ldr	r0, [pc, #512]	; 21006ea4 <SDHC_DisplayCardInformation+0x258>
21006ca0:	e1a01003 	mov	r1, r3
21006ca4:	ebfff694 	bl	210046fc <debug>
21006ca8:	e51b3010 	ldr	r3, [fp, #-16]
21006cac:	e5933000 	ldr	r3, [r3]
21006cb0:	e2833018 	add	r3, r3, #24
21006cb4:	e5933000 	ldr	r3, [r3]
21006cb8:	e1a03423 	lsr	r3, r3, #8
21006cbc:	e6ff3073 	uxth	r3, r3
21006cc0:	e203300f 	and	r3, r3, #15
21006cc4:	e6ff2073 	uxth	r2, r3
21006cc8:	e51b3010 	ldr	r3, [fp, #-16]
21006ccc:	e1c323b2 	strh	r2, [r3, #50]	; 0x32
21006cd0:	e51b3010 	ldr	r3, [fp, #-16]
21006cd4:	e5933000 	ldr	r3, [r3]
21006cd8:	e2833018 	add	r3, r3, #24
21006cdc:	e5933000 	ldr	r3, [r3]
21006ce0:	e1a033a3 	lsr	r3, r3, #7
21006ce4:	e6ff3073 	uxth	r3, r3
21006ce8:	e2033001 	and	r3, r3, #1
21006cec:	e6ff2073 	uxth	r2, r3
21006cf0:	e51b3010 	ldr	r3, [fp, #-16]
21006cf4:	e1c323b4 	strh	r2, [r3, #52]	; 0x34
21006cf8:	e51b3010 	ldr	r3, [fp, #-16]
21006cfc:	e5933000 	ldr	r3, [r3]
21006d00:	e2833018 	add	r3, r3, #24
21006d04:	e5933000 	ldr	r3, [r3]
21006d08:	e6ff3073 	uxth	r3, r3
21006d0c:	e2033003 	and	r3, r3, #3
21006d10:	e6ff3073 	uxth	r3, r3
21006d14:	e1a03503 	lsl	r3, r3, #10
21006d18:	e6ff2073 	uxth	r2, r3
21006d1c:	e51b3010 	ldr	r3, [fp, #-16]
21006d20:	e5933000 	ldr	r3, [r3]
21006d24:	e2833014 	add	r3, r3, #20
21006d28:	e5933000 	ldr	r3, [r3]
21006d2c:	e1a03b23 	lsr	r3, r3, #22
21006d30:	e6ff3073 	uxth	r3, r3
21006d34:	e1a03b03 	lsl	r3, r3, #22
21006d38:	e1a03b23 	lsr	r3, r3, #22
21006d3c:	e6ff3073 	uxth	r3, r3
21006d40:	e1823003 	orr	r3, r2, r3
21006d44:	e6ff2073 	uxth	r2, r3
21006d48:	e51b3010 	ldr	r3, [fp, #-16]
21006d4c:	e1c323b6 	strh	r2, [r3, #54]	; 0x36
21006d50:	e51b3010 	ldr	r3, [fp, #-16]
21006d54:	e5933000 	ldr	r3, [r3]
21006d58:	e2833014 	add	r3, r3, #20
21006d5c:	e5933000 	ldr	r3, [r3]
21006d60:	e1a033a3 	lsr	r3, r3, #7
21006d64:	e6ff3073 	uxth	r3, r3
21006d68:	e2033007 	and	r3, r3, #7
21006d6c:	e6ff2073 	uxth	r2, r3
21006d70:	e51b3010 	ldr	r3, [fp, #-16]
21006d74:	e1c323b8 	strh	r2, [r3, #56]	; 0x38
21006d78:	e51b3010 	ldr	r3, [fp, #-16]
21006d7c:	e1d333b6 	ldrh	r3, [r3, #54]	; 0x36
21006d80:	e2833001 	add	r3, r3, #1
21006d84:	e1a02003 	mov	r2, r3
21006d88:	e51b3010 	ldr	r3, [fp, #-16]
21006d8c:	e1d333b2 	ldrh	r3, [r3, #50]	; 0x32
21006d90:	e1a02312 	lsl	r2, r2, r3
21006d94:	e51b3010 	ldr	r3, [fp, #-16]
21006d98:	e1d333b8 	ldrh	r3, [r3, #56]	; 0x38
21006d9c:	e2833002 	add	r3, r3, #2
21006da0:	e1a03312 	lsl	r3, r2, r3
21006da4:	e1a03a23 	lsr	r3, r3, #20
21006da8:	e50b3008 	str	r3, [fp, #-8]
21006dac:	e51b3010 	ldr	r3, [fp, #-16]
21006db0:	e1d333b2 	ldrh	r3, [r3, #50]	; 0x32
21006db4:	e3a02001 	mov	r2, #1
21006db8:	e1a03312 	lsl	r3, r2, r3
21006dbc:	e50b300c 	str	r3, [fp, #-12]
21006dc0:	e51b3010 	ldr	r3, [fp, #-16]
21006dc4:	e1d333b6 	ldrh	r3, [r3, #54]	; 0x36
21006dc8:	e2833001 	add	r3, r3, #1
21006dcc:	e1a02003 	mov	r2, r3
21006dd0:	e51b3010 	ldr	r3, [fp, #-16]
21006dd4:	e1d333b2 	ldrh	r3, [r3, #50]	; 0x32
21006dd8:	e1a02312 	lsl	r2, r2, r3
21006ddc:	e51b3010 	ldr	r3, [fp, #-16]
21006de0:	e1d333b8 	ldrh	r3, [r3, #56]	; 0x38
21006de4:	e2833002 	add	r3, r3, #2
21006de8:	e1a03312 	lsl	r3, r2, r3
21006dec:	e1a024a3 	lsr	r2, r3, #9
21006df0:	e59f30b0 	ldr	r3, [pc, #176]	; 21006ea8 <SDHC_DisplayCardInformation+0x25c>
21006df4:	e5832000 	str	r2, [r3]
21006df8:	e59f00ac 	ldr	r0, [pc, #172]	; 21006eac <SDHC_DisplayCardInformation+0x260>
21006dfc:	e51b100c 	ldr	r1, [fp, #-12]
21006e00:	ebfff5bd 	bl	210044fc <printf>
21006e04:	e51b3008 	ldr	r3, [fp, #-8]
21006e08:	e2833001 	add	r3, r3, #1
21006e0c:	e59f009c 	ldr	r0, [pc, #156]	; 21006eb0 <SDHC_DisplayCardInformation+0x264>
21006e10:	e1a01003 	mov	r1, r3
21006e14:	ebfff5b8 	bl	210044fc <printf>
21006e18:	e59f3088 	ldr	r3, [pc, #136]	; 21006ea8 <SDHC_DisplayCardInformation+0x25c>
21006e1c:	e5933000 	ldr	r3, [r3]
21006e20:	e59f008c 	ldr	r0, [pc, #140]	; 21006eb4 <SDHC_DisplayCardInformation+0x268>
21006e24:	e1a01003 	mov	r1, r3
21006e28:	ebfff5b3 	bl	210044fc <printf>
21006e2c:	e51b3010 	ldr	r3, [fp, #-16]
21006e30:	e5933000 	ldr	r3, [r3]
21006e34:	e2833010 	add	r3, r3, #16
21006e38:	e5933000 	ldr	r3, [r3]
21006e3c:	e59f0074 	ldr	r0, [pc, #116]	; 21006eb8 <SDHC_DisplayCardInformation+0x26c>
21006e40:	e1a01003 	mov	r1, r3
21006e44:	ebfff5ac 	bl	210044fc <printf>
21006e48:	e51b3010 	ldr	r3, [fp, #-16]
21006e4c:	e5933000 	ldr	r3, [r3]
21006e50:	e2833014 	add	r3, r3, #20
21006e54:	e5933000 	ldr	r3, [r3]
21006e58:	e59f005c 	ldr	r0, [pc, #92]	; 21006ebc <SDHC_DisplayCardInformation+0x270>
21006e5c:	e1a01003 	mov	r1, r3
21006e60:	ebfff5a5 	bl	210044fc <printf>
21006e64:	e51b3010 	ldr	r3, [fp, #-16]
21006e68:	e5933000 	ldr	r3, [r3]
21006e6c:	e2833018 	add	r3, r3, #24
21006e70:	e5933000 	ldr	r3, [r3]
21006e74:	e59f0044 	ldr	r0, [pc, #68]	; 21006ec0 <SDHC_DisplayCardInformation+0x274>
21006e78:	e1a01003 	mov	r1, r3
21006e7c:	ebfff59e 	bl	210044fc <printf>
21006e80:	e51b3010 	ldr	r3, [fp, #-16]
21006e84:	e5933000 	ldr	r3, [r3]
21006e88:	e283301c 	add	r3, r3, #28
21006e8c:	e5933000 	ldr	r3, [r3]
21006e90:	e59f002c 	ldr	r0, [pc, #44]	; 21006ec4 <SDHC_DisplayCardInformation+0x278>
21006e94:	e1a01003 	mov	r1, r3
21006e98:	ebfff597 	bl	210044fc <printf>
21006e9c:	e24bd004 	sub	sp, fp, #4
21006ea0:	e8bd8800 	pop	{fp, pc}
21006ea4:	21007d3c 	.word	0x21007d3c
21006ea8:	21038728 	.word	0x21038728
21006eac:	21007d4c 	.word	0x21007d4c
21006eb0:	21007d68 	.word	0x21007d68
21006eb4:	21007d84 	.word	0x21007d84
21006eb8:	21007da4 	.word	0x21007da4
21006ebc:	21007db4 	.word	0x21007db4
21006ec0:	21007dc4 	.word	0x21007dc4
21006ec4:	21007dd4 	.word	0x21007dd4

21006ec8 <shell_parse>:
21006ec8:	e52db004 	push	{fp}		; (str fp, [sp, #-4]!)
21006ecc:	e28db000 	add	fp, sp, #0
21006ed0:	e24dd014 	sub	sp, sp, #20
21006ed4:	e50b0010 	str	r0, [fp, #-16]
21006ed8:	e50b1014 	str	r1, [fp, #-20]
21006edc:	e3a03000 	mov	r3, #0
21006ee0:	e50b3008 	str	r3, [fp, #-8]
21006ee4:	e3a03000 	mov	r3, #0
21006ee8:	e50b300c 	str	r3, [fp, #-12]
21006eec:	ea000020 	b	21006f74 <shell_parse+0xac>
21006ef0:	e51b3010 	ldr	r3, [fp, #-16]
21006ef4:	e5d33000 	ldrb	r3, [r3]
21006ef8:	e3530020 	cmp	r3, #32
21006efc:	0a00000d 	beq	21006f38 <shell_parse+0x70>
21006f00:	e51b300c 	ldr	r3, [fp, #-12]
21006f04:	e3530000 	cmp	r3, #0
21006f08:	1a00000a 	bne	21006f38 <shell_parse+0x70>
21006f0c:	e51b3008 	ldr	r3, [fp, #-8]
21006f10:	e1a03103 	lsl	r3, r3, #2
21006f14:	e51b2014 	ldr	r2, [fp, #-20]
21006f18:	e0823003 	add	r3, r2, r3
21006f1c:	e51b2010 	ldr	r2, [fp, #-16]
21006f20:	e5832000 	str	r2, [r3]
21006f24:	e51b3008 	ldr	r3, [fp, #-8]
21006f28:	e2833001 	add	r3, r3, #1
21006f2c:	e50b3008 	str	r3, [fp, #-8]
21006f30:	e3a03001 	mov	r3, #1
21006f34:	e50b300c 	str	r3, [fp, #-12]
21006f38:	e51b3010 	ldr	r3, [fp, #-16]
21006f3c:	e5d33000 	ldrb	r3, [r3]
21006f40:	e3530020 	cmp	r3, #32
21006f44:	1a000007 	bne	21006f68 <shell_parse+0xa0>
21006f48:	e51b300c 	ldr	r3, [fp, #-12]
21006f4c:	e3530001 	cmp	r3, #1
21006f50:	1a000004 	bne	21006f68 <shell_parse+0xa0>
21006f54:	e51b3010 	ldr	r3, [fp, #-16]
21006f58:	e3a02000 	mov	r2, #0
21006f5c:	e5c32000 	strb	r2, [r3]
21006f60:	e3a03000 	mov	r3, #0
21006f64:	e50b300c 	str	r3, [fp, #-12]
21006f68:	e51b3010 	ldr	r3, [fp, #-16]
21006f6c:	e2833001 	add	r3, r3, #1
21006f70:	e50b3010 	str	r3, [fp, #-16]
21006f74:	e51b3010 	ldr	r3, [fp, #-16]
21006f78:	e5d33000 	ldrb	r3, [r3]
21006f7c:	e3530000 	cmp	r3, #0
21006f80:	1affffda 	bne	21006ef0 <shell_parse+0x28>
21006f84:	e51b3008 	ldr	r3, [fp, #-8]
21006f88:	e1a00003 	mov	r0, r3
21006f8c:	e28bd000 	add	sp, fp, #0
21006f90:	e8bd0800 	pop	{fp}
21006f94:	e12fff1e 	bx	lr

21006f98 <putchar>:
21006f98:	e92d4800 	push	{fp, lr}
21006f9c:	e28db004 	add	fp, sp, #4
21006fa0:	e24dd008 	sub	sp, sp, #8
21006fa4:	e50b0008 	str	r0, [fp, #-8]
21006fa8:	e51b3008 	ldr	r3, [fp, #-8]
21006fac:	e353000a 	cmp	r3, #10
21006fb0:	1a000001 	bne	21006fbc <putchar+0x24>
21006fb4:	e3a0000d 	mov	r0, #13
21006fb8:	eb00009e 	bl	21007238 <uart_putchar>
21006fbc:	e51b3008 	ldr	r3, [fp, #-8]
21006fc0:	e3530008 	cmp	r3, #8
21006fc4:	1a000003 	bne	21006fd8 <putchar+0x40>
21006fc8:	e3a00008 	mov	r0, #8
21006fcc:	eb000099 	bl	21007238 <uart_putchar>
21006fd0:	e3a00020 	mov	r0, #32
21006fd4:	eb000097 	bl	21007238 <uart_putchar>
21006fd8:	e51b3008 	ldr	r3, [fp, #-8]
21006fdc:	e6ef3073 	uxtb	r3, r3
21006fe0:	e1a00003 	mov	r0, r3
21006fe4:	eb000093 	bl	21007238 <uart_putchar>
21006fe8:	e51b3008 	ldr	r3, [fp, #-8]
21006fec:	e1a00003 	mov	r0, r3
21006ff0:	e24bd004 	sub	sp, fp, #4
21006ff4:	e8bd8800 	pop	{fp, pc}

21006ff8 <getchar>:
21006ff8:	e92d4800 	push	{fp, lr}
21006ffc:	e28db004 	add	fp, sp, #4
21007000:	e24dd008 	sub	sp, sp, #8
21007004:	eb0000a0 	bl	2100728c <uart_getchar>
21007008:	e1a03000 	mov	r3, r0
2100700c:	e50b3008 	str	r3, [fp, #-8]
21007010:	e51b3008 	ldr	r3, [fp, #-8]
21007014:	e1a00003 	mov	r0, r3
21007018:	e24bd004 	sub	sp, fp, #4
2100701c:	e8bd8800 	pop	{fp, pc}

21007020 <puts>:
21007020:	e92d4800 	push	{fp, lr}
21007024:	e28db004 	add	fp, sp, #4
21007028:	e24dd008 	sub	sp, sp, #8
2100702c:	e50b0008 	str	r0, [fp, #-8]
21007030:	ea000006 	b	21007050 <puts+0x30>
21007034:	e51b3008 	ldr	r3, [fp, #-8]
21007038:	e5d33000 	ldrb	r3, [r3]
2100703c:	e51b2008 	ldr	r2, [fp, #-8]
21007040:	e2822001 	add	r2, r2, #1
21007044:	e50b2008 	str	r2, [fp, #-8]
21007048:	e1a00003 	mov	r0, r3
2100704c:	ebffffd1 	bl	21006f98 <putchar>
21007050:	e51b3008 	ldr	r3, [fp, #-8]
21007054:	e5d33000 	ldrb	r3, [r3]
21007058:	e3530000 	cmp	r3, #0
2100705c:	1afffff4 	bne	21007034 <puts+0x14>
21007060:	e3a0000a 	mov	r0, #10
21007064:	ebffffcb 	bl	21006f98 <putchar>
21007068:	e3a03000 	mov	r3, #0
2100706c:	e1a00003 	mov	r0, r3
21007070:	e24bd004 	sub	sp, fp, #4
21007074:	e8bd8800 	pop	{fp, pc}

21007078 <C_IRQ_handler>:
21007078:	e92d4800 	push	{fp, lr}
2100707c:	e28db004 	add	fp, sp, #4
21007080:	e59f3020 	ldr	r3, [pc, #32]	; 210070a8 <C_IRQ_handler+0x30>
21007084:	e59f201c 	ldr	r2, [pc, #28]	; 210070a8 <C_IRQ_handler+0x30>
21007088:	e5922000 	ldr	r2, [r2]
2100708c:	e3822020 	orr	r2, r2, #32
21007090:	e5832000 	str	r2, [r3]
21007094:	e59f3010 	ldr	r3, [pc, #16]	; 210070ac <C_IRQ_handler+0x34>
21007098:	e3a02000 	mov	r2, #0
2100709c:	e5832000 	str	r2, [r3]
210070a0:	ebfff396 	bl	21003f00 <user_irq_handler>
210070a4:	e8bd8800 	pop	{fp, pc}
210070a8:	e2500044 	.word	0xe2500044
210070ac:	f2000f00 	.word	0xf2000f00

210070b0 <timer_init>:
210070b0:	e52db004 	push	{fp}		; (str fp, [sp, #-4]!)
210070b4:	e28db000 	add	fp, sp, #0
210070b8:	e59f30c8 	ldr	r3, [pc, #200]	; 21007188 <timer_init+0xd8>
210070bc:	e3a02041 	mov	r2, #65	; 0x41
210070c0:	e5832000 	str	r2, [r3]
210070c4:	e59f30c0 	ldr	r3, [pc, #192]	; 2100718c <timer_init+0xdc>
210070c8:	e3a02004 	mov	r2, #4
210070cc:	e5832000 	str	r2, [r3]
210070d0:	e59f30b8 	ldr	r3, [pc, #184]	; 21007190 <timer_init+0xe0>
210070d4:	e59f20b8 	ldr	r2, [pc, #184]	; 21007194 <timer_init+0xe4>
210070d8:	e5832000 	str	r2, [r3]
210070dc:	e59f30b4 	ldr	r3, [pc, #180]	; 21007198 <timer_init+0xe8>
210070e0:	e59f20b0 	ldr	r2, [pc, #176]	; 21007198 <timer_init+0xe8>
210070e4:	e5922000 	ldr	r2, [r2]
210070e8:	e3822002 	orr	r2, r2, #2
210070ec:	e5832000 	str	r2, [r3]
210070f0:	e59f30a0 	ldr	r3, [pc, #160]	; 21007198 <timer_init+0xe8>
210070f4:	e59f209c 	ldr	r2, [pc, #156]	; 21007198 <timer_init+0xe8>
210070f8:	e5922000 	ldr	r2, [r2]
210070fc:	e3c22002 	bic	r2, r2, #2
21007100:	e5832000 	str	r2, [r3]
21007104:	e59f308c 	ldr	r3, [pc, #140]	; 21007198 <timer_init+0xe8>
21007108:	e59f2088 	ldr	r2, [pc, #136]	; 21007198 <timer_init+0xe8>
2100710c:	e5922000 	ldr	r2, [r2]
21007110:	e3822001 	orr	r2, r2, #1
21007114:	e5832000 	str	r2, [r3]
21007118:	e59f3078 	ldr	r3, [pc, #120]	; 21007198 <timer_init+0xe8>
2100711c:	e59f2074 	ldr	r2, [pc, #116]	; 21007198 <timer_init+0xe8>
21007120:	e5922000 	ldr	r2, [r2]
21007124:	e3822008 	orr	r2, r2, #8
21007128:	e5832000 	str	r2, [r3]
2100712c:	e59f3068 	ldr	r3, [pc, #104]	; 2100719c <timer_init+0xec>
21007130:	e59f2064 	ldr	r2, [pc, #100]	; 2100719c <timer_init+0xec>
21007134:	e5922000 	ldr	r2, [r2]
21007138:	e3822001 	orr	r2, r2, #1
2100713c:	e5832000 	str	r2, [r3]
21007140:	e59f3058 	ldr	r3, [pc, #88]	; 210071a0 <timer_init+0xf0>
21007144:	e59f2054 	ldr	r2, [pc, #84]	; 210071a0 <timer_init+0xf0>
21007148:	e5922000 	ldr	r2, [r2]
2100714c:	e3822602 	orr	r2, r2, #2097152	; 0x200000
21007150:	e5832000 	str	r2, [r3]
21007154:	e59f3048 	ldr	r3, [pc, #72]	; 210071a4 <timer_init+0xf4>
21007158:	e59f2044 	ldr	r2, [pc, #68]	; 210071a4 <timer_init+0xf4>
2100715c:	e5922000 	ldr	r2, [r2]
21007160:	e3c22602 	bic	r2, r2, #2097152	; 0x200000
21007164:	e5832000 	str	r2, [r3]
21007168:	e59f3038 	ldr	r3, [pc, #56]	; 210071a8 <timer_init+0xf8>
2100716c:	e59f2038 	ldr	r2, [pc, #56]	; 210071ac <timer_init+0xfc>
21007170:	e5832000 	str	r2, [r3]
21007174:	e3a03000 	mov	r3, #0
21007178:	e1a00003 	mov	r0, r3
2100717c:	e28bd000 	add	sp, fp, #0
21007180:	e8bd0800 	pop	{fp}
21007184:	e12fff1e 	bx	lr
21007188:	e2500000 	.word	0xe2500000
2100718c:	e2500004 	.word	0xe2500004
21007190:	e250000c 	.word	0xe250000c
21007194:	0003d090 	.word	0x0003d090
21007198:	e2500008 	.word	0xe2500008
2100719c:	e2500044 	.word	0xe2500044
210071a0:	f2000010 	.word	0xf2000010
210071a4:	f200000c 	.word	0xf200000c
210071a8:	f2000154 	.word	0xf2000154
210071ac:	21000014 	.word	0x21000014

210071b0 <uart_init>:
210071b0:	e52db004 	push	{fp}		; (str fp, [sp, #-4]!)
210071b4:	e28db000 	add	fp, sp, #0
210071b8:	e59f305c 	ldr	r3, [pc, #92]	; 2100721c <uart_init+0x6c>
210071bc:	e59f2058 	ldr	r2, [pc, #88]	; 2100721c <uart_init+0x6c>
210071c0:	e5922000 	ldr	r2, [r2]
210071c4:	e3c220ff 	bic	r2, r2, #255	; 0xff
210071c8:	e5832000 	str	r2, [r3]
210071cc:	e59f3048 	ldr	r3, [pc, #72]	; 2100721c <uart_init+0x6c>
210071d0:	e59f2044 	ldr	r2, [pc, #68]	; 2100721c <uart_init+0x6c>
210071d4:	e5922000 	ldr	r2, [r2]
210071d8:	e3822022 	orr	r2, r2, #34	; 0x22
210071dc:	e5832000 	str	r2, [r3]
210071e0:	e59f3038 	ldr	r3, [pc, #56]	; 21007220 <uart_init+0x70>
210071e4:	e3a02003 	mov	r2, #3
210071e8:	e5832000 	str	r2, [r3]
210071ec:	e59f3030 	ldr	r3, [pc, #48]	; 21007224 <uart_init+0x74>
210071f0:	e59f2030 	ldr	r2, [pc, #48]	; 21007228 <uart_init+0x78>
210071f4:	e5832000 	str	r2, [r3]
210071f8:	e59f302c 	ldr	r3, [pc, #44]	; 2100722c <uart_init+0x7c>
210071fc:	e3a02023 	mov	r2, #35	; 0x23
21007200:	e5832000 	str	r2, [r3]
21007204:	e59f3024 	ldr	r3, [pc, #36]	; 21007230 <uart_init+0x80>
21007208:	e59f2024 	ldr	r2, [pc, #36]	; 21007234 <uart_init+0x84>
2100720c:	e5832000 	str	r2, [r3]
21007210:	e28bd000 	add	sp, fp, #0
21007214:	e8bd0800 	pop	{fp}
21007218:	e12fff1e 	bx	lr
2100721c:	e0200000 	.word	0xe0200000
21007220:	e2900000 	.word	0xe2900000
21007224:	e2900004 	.word	0xe2900004
21007228:	00000245 	.word	0x00000245
2100722c:	e2900028 	.word	0xe2900028
21007230:	e290002c 	.word	0xe290002c
21007234:	00000808 	.word	0x00000808

21007238 <uart_putchar>:
21007238:	e52db004 	push	{fp}		; (str fp, [sp, #-4]!)
2100723c:	e28db000 	add	fp, sp, #0
21007240:	e24dd00c 	sub	sp, sp, #12
21007244:	e1a03000 	mov	r3, r0
21007248:	e54b3005 	strb	r3, [fp, #-5]
2100724c:	e1a00000 	nop			; (mov r0, r0)
21007250:	e59f302c 	ldr	r3, [pc, #44]	; 21007284 <uart_putchar+0x4c>
21007254:	e5933000 	ldr	r3, [r3]
21007258:	e2033004 	and	r3, r3, #4
2100725c:	e3530000 	cmp	r3, #0
21007260:	0afffffa 	beq	21007250 <uart_putchar+0x18>
21007264:	e59f301c 	ldr	r3, [pc, #28]	; 21007288 <uart_putchar+0x50>
21007268:	e55b2005 	ldrb	r2, [fp, #-5]
2100726c:	e5c32000 	strb	r2, [r3]
21007270:	e3a03000 	mov	r3, #0
21007274:	e1a00003 	mov	r0, r3
21007278:	e28bd000 	add	sp, fp, #0
2100727c:	e8bd0800 	pop	{fp}
21007280:	e12fff1e 	bx	lr
21007284:	e2900010 	.word	0xe2900010
21007288:	e2900020 	.word	0xe2900020

2100728c <uart_getchar>:
2100728c:	e52db004 	push	{fp}		; (str fp, [sp, #-4]!)
21007290:	e28db000 	add	fp, sp, #0
21007294:	e24dd00c 	sub	sp, sp, #12
21007298:	e1a00000 	nop			; (mov r0, r0)
2100729c:	e59f302c 	ldr	r3, [pc, #44]	; 210072d0 <uart_getchar+0x44>
210072a0:	e5933000 	ldr	r3, [r3]
210072a4:	e2033001 	and	r3, r3, #1
210072a8:	e3530000 	cmp	r3, #0
210072ac:	0afffffa 	beq	2100729c <uart_getchar+0x10>
210072b0:	e59f301c 	ldr	r3, [pc, #28]	; 210072d4 <uart_getchar+0x48>
210072b4:	e5d33000 	ldrb	r3, [r3]
210072b8:	e54b3005 	strb	r3, [fp, #-5]
210072bc:	e55b3005 	ldrb	r3, [fp, #-5]
210072c0:	e1a00003 	mov	r0, r3
210072c4:	e28bd000 	add	sp, fp, #0
210072c8:	e8bd0800 	pop	{fp}
210072cc:	e12fff1e 	bx	lr
210072d0:	e2900010 	.word	0xe2900010
210072d4:	e2900024 	.word	0xe2900024

aprj2-dpf-timer.elf:     file format elf32-littlearm

Contents of section .rodata:
 210072d8 2a2a2043 616e2774 20726561 64206672  ** Can't read fr
 210072e8 6f6d2064 65766963 65202564 202a2a0a  om device %d **.
 210072f8 00000000 7369676e 61747572 6520666f  ....signature fo
 21007308 756e643a 20307825 78203078 2578200a  und: 0x%x 0x%x .
 21007318 00000000 67657420 66732074 7970650a  ....get fs type.
 21007328 00000000 444f535f 46535f54 5950455f  ....DOS_FS_TYPE_
 21007338 4f464653 45542066 6f756e64 3a203078  OFFSET found: 0x
 21007348 25732030 78257320 0a000000 6d616e75  %s 0x%s ....manu
 21007358 616c6c79 20676574 20706172 74697469  ally get partiti
 21007368 6f6e2069 6e666f0a 00000000 70617274  on info.....part
 21007378 5f6f6666 73657420 69732025 780a0000  _offset is %x...
 21007388 696e666f 2e737461 72742069 73202578  info.start is %x
 21007398 0a000000 46415425 643a2065 6e747279  ....FAT%d: entry
 210073a8 3a203078 25303478 203d2025 642c206f  : 0x%04x = %d, o
 210073b8 66667365 743a2030 78253034 78203d20  ffset: 0x%04x = 
 210073c8 25640a00 4572726f 72207265 6164696e  %d..Error readin
 210073d8 67204641 5420626c 6f636b73 0a000000  g FAT blocks....
 210073e8 6763202d 20636c75 73746e75 6d3a2025  gc - clustnum: %
 210073f8 642c2073 74617274 73656374 3a202564  d, startsect: %d
 21007408 0a000000 4572726f 72207265 6164696e  ....Error readin
 21007418 67206461 74610a00 6d617873 697a653a  g data..maxsize:
 21007428 2025642c 2046696c 6573697a 653a2025   %d, Filesize: %
 21007438 6c642062 79746573 0a000000 6d617873  ld bytes....maxs
 21007448 697a6520 256c642c 20616374 73697a65  ize %ld, actsize
 21007458 20256c64 2c206669 6c652073 697a6520   %ld, file size 
 21007468 256c6420 62797465 730a0000 63757263  %ld bytes...curc
 21007478 6c757374 3a203078 25780a00 496e7661  lust: 0x%x..Inva
 21007488 6c696420 46415420 656e7472 79000000  lid FAT entry...
 21007498 676f7420 73697a65 203d2025 6c640a00  got size = %ld..
 210074a8 4572726f 72207265 6164696e 6720636c  Error reading cl
 210074b8 75737465 72000000 3220676f 74207369  uster...2 got si
 210074c8 7a65203d 20256c64 0a000000 3320676f  ze = %ld....3 go
 210074d8 74207369 7a65203d 20256c64 0a000000  t size = %ld....
 210074e8 4572726f 723a2056 46415420 6e616d65  Error: VFAT name
 210074f8 20697320 746f6f20 6c6f6e67 0a000000   is too long....
 21007508 4572726f 723a2072 65616469 6e672064  Error: reading d
 21007518 69726563 746f7279 20626c6f 636b0a00  irectory block..
 21007528 6765745f 64656e74 66726f6d 6469723a  get_dentfromdir:
 21007538 2025730a 00000000 20256c64 20202025   %s..... %ld   %
 21007548 7325630a 00000000 20202020 20202020  s%c.....        
 21007558 20202020 25732563 0a000000 76666174      %s%c....vfat
 21007568 6e616d65 3a207c25 737c0a00 0a256420  name: |%s|...%d 
 21007578 66696c65 2873292c 20256420 64697228  file(s), %d dir(
 21007588 73290a0a 00000000 44656e74 6e616d65  s)......Dentname
 21007598 203d3d20 4e554c4c 202d2025 640a0000   == NULL - %d...
 210075a8 4d69736d 61746368 3a207c25 737c2573  Mismatch: |%s|%s
 210075b8 7c0a0000 44656e74 4e616d65 3a202573  |...DentName: %s
 210075c8 00000000 2c207374 6172743a 20307825  ...., start: 0x%
 210075d8 78000000 28444952 29000000 00000000  x...(DIR).......
 210075e8 2c207369 7a653a20 20307825 78202573  , size:  0x%x %s
 210075f8 0a000000 4572726f 723a2072 65616469  ....Error: readi
 21007608 6e672062 6c6f636b 0a000000 46415433  ng block....FAT3
 21007618 3220656e 74726965 7320666f 756e6465  2 entries founde
 21007628 64200a00 726f6f74 5f636c75 73746572  d ..root_cluster
 21007638 203d2025 640a0000 696e666f 5f736563   = %d...info_sec
 21007648 746f723d 2025640a 00000000 46415433  tor= %d.....FAT3
 21007658 32202020 00000000 46415431 32202020  2   ....FAT12   
 21007668 00000000 46415431 36202020 00000000  ....FAT16   ....
 21007678 4572726f 723a2062 726f6b65 6e206673  Error: broken fs
 21007688 5f747970 65207369 676e0a00 4572726f  _type sign..Erro
 21007698 723a2072 65616469 6e672062 6f6f7420  r: reading boot 
 210076a8 73656374 6f720a00 3c646f5f 6661745f  sector..<do_fat_
 210076b8 72656164 3e206d61 7873697a 65203d20  read> maxsize = 
 210076c8 256c640a 00000000 6661746c 656e6774  %ld.....fatlengt
 210076d8 68203d20 25640a00 62732e66 61747320  h = %d..bs.fats 
 210076e8 3d202578 0a000000 6661745f 73656374  = %x....fat_sect
 210076f8 203d2025 780a0000 726f6f74 6469725f   = %x...rootdir_
 21007708 73656374 203d2025 780a0000 636c7573  sect = %x...clus
 21007718 745f7369 7a65203d 2025780a 00000000  t_size = %x.....
 21007728 66617473 697a6520 3d202578 0a000000  fatsize = %x....
 21007738 56464154 20537570 706f7274 20656e61  VFAT Support ena
 21007748 626c6564 0a000000 46415425 642c2066  bled....FAT%d, f
 21007758 61745f73 6563743a 2025642c 20666174  at_sect: %d, fat
 21007768 6c656e67 74683a20 25640a00 526f6f74  length: %d..Root
 21007778 64697220 62656769 6e732061 7420636c  dir begins at cl
 21007788 75737465 723a2025 642c2073 6563746f  uster: %d, secto
 21007798 723a2025 642c206f 66667365 743a2025  r: %d, offset: %
 210077a8 780a4461 74612062 6567696e 73206174  x.Data begins at
 210077b8 3a202564 0a000000 436c7573 74657220  : %d....Cluster 
 210077c8 73697a65 3a202564 0a000000 66617420  size: %d....fat 
 210077d8 72656164 2066696c 653a2025 730a0000  read file: %s...
 210077e8 66696c65 206e616d 65206973 203c2573  file name is <%s
 210077f8 3e0a0000 69736469 72203d20 25642c20  >...isdir = %d, 
 21007808 7375626e 616d6520 3d202573 0a000000  subname = %s....
 21007818 46415420 72656164 20736563 743d2564  FAT read sect=%d
 21007828 2c20636c 7573745f 73697a65 3d25642c  , clust_size=%d,
 21007838 20444952 454e5453 50455242 4c4f434b   DIRENTSPERBLOCK
 21007848 3d25640a 00000000 4572726f 723a2072  =%d.....Error: r
 21007858 65616469 6e672072 6f6f7464 69722062  eading rootdir b
 21007868 6c6f636b 0a000000 25643a20 25730a00  lock....%d: %s..
 21007878 6c5f6e61 6d652069 73202573 0a000000  l_name is %s....
 21007888 64697273 2025643a 2025730a 00000000  dirs %d: %s.....
 21007898 66696c65 73202564 3a202573 0a000000  files %d: %s....
 210078a8 526f6f74 76666174 6e616d65 3a207c25  Rootvfatname: |%
 210078b8 737c0a00 526f6f74 44656e74 6e616d65  s|..RootDentname
 210078c8 203d3d20 4e554c4c 202d2025 640a0000   == NULL - %d...
 210078d8 32206469 7273203d 2025640a 00000000  2 dirs = %d.....
 210078e8 526f6f74 4d69736d 61746368 3a207c25  RootMismatch: |%
 210078f8 737c2573 7c0a0000 526f6f74 4e616d65  s|%s|...RootName
 21007908 3a202573 00000000 454e4420 4c4f4f50  : %s....END LOOP
 21007918 3a206a3d 25642020 20636c75 73745f73  : j=%d   clust_s
 21007928 697a653d 25640a00 53697a65 3a202564  ize=%d..Size: %d
 21007938 2c20676f 743a2025 6c640a00 4e6f2063  , got: %ld..No c
 21007948 75727265 6e742064 65766963 65000000  urrent device...
 21007958 3c66696c 65206661 74206465 74656374  <file fat detect
 21007968 66732062 6567696e 3e200a00 72656164  fs begin> ..read
 21007978 5f626f6f 74736563 74616e64 76692062  _bootsectandvi b
 21007988 6567696e 200a0000 0a4e6f20 76616c69  egin ....No vali
 21007998 64204641 54206673 20666f75 6e640000  d FAT fs found..
 210079a8 50617274 6974696f 6e202564 3a204669  Partition %d: Fi
 210079b8 6c657379 7374656d 3a202573 20222573  lesystem: %s "%s
 210079c8 220a0000 3c6d6169 6e3e2062 6c6f636b  "...<main> block
 210079d8 5f726561 643a2073 74617274 203d2025  _read: start = %
 210079e8 6c642c20 636e7420 3d20256c 640a0000  ld, cnt = %ld...
 210079f8 7265743a 2025640a 00000000 0a2a2a20  ret: %d......** 
 21007a08 556e6162 6c652074 6f207573 65202573  Unable to use %s
 21007a18 2025643a 25642066 6f722066 61746c6f   %d:%d for fatlo
 21007a28 6164202a 2a0a0000 46415400 5e5e5e75  ad **...FAT.^^^u
 21007a38 73657220 69727120 68616e64 6c657200  ser irq handler.
 21007a48 61726763 20697320 30782578 0a000000  argc is 0x%x....
 21007a58 61726776 20697320 30782578 0a000000  argv is 0x%x....
 21007a68 626d7069 20697320 30782578 0a000000  bmpi is 0x%x....
 21007a78 69727120 72656164 2066696c 65202573  irq read file %s
 21007a88 0a000000 73686f77 20256420 626d7020  ....show %d bmp 
 21007a98 6e6f772e 2e2e0000 6f766572 21000000  now.....over!...
 21007aa8 696e6974 20626567 696e0000 73642066  init begin..sd f
 21007ab8 61742069 6e697420 6f766572 00000000  at init over....
 21007ac8 6c636420 696e6974 206f6b00 49495320  lcd init ok.IIS 
 21007ad8 696e6974 206f7665 72000000 49494320  init over...IIC 
 21007ae8 696e6974 206f6b00 574d3839 36302069  init ok.WM8960 i
 21007af8 6e697420 6f6b0000 2f626f6f 742e696e  nit ok../boot.in
 21007b08 69000000 626f6f74 2e696e69 3a000000  i...boot.ini:...
 21007b18 2d2d2d00 66696c65 20626f6f 742e696e  ---.file boot.in
 21007b28 69207369 7a65203d 2025640a 00000000  i size = %d.....
 21007b38 424d5000 424d5020 3d203c25 733e0a00  BMP.BMP = <%s>..
 21007b48 626d705b 25645d20 3d202573 0a000000  bmp[%d] = %s....
 21007b58 57415600 57415620 3d203c25 733e0a00  WAV.WAV = <%s>..
 21007b68 25732073 697a653a 2025640a 00000000  %s size: %d.....
 21007b78 74696d65 7220696e 6974206f 6b000000  timer init ok...
 21007b88 706c6179 20776176 206e6f77 2e2e2e00  play wav now....
 21007b98 6f766572 21206167 61696e00 30313233  over! again.0123
 21007ba8 34353637 38394142 43444546 00000000  456789ABCDEF....
 21007bb8 001a1b09 02021a1a 1a000000 53444843  ............SDHC
 21007bc8 5f496e74 65727275 70744861 6e646c65  _InterruptHandle
 21007bd8 720a0000 62656769 6e20746f 20534448  r...begin to SDH
 21007be8 435f4964 656e7469 66794361 72640a00  C_IdentifyCard..
 21007bf8 53444843 5f496465 6e746966 79436172  SDHC_IdentifyCar
 21007c08 64206f6b 210a0000 696e6974 20534448  d ok!...init SDH
 21007c18 435f5365 74536443 61726453 70656564  C_SetSdCardSpeed
 21007c28 4d6f6465 20666169 6c0a0000 3c534448  Mode fail...<SDH
 21007c38 435f5265 6164426c 6f636b73 3e207374  C_ReadBlocks> st
 21007c48 6172743d 25642c20 73697a65 3d25640a  art=%d, size=%d.
 21007c58 00000000 3c534448 435f5265 6164426c  ....<SDHC_ReadBl
 21007c68 6f636b73 3e206f6b 21207265 7475726e  ocks> ok! return
 21007c78 20310a00 50726f64 75637420 4e616d65   1..Product Name
 21007c88 203a2025 63256325 63256325 6325630a   : %c%c%c%c%c%c.
 21007c98 00000000 53444843 5f536574 53644361  ....SDHC_SetSdCa
 21007ca8 72645370 6565644d 6f64650a 00000000  rdSpeedMode.....
 21007cb8 434d4436 20666169 6c0a0000 54686973  CMD6 fail...This
 21007cc8 204d6564 69612073 7570706f 72742068   Media support h
 21007cd8 69676820 73706565 64206d6f 64652e00  igh speed mode..
 21007ce8 54686973 204d6564 69612063 616e2774  This Media can't
 21007cf8 20737570 706f7274 20686967 68207370   support high sp
 21007d08 65656420 6d6f6465 2e000000 72484d5f  eed mode....rHM_
 21007d18 434f4e54 524f4c32 203d2025 780a0000  CONTROL2 = %x...
 21007d28 72484d5f 434c4b43 4f4e203d 2025780a  rHM_CLKCON = %x.
 21007d38 00000000 6d5f7563 53706563 5665723d  ....m_ucSpecVer=
 21007d48 25640a00 4f6e6520 426c6f63 6b205369  %d..One Block Si
 21007d58 7a653a20 30782578 42797465 0a000000  ze: 0x%xByte....
 21007d68 546f7461 6c204361 72642053 697a653a  Total Card Size:
 21007d78 20307825 784d4279 74650a00 676c6f62   0x%xMByte..glob
 21007d88 616c5f63 6172645f 73697a65 3a203078  al_card_size: 0x
 21007d98 25784d42 7974650a 00000000 53444843  %xMByte.....SDHC
 21007da8 5f525350 303a2025 780a0000 53444843  _RSP0: %x...SDHC
 21007db8 5f525350 313a2025 780a0000 53444843  _RSP1: %x...SDHC
 21007dc8 5f525350 323a2025 780a0000 53444843  _RSP2: %x...SDHC
 21007dd8 5f525350 333a2025 780a0000           _RSP3: %x...    

Disassembly of section .rodata:

210072d8 <SDHC_cmd_sfr_data-0x8e0>:
210072d8:	43202a2a 	.word	0x43202a2a
210072dc:	74276e61 	.word	0x74276e61
210072e0:	61657220 	.word	0x61657220
210072e4:	72662064 	.word	0x72662064
210072e8:	64206d6f 	.word	0x64206d6f
210072ec:	63697665 	.word	0x63697665
210072f0:	64252065 	.word	0x64252065
210072f4:	0a2a2a20 	.word	0x0a2a2a20
210072f8:	00000000 	.word	0x00000000
210072fc:	6e676973 	.word	0x6e676973
21007300:	72757461 	.word	0x72757461
21007304:	6f662065 	.word	0x6f662065
21007308:	3a646e75 	.word	0x3a646e75
2100730c:	25783020 	.word	0x25783020
21007310:	78302078 	.word	0x78302078
21007314:	0a207825 	.word	0x0a207825
21007318:	00000000 	.word	0x00000000
2100731c:	20746567 	.word	0x20746567
21007320:	74207366 	.word	0x74207366
21007324:	0a657079 	.word	0x0a657079
21007328:	00000000 	.word	0x00000000
2100732c:	5f534f44 	.word	0x5f534f44
21007330:	545f5346 	.word	0x545f5346
21007334:	5f455059 	.word	0x5f455059
21007338:	5346464f 	.word	0x5346464f
2100733c:	66205445 	.word	0x66205445
21007340:	646e756f 	.word	0x646e756f
21007344:	7830203a 	.word	0x7830203a
21007348:	30207325 	.word	0x30207325
2100734c:	20732578 	.word	0x20732578
21007350:	0000000a 	.word	0x0000000a
21007354:	756e616d 	.word	0x756e616d
21007358:	796c6c61 	.word	0x796c6c61
2100735c:	74656720 	.word	0x74656720
21007360:	72617020 	.word	0x72617020
21007364:	69746974 	.word	0x69746974
21007368:	69206e6f 	.word	0x69206e6f
2100736c:	0a6f666e 	.word	0x0a6f666e
21007370:	00000000 	.word	0x00000000
21007374:	74726170 	.word	0x74726170
21007378:	66666f5f 	.word	0x66666f5f
2100737c:	20746573 	.word	0x20746573
21007380:	25207369 	.word	0x25207369
21007384:	00000a78 	.word	0x00000a78
21007388:	6f666e69 	.word	0x6f666e69
2100738c:	6174732e 	.word	0x6174732e
21007390:	69207472 	.word	0x69207472
21007394:	78252073 	.word	0x78252073
21007398:	0000000a 	.word	0x0000000a
2100739c:	25544146 	.word	0x25544146
210073a0:	65203a64 	.word	0x65203a64
210073a4:	7972746e 	.word	0x7972746e
210073a8:	7830203a 	.word	0x7830203a
210073ac:	78343025 	.word	0x78343025
210073b0:	25203d20 	.word	0x25203d20
210073b4:	6f202c64 	.word	0x6f202c64
210073b8:	65736666 	.word	0x65736666
210073bc:	30203a74 	.word	0x30203a74
210073c0:	34302578 	.word	0x34302578
210073c4:	203d2078 	.word	0x203d2078
210073c8:	000a6425 	.word	0x000a6425
210073cc:	6f727245 	.word	0x6f727245
210073d0:	65722072 	.word	0x65722072
210073d4:	6e696461 	.word	0x6e696461
210073d8:	41462067 	.word	0x41462067
210073dc:	6c622054 	.word	0x6c622054
210073e0:	736b636f 	.word	0x736b636f
210073e4:	0000000a 	.word	0x0000000a
210073e8:	2d206367 	.word	0x2d206367
210073ec:	756c6320 	.word	0x756c6320
210073f0:	756e7473 	.word	0x756e7473
210073f4:	25203a6d 	.word	0x25203a6d
210073f8:	73202c64 	.word	0x73202c64
210073fc:	74726174 	.word	0x74726174
21007400:	74636573 	.word	0x74636573
21007404:	6425203a 	.word	0x6425203a
21007408:	0000000a 	.word	0x0000000a
2100740c:	6f727245 	.word	0x6f727245
21007410:	65722072 	.word	0x65722072
21007414:	6e696461 	.word	0x6e696461
21007418:	61642067 	.word	0x61642067
2100741c:	000a6174 	.word	0x000a6174
21007420:	7378616d 	.word	0x7378616d
21007424:	3a657a69 	.word	0x3a657a69
21007428:	2c642520 	.word	0x2c642520
2100742c:	6c694620 	.word	0x6c694620
21007430:	7a697365 	.word	0x7a697365
21007434:	25203a65 	.word	0x25203a65
21007438:	6220646c 	.word	0x6220646c
2100743c:	73657479 	.word	0x73657479
21007440:	0000000a 	.word	0x0000000a
21007444:	7378616d 	.word	0x7378616d
21007448:	20657a69 	.word	0x20657a69
2100744c:	2c646c25 	.word	0x2c646c25
21007450:	74636120 	.word	0x74636120
21007454:	657a6973 	.word	0x657a6973
21007458:	646c2520 	.word	0x646c2520
2100745c:	6966202c 	.word	0x6966202c
21007460:	7320656c 	.word	0x7320656c
21007464:	20657a69 	.word	0x20657a69
21007468:	20646c25 	.word	0x20646c25
2100746c:	65747962 	.word	0x65747962
21007470:	00000a73 	.word	0x00000a73
21007474:	63727563 	.word	0x63727563
21007478:	7473756c 	.word	0x7473756c
2100747c:	7830203a 	.word	0x7830203a
21007480:	000a7825 	.word	0x000a7825
21007484:	61766e49 	.word	0x61766e49
21007488:	2064696c 	.word	0x2064696c
2100748c:	20544146 	.word	0x20544146
21007490:	72746e65 	.word	0x72746e65
21007494:	00000079 	.word	0x00000079
21007498:	20746f67 	.word	0x20746f67
2100749c:	657a6973 	.word	0x657a6973
210074a0:	25203d20 	.word	0x25203d20
210074a4:	000a646c 	.word	0x000a646c
210074a8:	6f727245 	.word	0x6f727245
210074ac:	65722072 	.word	0x65722072
210074b0:	6e696461 	.word	0x6e696461
210074b4:	6c632067 	.word	0x6c632067
210074b8:	65747375 	.word	0x65747375
210074bc:	00000072 	.word	0x00000072
210074c0:	6f672032 	.word	0x6f672032
210074c4:	69732074 	.word	0x69732074
210074c8:	3d20657a 	.word	0x3d20657a
210074cc:	646c2520 	.word	0x646c2520
210074d0:	0000000a 	.word	0x0000000a
210074d4:	6f672033 	.word	0x6f672033
210074d8:	69732074 	.word	0x69732074
210074dc:	3d20657a 	.word	0x3d20657a
210074e0:	646c2520 	.word	0x646c2520
210074e4:	0000000a 	.word	0x0000000a
210074e8:	6f727245 	.word	0x6f727245
210074ec:	56203a72 	.word	0x56203a72
210074f0:	20544146 	.word	0x20544146
210074f4:	656d616e 	.word	0x656d616e
210074f8:	20736920 	.word	0x20736920
210074fc:	206f6f74 	.word	0x206f6f74
21007500:	676e6f6c 	.word	0x676e6f6c
21007504:	0000000a 	.word	0x0000000a
21007508:	6f727245 	.word	0x6f727245
2100750c:	72203a72 	.word	0x72203a72
21007510:	69646165 	.word	0x69646165
21007514:	6420676e 	.word	0x6420676e
21007518:	63657269 	.word	0x63657269
2100751c:	79726f74 	.word	0x79726f74
21007520:	6f6c6220 	.word	0x6f6c6220
21007524:	000a6b63 	.word	0x000a6b63
21007528:	5f746567 	.word	0x5f746567
2100752c:	746e6564 	.word	0x746e6564
21007530:	6d6f7266 	.word	0x6d6f7266
21007534:	3a726964 	.word	0x3a726964
21007538:	0a732520 	.word	0x0a732520
2100753c:	00000000 	.word	0x00000000
21007540:	646c2520 	.word	0x646c2520
21007544:	25202020 	.word	0x25202020
21007548:	0a632573 	.word	0x0a632573
2100754c:	00000000 	.word	0x00000000
21007550:	20202020 	.word	0x20202020
21007554:	20202020 	.word	0x20202020
21007558:	20202020 	.word	0x20202020
2100755c:	63257325 	.word	0x63257325
21007560:	0000000a 	.word	0x0000000a
21007564:	74616676 	.word	0x74616676
21007568:	656d616e 	.word	0x656d616e
2100756c:	257c203a 	.word	0x257c203a
21007570:	000a7c73 	.word	0x000a7c73
21007574:	2064250a 	.word	0x2064250a
21007578:	656c6966 	.word	0x656c6966
2100757c:	2c297328 	.word	0x2c297328
21007580:	20642520 	.word	0x20642520
21007584:	28726964 	.word	0x28726964
21007588:	0a0a2973 	.word	0x0a0a2973
2100758c:	00000000 	.word	0x00000000
21007590:	746e6544 	.word	0x746e6544
21007594:	656d616e 	.word	0x656d616e
21007598:	203d3d20 	.word	0x203d3d20
2100759c:	4c4c554e 	.word	0x4c4c554e
210075a0:	25202d20 	.word	0x25202d20
210075a4:	00000a64 	.word	0x00000a64
210075a8:	6d73694d 	.word	0x6d73694d
210075ac:	68637461 	.word	0x68637461
210075b0:	257c203a 	.word	0x257c203a
210075b4:	73257c73 	.word	0x73257c73
210075b8:	00000a7c 	.word	0x00000a7c
210075bc:	746e6544 	.word	0x746e6544
210075c0:	656d614e 	.word	0x656d614e
210075c4:	7325203a 	.word	0x7325203a
210075c8:	00000000 	.word	0x00000000
210075cc:	7473202c 	.word	0x7473202c
210075d0:	3a747261 	.word	0x3a747261
210075d4:	25783020 	.word	0x25783020
210075d8:	00000078 	.word	0x00000078
210075dc:	52494428 	.word	0x52494428
210075e0:	00000029 	.word	0x00000029
210075e4:	00000000 	.word	0x00000000
210075e8:	6973202c 	.word	0x6973202c
210075ec:	203a657a 	.word	0x203a657a
210075f0:	25783020 	.word	0x25783020
210075f4:	73252078 	.word	0x73252078
210075f8:	0000000a 	.word	0x0000000a
210075fc:	6f727245 	.word	0x6f727245
21007600:	72203a72 	.word	0x72203a72
21007604:	69646165 	.word	0x69646165
21007608:	6220676e 	.word	0x6220676e
2100760c:	6b636f6c 	.word	0x6b636f6c
21007610:	0000000a 	.word	0x0000000a
21007614:	33544146 	.word	0x33544146
21007618:	6e652032 	.word	0x6e652032
2100761c:	65697274 	.word	0x65697274
21007620:	6f662073 	.word	0x6f662073
21007624:	65646e75 	.word	0x65646e75
21007628:	000a2064 	.word	0x000a2064
2100762c:	746f6f72 	.word	0x746f6f72
21007630:	756c635f 	.word	0x756c635f
21007634:	72657473 	.word	0x72657473
21007638:	25203d20 	.word	0x25203d20
2100763c:	00000a64 	.word	0x00000a64
21007640:	6f666e69 	.word	0x6f666e69
21007644:	6365735f 	.word	0x6365735f
21007648:	3d726f74 	.word	0x3d726f74
2100764c:	0a642520 	.word	0x0a642520
21007650:	00000000 	.word	0x00000000
21007654:	33544146 	.word	0x33544146
21007658:	20202032 	.word	0x20202032
2100765c:	00000000 	.word	0x00000000
21007660:	31544146 	.word	0x31544146
21007664:	20202032 	.word	0x20202032
21007668:	00000000 	.word	0x00000000
2100766c:	31544146 	.word	0x31544146
21007670:	20202036 	.word	0x20202036
21007674:	00000000 	.word	0x00000000
21007678:	6f727245 	.word	0x6f727245
2100767c:	62203a72 	.word	0x62203a72
21007680:	656b6f72 	.word	0x656b6f72
21007684:	7366206e 	.word	0x7366206e
21007688:	7079745f 	.word	0x7079745f
2100768c:	69732065 	.word	0x69732065
21007690:	000a6e67 	.word	0x000a6e67
21007694:	6f727245 	.word	0x6f727245
21007698:	72203a72 	.word	0x72203a72
2100769c:	69646165 	.word	0x69646165
210076a0:	6220676e 	.word	0x6220676e
210076a4:	20746f6f 	.word	0x20746f6f
210076a8:	74636573 	.word	0x74636573
210076ac:	000a726f 	.word	0x000a726f
210076b0:	5f6f643c 	.word	0x5f6f643c
210076b4:	5f746166 	.word	0x5f746166
210076b8:	64616572 	.word	0x64616572
210076bc:	616d203e 	.word	0x616d203e
210076c0:	7a697378 	.word	0x7a697378
210076c4:	203d2065 	.word	0x203d2065
210076c8:	0a646c25 	.word	0x0a646c25
210076cc:	00000000 	.word	0x00000000
210076d0:	6c746166 	.word	0x6c746166
210076d4:	74676e65 	.word	0x74676e65
210076d8:	203d2068 	.word	0x203d2068
210076dc:	000a6425 	.word	0x000a6425
210076e0:	662e7362 	.word	0x662e7362
210076e4:	20737461 	.word	0x20737461
210076e8:	7825203d 	.word	0x7825203d
210076ec:	0000000a 	.word	0x0000000a
210076f0:	5f746166 	.word	0x5f746166
210076f4:	74636573 	.word	0x74636573
210076f8:	25203d20 	.word	0x25203d20
210076fc:	00000a78 	.word	0x00000a78
21007700:	746f6f72 	.word	0x746f6f72
21007704:	5f726964 	.word	0x5f726964
21007708:	74636573 	.word	0x74636573
2100770c:	25203d20 	.word	0x25203d20
21007710:	00000a78 	.word	0x00000a78
21007714:	73756c63 	.word	0x73756c63
21007718:	69735f74 	.word	0x69735f74
2100771c:	3d20657a 	.word	0x3d20657a
21007720:	0a782520 	.word	0x0a782520
21007724:	00000000 	.word	0x00000000
21007728:	73746166 	.word	0x73746166
2100772c:	20657a69 	.word	0x20657a69
21007730:	7825203d 	.word	0x7825203d
21007734:	0000000a 	.word	0x0000000a
21007738:	54414656 	.word	0x54414656
2100773c:	70755320 	.word	0x70755320
21007740:	74726f70 	.word	0x74726f70
21007744:	616e6520 	.word	0x616e6520
21007748:	64656c62 	.word	0x64656c62
2100774c:	0000000a 	.word	0x0000000a
21007750:	25544146 	.word	0x25544146
21007754:	66202c64 	.word	0x66202c64
21007758:	735f7461 	.word	0x735f7461
2100775c:	3a746365 	.word	0x3a746365
21007760:	2c642520 	.word	0x2c642520
21007764:	74616620 	.word	0x74616620
21007768:	676e656c 	.word	0x676e656c
2100776c:	203a6874 	.word	0x203a6874
21007770:	000a6425 	.word	0x000a6425
21007774:	746f6f52 	.word	0x746f6f52
21007778:	20726964 	.word	0x20726964
2100777c:	69676562 	.word	0x69676562
21007780:	6120736e 	.word	0x6120736e
21007784:	6c632074 	.word	0x6c632074
21007788:	65747375 	.word	0x65747375
2100778c:	25203a72 	.word	0x25203a72
21007790:	73202c64 	.word	0x73202c64
21007794:	6f746365 	.word	0x6f746365
21007798:	25203a72 	.word	0x25203a72
2100779c:	6f202c64 	.word	0x6f202c64
210077a0:	65736666 	.word	0x65736666
210077a4:	25203a74 	.word	0x25203a74
210077a8:	61440a78 	.word	0x61440a78
210077ac:	62206174 	.word	0x62206174
210077b0:	6e696765 	.word	0x6e696765
210077b4:	74612073 	.word	0x74612073
210077b8:	6425203a 	.word	0x6425203a
210077bc:	0000000a 	.word	0x0000000a
210077c0:	73756c43 	.word	0x73756c43
210077c4:	20726574 	.word	0x20726574
210077c8:	657a6973 	.word	0x657a6973
210077cc:	6425203a 	.word	0x6425203a
210077d0:	0000000a 	.word	0x0000000a
210077d4:	20746166 	.word	0x20746166
210077d8:	64616572 	.word	0x64616572
210077dc:	6c696620 	.word	0x6c696620
210077e0:	25203a65 	.word	0x25203a65
210077e4:	00000a73 	.word	0x00000a73
210077e8:	656c6966 	.word	0x656c6966
210077ec:	6d616e20 	.word	0x6d616e20
210077f0:	73692065 	.word	0x73692065
210077f4:	73253c20 	.word	0x73253c20
210077f8:	00000a3e 	.word	0x00000a3e
210077fc:	69647369 	.word	0x69647369
21007800:	203d2072 	.word	0x203d2072
21007804:	202c6425 	.word	0x202c6425
21007808:	6e627573 	.word	0x6e627573
2100780c:	20656d61 	.word	0x20656d61
21007810:	7325203d 	.word	0x7325203d
21007814:	0000000a 	.word	0x0000000a
21007818:	20544146 	.word	0x20544146
2100781c:	64616572 	.word	0x64616572
21007820:	63657320 	.word	0x63657320
21007824:	64253d74 	.word	0x64253d74
21007828:	6c63202c 	.word	0x6c63202c
2100782c:	5f747375 	.word	0x5f747375
21007830:	657a6973 	.word	0x657a6973
21007834:	2c64253d 	.word	0x2c64253d
21007838:	52494420 	.word	0x52494420
2100783c:	53544e45 	.word	0x53544e45
21007840:	42524550 	.word	0x42524550
21007844:	4b434f4c 	.word	0x4b434f4c
21007848:	0a64253d 	.word	0x0a64253d
2100784c:	00000000 	.word	0x00000000
21007850:	6f727245 	.word	0x6f727245
21007854:	72203a72 	.word	0x72203a72
21007858:	69646165 	.word	0x69646165
2100785c:	7220676e 	.word	0x7220676e
21007860:	64746f6f 	.word	0x64746f6f
21007864:	62207269 	.word	0x62207269
21007868:	6b636f6c 	.word	0x6b636f6c
2100786c:	0000000a 	.word	0x0000000a
21007870:	203a6425 	.word	0x203a6425
21007874:	000a7325 	.word	0x000a7325
21007878:	616e5f6c 	.word	0x616e5f6c
2100787c:	6920656d 	.word	0x6920656d
21007880:	73252073 	.word	0x73252073
21007884:	0000000a 	.word	0x0000000a
21007888:	73726964 	.word	0x73726964
2100788c:	3a642520 	.word	0x3a642520
21007890:	0a732520 	.word	0x0a732520
21007894:	00000000 	.word	0x00000000
21007898:	656c6966 	.word	0x656c6966
2100789c:	64252073 	.word	0x64252073
210078a0:	7325203a 	.word	0x7325203a
210078a4:	0000000a 	.word	0x0000000a
210078a8:	746f6f52 	.word	0x746f6f52
210078ac:	74616676 	.word	0x74616676
210078b0:	656d616e 	.word	0x656d616e
210078b4:	257c203a 	.word	0x257c203a
210078b8:	000a7c73 	.word	0x000a7c73
210078bc:	746f6f52 	.word	0x746f6f52
210078c0:	746e6544 	.word	0x746e6544
210078c4:	656d616e 	.word	0x656d616e
210078c8:	203d3d20 	.word	0x203d3d20
210078cc:	4c4c554e 	.word	0x4c4c554e
210078d0:	25202d20 	.word	0x25202d20
210078d4:	00000a64 	.word	0x00000a64
210078d8:	69642032 	.word	0x69642032
210078dc:	3d207372 	.word	0x3d207372
210078e0:	0a642520 	.word	0x0a642520
210078e4:	00000000 	.word	0x00000000
210078e8:	746f6f52 	.word	0x746f6f52
210078ec:	6d73694d 	.word	0x6d73694d
210078f0:	68637461 	.word	0x68637461
210078f4:	257c203a 	.word	0x257c203a
210078f8:	73257c73 	.word	0x73257c73
210078fc:	00000a7c 	.word	0x00000a7c
21007900:	746f6f52 	.word	0x746f6f52
21007904:	656d614e 	.word	0x656d614e
21007908:	7325203a 	.word	0x7325203a
2100790c:	00000000 	.word	0x00000000
21007910:	20444e45 	.word	0x20444e45
21007914:	504f4f4c 	.word	0x504f4f4c
21007918:	3d6a203a 	.word	0x3d6a203a
2100791c:	20206425 	.word	0x20206425
21007920:	756c6320 	.word	0x756c6320
21007924:	735f7473 	.word	0x735f7473
21007928:	3d657a69 	.word	0x3d657a69
2100792c:	000a6425 	.word	0x000a6425
21007930:	657a6953 	.word	0x657a6953
21007934:	6425203a 	.word	0x6425203a
21007938:	6f67202c 	.word	0x6f67202c
2100793c:	25203a74 	.word	0x25203a74
21007940:	000a646c 	.word	0x000a646c
21007944:	63206f4e 	.word	0x63206f4e
21007948:	65727275 	.word	0x65727275
2100794c:	6420746e 	.word	0x6420746e
21007950:	63697665 	.word	0x63697665
21007954:	00000065 	.word	0x00000065
21007958:	6c69663c 	.word	0x6c69663c
2100795c:	61662065 	.word	0x61662065
21007960:	65642074 	.word	0x65642074
21007964:	74636574 	.word	0x74636574
21007968:	62207366 	.word	0x62207366
2100796c:	6e696765 	.word	0x6e696765
21007970:	000a203e 	.word	0x000a203e
21007974:	64616572 	.word	0x64616572
21007978:	6f6f625f 	.word	0x6f6f625f
2100797c:	63657374 	.word	0x63657374
21007980:	646e6174 	.word	0x646e6174
21007984:	62206976 	.word	0x62206976
21007988:	6e696765 	.word	0x6e696765
2100798c:	00000a20 	.word	0x00000a20
21007990:	206f4e0a 	.word	0x206f4e0a
21007994:	696c6176 	.word	0x696c6176
21007998:	41462064 	.word	0x41462064
2100799c:	73662054 	.word	0x73662054
210079a0:	756f6620 	.word	0x756f6620
210079a4:	0000646e 	.word	0x0000646e
210079a8:	74726150 	.word	0x74726150
210079ac:	6f697469 	.word	0x6f697469
210079b0:	6425206e 	.word	0x6425206e
210079b4:	6946203a 	.word	0x6946203a
210079b8:	7973656c 	.word	0x7973656c
210079bc:	6d657473 	.word	0x6d657473
210079c0:	7325203a 	.word	0x7325203a
210079c4:	73252220 	.word	0x73252220
210079c8:	00000a22 	.word	0x00000a22
210079cc:	69616d3c 	.word	0x69616d3c
210079d0:	62203e6e 	.word	0x62203e6e
210079d4:	6b636f6c 	.word	0x6b636f6c
210079d8:	6165725f 	.word	0x6165725f
210079dc:	73203a64 	.word	0x73203a64
210079e0:	74726174 	.word	0x74726174
210079e4:	25203d20 	.word	0x25203d20
210079e8:	202c646c 	.word	0x202c646c
210079ec:	20746e63 	.word	0x20746e63
210079f0:	6c25203d 	.word	0x6c25203d
210079f4:	00000a64 	.word	0x00000a64
210079f8:	3a746572 	.word	0x3a746572
210079fc:	0a642520 	.word	0x0a642520
21007a00:	00000000 	.word	0x00000000
21007a04:	202a2a0a 	.word	0x202a2a0a
21007a08:	62616e55 	.word	0x62616e55
21007a0c:	7420656c 	.word	0x7420656c
21007a10:	7375206f 	.word	0x7375206f
21007a14:	73252065 	.word	0x73252065
21007a18:	3a642520 	.word	0x3a642520
21007a1c:	66206425 	.word	0x66206425
21007a20:	6620726f 	.word	0x6620726f
21007a24:	6f6c7461 	.word	0x6f6c7461
21007a28:	2a206461 	.word	0x2a206461
21007a2c:	00000a2a 	.word	0x00000a2a
21007a30:	00544146 	.word	0x00544146
21007a34:	755e5e5e 	.word	0x755e5e5e
21007a38:	20726573 	.word	0x20726573
21007a3c:	20717269 	.word	0x20717269
21007a40:	646e6168 	.word	0x646e6168
21007a44:	0072656c 	.word	0x0072656c
21007a48:	63677261 	.word	0x63677261
21007a4c:	20736920 	.word	0x20736920
21007a50:	78257830 	.word	0x78257830
21007a54:	0000000a 	.word	0x0000000a
21007a58:	76677261 	.word	0x76677261
21007a5c:	20736920 	.word	0x20736920
21007a60:	78257830 	.word	0x78257830
21007a64:	0000000a 	.word	0x0000000a
21007a68:	69706d62 	.word	0x69706d62
21007a6c:	20736920 	.word	0x20736920
21007a70:	78257830 	.word	0x78257830
21007a74:	0000000a 	.word	0x0000000a
21007a78:	20717269 	.word	0x20717269
21007a7c:	64616572 	.word	0x64616572
21007a80:	6c696620 	.word	0x6c696620
21007a84:	73252065 	.word	0x73252065
21007a88:	0000000a 	.word	0x0000000a
21007a8c:	776f6873 	.word	0x776f6873
21007a90:	20642520 	.word	0x20642520
21007a94:	20706d62 	.word	0x20706d62
21007a98:	2e776f6e 	.word	0x2e776f6e
21007a9c:	00002e2e 	.word	0x00002e2e
21007aa0:	7265766f 	.word	0x7265766f
21007aa4:	00000021 	.word	0x00000021
21007aa8:	74696e69 	.word	0x74696e69
21007aac:	67656220 	.word	0x67656220
21007ab0:	00006e69 	.word	0x00006e69
21007ab4:	66206473 	.word	0x66206473
21007ab8:	69207461 	.word	0x69207461
21007abc:	2074696e 	.word	0x2074696e
21007ac0:	7265766f 	.word	0x7265766f
21007ac4:	00000000 	.word	0x00000000
21007ac8:	2064636c 	.word	0x2064636c
21007acc:	74696e69 	.word	0x74696e69
21007ad0:	006b6f20 	.word	0x006b6f20
21007ad4:	20534949 	.word	0x20534949
21007ad8:	74696e69 	.word	0x74696e69
21007adc:	65766f20 	.word	0x65766f20
21007ae0:	00000072 	.word	0x00000072
21007ae4:	20434949 	.word	0x20434949
21007ae8:	74696e69 	.word	0x74696e69
21007aec:	006b6f20 	.word	0x006b6f20
21007af0:	39384d57 	.word	0x39384d57
21007af4:	69203036 	.word	0x69203036
21007af8:	2074696e 	.word	0x2074696e
21007afc:	00006b6f 	.word	0x00006b6f
21007b00:	6f6f622f 	.word	0x6f6f622f
21007b04:	6e692e74 	.word	0x6e692e74
21007b08:	00000069 	.word	0x00000069
21007b0c:	746f6f62 	.word	0x746f6f62
21007b10:	696e692e 	.word	0x696e692e
21007b14:	0000003a 	.word	0x0000003a
21007b18:	002d2d2d 	.word	0x002d2d2d
21007b1c:	656c6966 	.word	0x656c6966
21007b20:	6f6f6220 	.word	0x6f6f6220
21007b24:	6e692e74 	.word	0x6e692e74
21007b28:	69732069 	.word	0x69732069
21007b2c:	3d20657a 	.word	0x3d20657a
21007b30:	0a642520 	.word	0x0a642520
21007b34:	00000000 	.word	0x00000000
21007b38:	00504d42 	.word	0x00504d42
21007b3c:	20504d42 	.word	0x20504d42
21007b40:	253c203d 	.word	0x253c203d
21007b44:	000a3e73 	.word	0x000a3e73
21007b48:	5b706d62 	.word	0x5b706d62
21007b4c:	205d6425 	.word	0x205d6425
21007b50:	7325203d 	.word	0x7325203d
21007b54:	0000000a 	.word	0x0000000a
21007b58:	00564157 	.word	0x00564157
21007b5c:	20564157 	.word	0x20564157
21007b60:	253c203d 	.word	0x253c203d
21007b64:	000a3e73 	.word	0x000a3e73
21007b68:	73207325 	.word	0x73207325
21007b6c:	3a657a69 	.word	0x3a657a69
21007b70:	0a642520 	.word	0x0a642520
21007b74:	00000000 	.word	0x00000000
21007b78:	656d6974 	.word	0x656d6974
21007b7c:	6e692072 	.word	0x6e692072
21007b80:	6f207469 	.word	0x6f207469
21007b84:	0000006b 	.word	0x0000006b
21007b88:	79616c70 	.word	0x79616c70
21007b8c:	76617720 	.word	0x76617720
21007b90:	776f6e20 	.word	0x776f6e20
21007b94:	002e2e2e 	.word	0x002e2e2e
21007b98:	7265766f 	.word	0x7265766f
21007b9c:	67612021 	.word	0x67612021
21007ba0:	006e6961 	.word	0x006e6961
21007ba4:	33323130 	.word	0x33323130
21007ba8:	37363534 	.word	0x37363534
21007bac:	42413938 	.word	0x42413938
21007bb0:	46454443 	.word	0x46454443
21007bb4:	00000000 	.word	0x00000000

21007bb8 <SDHC_cmd_sfr_data>:
21007bb8:	091b1a00 1a1a0202 0000001a 43484453     ............SDHC
21007bc8:	746e495f 75727265 61487470 656c646e     _InterruptHandle
21007bd8:	00000a72 69676562 6f74206e 48445320     r...begin to SDH
21007be8:	64495f43 69746e65 61437966 000a6472     C_IdentifyCard..
21007bf8:	43484453 6564495f 6669746e 72614379     SDHC_IdentifyCar
21007c08:	6b6f2064 00000a21 74696e69 48445320     d ok!...init SDH
21007c18:	65535f43 43645374 53647261 64656570     C_SetSdCardSpeed
21007c28:	65646f4d 69616620 00000a6c 4844533c     Mode fail...<SDH
21007c38:	65525f43 6c426461 736b636f 7473203e     C_ReadBlocks> st
21007c48:	3d747261 202c6425 657a6973 0a64253d     art=%d, size=%d.
21007c58:	00000000 4844533c 65525f43 6c426461     ....<SDHC_ReadBl
21007c68:	736b636f 6b6f203e 65722021 6e727574     ocks> ok! return
21007c78:	000a3120 646f7250 20746375 656d614e      1..Product Name
21007c88:	25203a20 25632563 25632563 0a632563      : %c%c%c%c%c%c.
21007c98:	00000000 43484453 7465535f 61436453     ....SDHC_SetSdCa
21007ca8:	70536472 4d646565 0a65646f 00000000     rdSpeedMode.....
21007cb8:	36444d43 69616620 00000a6c 73696854     CMD6 fail...This
21007cc8:	64654d20 73206169 6f707075 68207472      Media support h
21007cd8:	20686769 65657073 6f6d2064 002e6564     igh speed mode..
21007ce8:	73696854 64654d20 63206169 74276e61     This Media can't
21007cf8:	70757320 74726f70 67696820 70732068      support high sp
21007d08:	20646565 65646f6d 0000002e 5f4d4872     eed mode....rHM_
21007d18:	544e4f43 324c4f52 25203d20 00000a78     CONTROL2 = %x...
21007d28:	5f4d4872 434b4c43 3d204e4f 0a782520     rHM_CLKCON = %x.
21007d38:	00000000 63755f6d 63657053 3d726556     ....m_ucSpecVer=
21007d48:	000a6425 20656e4f 636f6c42 6953206b     %d..One Block Si
21007d58:	203a657a 78257830 65747942 0000000a     ze: 0x%xByte....
21007d68:	61746f54 6143206c 53206472 3a657a69     Total Card Size:
21007d78:	25783020 79424d78 000a6574 626f6c67      0x%xMByte..glob
21007d88:	635f6c61 5f647261 657a6973 7830203a     al_card_size: 0x
21007d98:	424d7825 0a657479 00000000 43484453     %xMByte.....SDHC
21007da8:	5053525f 25203a30 00000a78 43484453     _RSP0: %x...SDHC
21007db8:	5053525f 25203a31 00000a78 43484453     _RSP1: %x...SDHC
21007dc8:	5053525f 25203a32 00000a78 43484453     _RSP2: %x...SDHC
21007dd8:	5053525f 25203a33 00000a78              _RSP3: %x...
